 tesseract_dll

 Timestamp is 68079dba (Tue Apr 22 08:46:34 2025)

 Preferred load address is 0000000180000000

 Start         Length     Name                   Class
 0001:00000000 000008ecH .text                   CODE
 0001:000008f0 00000044H .text$_ZNSt3__1lsINS_11char_traitsIcEEEERNS_13basic_ostreamIcT_EES6_PKc CODE
 0001:00000940 0000001dH .text$_ZNSt3__113basic_ostreamIcNS_11char_traitsIcEEElsB6v15007EPFRS3_S4_E CODE
 0001:00000960 00000049H .text$_ZNSt3__14endlIcNS_11char_traitsIcEEEERNS_13basic_ostreamIT_T0_EES7_ CODE
 0001:000009b0 00000266H .text$_ZNSt3__124__put_character_sequenceIcNS_11char_traitsIcEEEERNS_13basic_ostreamIT_T0_EES7_PKS4_y CODE
 0001:00000c20 00000019H .text$_ZNSt3__111char_traitsIcE6lengthEPKc CODE
 0001:00000c40 00000023H .text$_ZNSt3__113basic_ostreamIcNS_11char_traitsIcEEE6sentryC1ERS3_ CODE
 0001:00000c70 00000012H .text$_ZNKSt3__113basic_ostreamIcNS_11char_traitsIcEEE6sentrycvbB6v15007Ev CODE
 0001:00000c90 000002acH .text$_ZNSt3__116__pad_and_outputIcNS_11char_traitsIcEEEENS_19ostreambuf_iteratorIT_T0_EES6_PKS4_S8_S8_RNS_8ios_baseES4_ CODE
 0001:00000f40 00000023H .text$_ZNSt3__119ostreambuf_iteratorIcNS_11char_traitsIcEEEC1B6v15007ERNS_13basic_ostreamIcS2_EE CODE
 0001:00000f70 0000000eH .text$_ZNKSt3__18ios_base5flagsB6v15007Ev CODE
 0001:00000f80 00000066H .text$_ZNKSt3__19basic_iosIcNS_11char_traitsIcEEE4fillB6v15007Ev CODE
 0001:00000ff0 00000017H .text$_ZNKSt3__119ostreambuf_iteratorIcNS_11char_traitsIcEEE6failedB6v15007Ev CODE
 0001:00001010 00000021H .text$_ZNSt3__19basic_iosIcNS_11char_traitsIcEEE8setstateB6v15007Ej CODE
 0001:00001040 00000019H .text$_ZNSt3__113basic_ostreamIcNS_11char_traitsIcEEE6sentryD1Ev CODE
 0001:00001060 0000000eH .text$__clang_call_terminate CODE
 0001:00001070 00000083H .text$_ZNSt3__113basic_ostreamIcNS_11char_traitsIcEEE6sentryC2ERS3_ CODE
 0001:00001100 0000001dH .text$_ZNKSt3__19basic_iosIcNS_11char_traitsIcEEE4goodB6v15007Ev CODE
 0001:00001120 00000012H .text$_ZNKSt3__19basic_iosIcNS_11char_traitsIcEEE3tieB6v15007Ev CODE
 0001:00001140 00000017H .text$_ZNKSt3__18ios_base4goodB6v15007Ev CODE
 0001:00001160 0000000fH .text$_ZNKSt3__18ios_base5widthB6v15007Ev CODE
 0001:00001170 0000002eH .text$_ZNSt3__115basic_streambufIcNS_11char_traitsIcEEE5sputnB6v15007EPKcx CODE
 0001:000011a0 0000002dH .text$_ZNSt3__112basic_stringIcNS_11char_traitsIcEENS_9allocatorIcEEEC1B6v15007Eyc CODE
 0001:000011d0 00000021H .text$_ZNSt3__112basic_stringIcNS_11char_traitsIcEENS_9allocatorIcEEE4dataB6v15007Ev CODE
 0001:00001200 0000002dH .text$_ZNSt3__18ios_base5widthB6v15007Ex CODE
 0001:00001230 00000050H .text$_ZNSt3__112basic_stringIcNS_11char_traitsIcEENS_9allocatorIcEEEC2B6v15007Eyc CODE
 0001:00001280 0000002dH .text$_ZNSt3__117__compressed_pairINS_12basic_stringIcNS_11char_traitsIcEENS_9allocatorIcEEE5__repES5_EC1B6v15007INS_18__default_init_tagESA_EEOT_OT0_ CODE
 0001:000012b0 00000007H .text$_ZNSt3__119__debug_db_insert_cB6v15007INS_12basic_stringIcNS_11char_traitsIcEENS_9allocatorIcEEEEEEvPT_ CODE
 0001:000012c0 0000003aH .text$_ZNSt3__117__compressed_pairINS_12basic_stringIcNS_11char_traitsIcEENS_9allocatorIcEEE5__repES5_EC2B6v15007INS_18__default_init_tagESA_EEOT_OT0_ CODE
 0001:00001300 00000011H .text$_ZNSt3__122__compressed_pair_elemINS_12basic_stringIcNS_11char_traitsIcEENS_9allocatorIcEEE5__repELi0ELb0EEC2B6v15007ENS_18__default_init_tagE CODE
 0001:00001320 0000001dH .text$_ZNSt3__122__compressed_pair_elemINS_9allocatorIcEELi1ELb1EEC2B6v15007ENS_18__default_init_tagE CODE
 0001:00001340 00000019H .text$_ZNSt3__19allocatorIcEC2B6v15007Ev CODE
 0001:00001360 00000007H .text$_ZNSt3__116__non_trivial_ifILb1ENS_9allocatorIcEEEC2B6v15007Ev CODE
 0001:00001370 0000000bH .text$_ZNSt3__112__to_addressB6v15007IcEEPT_S2_ CODE
 0001:00001380 00000052H .text$_ZNSt3__112basic_stringIcNS_11char_traitsIcEENS_9allocatorIcEEE13__get_pointerB6v15007Ev CODE
 0001:000013e0 00000026H .text$_ZNKSt3__112basic_stringIcNS_11char_traitsIcEENS_9allocatorIcEEE9__is_longB6v15007Ev CODE
 0001:00001410 0000001cH .text$_ZNSt3__112basic_stringIcNS_11char_traitsIcEENS_9allocatorIcEEE18__get_long_pointerB6v15007Ev CODE
 0001:00001430 00000025H .text$_ZNSt3__112basic_stringIcNS_11char_traitsIcEENS_9allocatorIcEEE19__get_short_pointerB6v15007Ev CODE
 0001:00001460 00000019H .text$_ZNKSt3__117__compressed_pairINS_12basic_stringIcNS_11char_traitsIcEENS_9allocatorIcEEE5__repES5_E5firstB6v15007Ev CODE
 0001:00001480 0000000bH .text$_ZNKSt3__122__compressed_pair_elemINS_12basic_stringIcNS_11char_traitsIcEENS_9allocatorIcEEE5__repELi0ELb0EE5__getB6v15007Ev CODE
 0001:00001490 00000019H .text$_ZNSt3__117__compressed_pairINS_12basic_stringIcNS_11char_traitsIcEENS_9allocatorIcEEE5__repES5_E5firstB6v15007Ev CODE
 0001:000014b0 0000000bH .text$_ZNSt3__122__compressed_pair_elemINS_12basic_stringIcNS_11char_traitsIcEENS_9allocatorIcEEE5__repELi0ELb0EE5__getB6v15007Ev CODE
 0001:000014c0 0000000bH .text$_ZNSt3__114pointer_traitsIPcE10pointer_toB6v15007ERc CODE
 0001:000014d0 00000051H .text$_ZNSt3__119ostreambuf_iteratorIcNS_11char_traitsIcEEEC2B6v15007ERNS_13basic_ostreamIcS2_EE CODE
 0001:00001530 00000019H .text$_ZNKSt3__19basic_iosIcNS_11char_traitsIcEEE5rdbufB6v15007Ev CODE
 0001:00001550 0000000fH .text$_ZNKSt3__18ios_base5rdbufB6v15007Ev CODE
 0001:00001560 00000019H .text$_ZNSt3__111char_traitsIcE11eq_int_typeEii CODE
 0001:00001580 00000006H .text$_ZNSt3__111char_traitsIcE3eofEv CODE
 0001:00001590 00000082H .text$_ZNKSt3__19basic_iosIcNS_11char_traitsIcEEE5widenB6v15007Ec CODE
 0001:00001620 00000020H .text$_ZNSt3__19use_facetB6v15007INS_5ctypeIcEEEERKT_RKNS_6localeE CODE
 0001:00001640 00000022H .text$_ZNKSt3__15ctypeIcE5widenB6v15007Ec CODE
 0001:00001670 00000024H .text$_ZNSt3__18ios_base8setstateB6v15007Ej CODE
 0001:000016a0 00000149H .text$_ZNSt3__113basic_ostreamIcNS_11char_traitsIcEEE6sentryD2Ev CODE
 0001:000017f0 0000001aH .text$_ZNSt3__115basic_streambufIcNS_11char_traitsIcEEE7pubsyncB6v15007Ev CODE
 0001:00001810 00000e6cH .text                   CODE
 0001:00002680 0000000bH .text$_ZSt14get_unexpectedv CODE
 0001:00002690 00000045H .text$_ZSt9terminatev   CODE
 0001:000026e0 00000013H .text$_ZSt12__unexpectedPFvvE CODE
 0001:00002700 00000014H .text$_ZSt10unexpectedv CODE
 0001:00002720 0000000bH .text$_ZSt13get_terminatev CODE
 0001:00002730 0000002fH .text$_ZSt11__terminatePFvvE CODE
 0001:00002760 0000000bH .text$_ZSt15get_new_handlerv CODE
 0001:0000276c 00000000H .text                   CODE
 0001:00002770 00000004H .text$_ZN10__cxxabiv119__setExceptionClassEP17_Unwind_Exceptiony CODE
 0001:00002780 00000004H .text$_ZN10__cxxabiv119__getExceptionClassEPK17_Unwind_Exception CODE
 0001:00002790 0000002aH .text$_ZN10__cxxabiv121__isOurExceptionClassEPK17_Unwind_Exception CODE
 0001:000027c0 00000050H .text$_ZN10__cxxabiv122exception_cleanup_funcE19_Unwind_Reason_CodeP17_Unwind_Exception CODE
 0001:00002810 0000004fH .text$__cxa_decrement_exception_refcount CODE
 0001:00002860 00000050H .text$__cxa_allocate_exception CODE
 0001:000028b0 000000a0H .text$__cxa_begin_catch CODE
 0001:00002950 0000001fH .text$__cxa_free_exception CODE
 0001:00002970 0000004eH .text$__cxa_allocate_dependent_exception CODE
 0001:000029c0 00000005H .text$__cxa_free_dependent_exception CODE
 0001:000029d0 00000068H .text$__cxa_init_exception CODE
 0001:00002a40 000000cdH .text$__cxa_throw       CODE
 0001:00002b10 0000011fH .text$__cxa_rethrow     CODE
 0001:00002c30 0000001bH .text$_ZN10__cxxabiv1L12failed_throwEPNS_15__cxa_exceptionE CODE
 0001:00002c50 00000005H .text$__cxa_get_exception_ptr CODE
 0001:00002c60 000000fbH .text$__cxa_end_catch   CODE
 0001:00002d60 0000004fH .text$__cxa_current_exception_type CODE
 0001:00002db0 0000000eH .text$__cxa_increment_exception_refcount CODE
 0001:00002dc0 00000076H .text$__cxa_current_primary_exception CODE
 0001:00002e40 0000013eH .text$__cxa_rethrow_primary_exception CODE
 0001:00002f80 0000006dH .text$_ZN10__cxxabiv1L27dependent_exception_cleanupE19_Unwind_Reason_CodeP17_Unwind_Exception CODE
 0001:00002ff0 0000002eH .text$__cxa_uncaught_exception CODE
 0001:00003020 00000026H .text$__cxa_uncaught_exceptions CODE
 0001:00003048 00000000H .text                   CODE
 0001:00003050 00000350H .text$__gxx_personality_seh0 CODE
 0001:000033a0 00000213H .text$_ZN10__cxxabiv1L21__gxx_personality_impEi14_Unwind_ActionyP17_Unwind_ExceptionP15_Unwind_Context CODE
 0001:000035c0 0000022eH .text$__cxa_call_unexpected CODE
 0001:000037f0 000001c4H .text$_ZN10__cxxabiv1L18readEncodedPointerEPPKhhy CODE
 0001:000039c0 0000011eH .text$_ZN10__cxxabiv1L24exception_spec_can_catchExPKhhPKNS_16__shim_type_infoEPvP17_Unwind_Exceptiony CODE
 0001:00003ae0 0000072dH .text$_ZN10__cxxabiv1L11scan_eh_tabERNS_12_GLOBAL__N_112scan_resultsE14_Unwind_ActionbP17_Unwind_ExceptionP15_Unwind_Context CODE
 0001:00004210 00000000H .text                   CODE
 0001:00004210 00000013H .text$_ZSt18uncaught_exceptionv CODE
 0001:00004230 00000005H .text$_ZSt19uncaught_exceptionsv CODE
 0001:00004240 00000008H .text$_ZNSt13exception_ptrD2Ev CODE
 0001:00004250 0000000eH .text$_ZNSt13exception_ptrC2ERKS_ CODE
 0001:00004260 00000031H .text$_ZNSt13exception_ptraSERKS_ CODE
 0001:000042a0 00000021H .text$_ZNSt16nested_exceptionC2Ev CODE
 0001:000042d0 00000019H .text$_ZSt17current_exceptionv CODE
 0001:000042f0 00000013H .text$_ZNSt16nested_exceptionD2Ev CODE
 0001:00004310 00000028H .text$_ZNSt16nested_exceptionD0Ev CODE
 0001:00004340 0000004dH .text$_ZNKSt16nested_exception14rethrow_nestedEv CODE
 0001:00004390 00000012H .text$_ZSt17rethrow_exceptionSt13exception_ptr CODE
 0001:000043a4 00000000H .text                   CODE
 0001:000043b0 000002a3H .text$_ZNSt3__112basic_stringIcNS_11char_traitsIcEENS_9allocatorIcEEE7replaceEyyPKcy CODE
 0001:00004660 00000011H .text$_ZNKSt3__112basic_stringIcNS_11char_traitsIcEENS_9allocatorIcEEE20__throw_out_of_rangeB6v15007Ev CODE
 0001:00004680 00000143H .text$_ZNSt3__112basic_stringIcNS_11char_traitsIcEENS_9allocatorIcEEE21__grow_by_and_replaceEyyyyyyPKc CODE
 0001:000047d0 000000b3H .text$_ZNKSt3__112basic_stringIcNS_11char_traitsIcEENS_9allocatorIcEEE5rfindEPKcyy CODE
 0001:00004890 0000007cH .text$_ZNSt3__112basic_stringIcNS_11char_traitsIcEENS_9allocatorIcEEE6__initEPKcyy CODE
 0001:00004910 00000011H .text$_ZNKSt3__112basic_stringIcNS_11char_traitsIcEENS_9allocatorIcEEE20__throw_length_errorB6v15007Ev CODE
 0001:00004930 0000008cH .text$_ZNSt3__112basic_stringIcNS_11char_traitsIcEENS_9allocatorIcEEEC2ERKS5_ CODE
 0001:000049c0 0000008cH .text$_ZNSt3__112basic_stringIcNS_11char_traitsIcEENS_9allocatorIcEEEC1ERKS5_ CODE
 0001:00004a50 0000003eH .text$_ZNSt3__112basic_stringIcNS_11char_traitsIcEENS_9allocatorIcEEE7replaceEyyPKc CODE
 0001:00004a90 0000008cH .text$_ZNSt3__112basic_stringIcNS_11char_traitsIcEENS_9allocatorIcEEEC2ERKS5_RKS4_ CODE
 0001:00004b20 0000008cH .text$_ZNSt3__112basic_stringIcNS_11char_traitsIcEENS_9allocatorIcEEEC1ERKS5_RKS4_ CODE
 0001:00004bb0 00000086H .text$_ZNKSt3__112basic_stringIcNS_11char_traitsIcEENS_9allocatorIcEEE16find_last_not_ofEPKcyy CODE
 0001:00004c40 0000000fH .text$_ZNSt3__112basic_stringIcNS_11char_traitsIcEENS_9allocatorIcEEED2Ev CODE
 0001:00004c50 0000000fH .text$_ZNSt3__112basic_stringIcNS_11char_traitsIcEENS_9allocatorIcEEED1Ev CODE
 0001:00004c60 00000094H .text$_ZNKSt3__112basic_stringIcNS_11char_traitsIcEENS_9allocatorIcEEE17find_first_not_ofEPKcyy CODE
 0001:00004d00 000001c2H .text$_ZNSt3__112basic_stringIcNS_11char_traitsIcEENS_9allocatorIcEEE6insertEyyc CODE
 0001:00004ed0 00000106H .text$_ZNSt3__112basic_stringIcNS_11char_traitsIcEENS_9allocatorIcEEE9__grow_byEyyyyyy CODE
 0001:00004fe0 00000029H .text$_ZNSt3__112basic_stringIcNS_11char_traitsIcEENS_9allocatorIcEEEaSEc CODE
 0001:00005010 00000080H .text$_ZNSt3__112basic_stringIcNS_11char_traitsIcEENS_9allocatorIcEEE6__initEPKcy CODE
 0001:00005090 0000003fH .text$_ZNKSt3__112basic_stringIcNS_11char_traitsIcEENS_9allocatorIcEEE2atEy CODE
 0001:000050d0 00000201H .text$_ZNSt3__112basic_stringIcNS_11char_traitsIcEENS_9allocatorIcEEE6insertEyPKcy CODE
 0001:000052e0 0000007eH .text$_ZNKSt3__112basic_stringIcNS_11char_traitsIcEENS_9allocatorIcEEE13find_first_ofEPKcyy CODE
 0001:00005360 000001e0H .text$_ZNSt3__112basic_stringIcNS_11char_traitsIcEENS_9allocatorIcEEE7replaceEyyyc CODE
 0001:00005540 00000005H .text$_ZNSt3__112basic_stringIcNS_11char_traitsIcEENS_9allocatorIcEEE6assignEPKcy CODE
 0001:00005550 0000013cH .text$_ZNSt3__112basic_stringIcNS_11char_traitsIcEENS_9allocatorIcEEE17__assign_externalEPKcy CODE
 0001:00005690 00000074H .text$_ZNSt3__112basic_stringIcNS_11char_traitsIcEENS_9allocatorIcEEE7reserveEy CODE
 0001:00005710 000000feH .text$_ZNSt3__112basic_stringIcNS_11char_traitsIcEENS_9allocatorIcEEE18__shrink_or_extendB6v15007Ey CODE
 0001:00005810 00000187H .text$_ZNSt3__112basic_stringIcNS_11char_traitsIcEENS_9allocatorIcEEE6appendEPKcy CODE
 0001:000059a0 0000004aH .text$_ZNSt3__112basic_stringIcNS_11char_traitsIcEENS_9allocatorIcEEE6assignERKS5_yy CODE
 0001:000059f0 00000069H .text$_ZNKSt3__112basic_stringIcNS_11char_traitsIcEENS_9allocatorIcEEE4copyEPcyy CODE
 0001:00005a60 000000c5H .text$_ZNSt3__112basic_stringIcNS_11char_traitsIcEENS_9allocatorIcEEEC2ERKS5_yyRKS4_ CODE
 0001:00005b30 000000c5H .text$_ZNSt3__112basic_stringIcNS_11char_traitsIcEENS_9allocatorIcEEEC1ERKS5_yyRKS4_ CODE
 0001:00005c00 00000070H .text$_ZNKSt3__112basic_stringIcNS_11char_traitsIcEENS_9allocatorIcEEE4findEcy CODE
 0001:00005c70 00000071H .text$_ZNSt3__112basic_stringIcNS_11char_traitsIcEENS_9allocatorIcEEE6__initEyc CODE
 0001:00005cf0 00000030H .text$_ZNSt3__112basic_stringIcNS_11char_traitsIcEENS_9allocatorIcEEE6insertEyPKc CODE
 0001:00005d20 00000083H .text$_ZNKSt3__112basic_stringIcNS_11char_traitsIcEENS_9allocatorIcEEE12find_last_ofEPKcyy CODE
 0001:00005db0 000000ffH .text$_ZNSt3__112basic_stringIcNS_11char_traitsIcEENS_9allocatorIcEEE9push_backEc CODE
 0001:00005eb0 00000162H .text$_ZNSt3__112basic_stringIcNS_11char_traitsIcEENS_9allocatorIcEEE6appendEyc CODE
 0001:00006020 0000004cH .text$_ZNKSt3__112basic_stringIcNS_11char_traitsIcEENS_9allocatorIcEEE5rfindEcy CODE
 0001:00006070 00000136H .text$_ZNSt3__112basic_stringIcNS_11char_traitsIcEENS_9allocatorIcEEE6assignEyc CODE
 0001:000061b0 000000bfH .text$_ZNSt3__112basic_stringIcNS_11char_traitsIcEENS_9allocatorIcEEE5eraseEyy CODE
 0001:00006270 0000004aH .text$_ZNSt3__112basic_stringIcNS_11char_traitsIcEENS_9allocatorIcEEE6appendERKS5_yy CODE
 0001:000062c0 00000089H .text$_ZNKSt3__112basic_stringIcNS_11char_traitsIcEENS_9allocatorIcEEE7compareEPKc CODE
 0001:00006350 00000081H .text$_ZNKSt3__112basic_stringIcNS_11char_traitsIcEENS_9allocatorIcEEE7compareEyyPKcy CODE
 0001:000063e0 0000009aH .text$_ZNKSt3__112basic_stringIcNS_11char_traitsIcEENS_9allocatorIcEEE7compareEyyPKc CODE
 0001:00006480 0000003fH .text$_ZNSt3__112basic_stringIcNS_11char_traitsIcEENS_9allocatorIcEEE2atEy CODE
 0001:000064c0 00000028H .text$_ZNSt3__112basic_stringIcNS_11char_traitsIcEENS_9allocatorIcEEE6assignEPKc CODE
 0001:000064f0 000000d2H .text$_ZNKSt3__112basic_stringIcNS_11char_traitsIcEENS_9allocatorIcEEE4findEPKcyy CODE
 0001:000065d0 000000a9H .text$_ZNKSt3__112basic_stringIcNS_11char_traitsIcEENS_9allocatorIcEEE7compareEyyRKS5_yy CODE
 0001:00006680 000001f1H .text$_ZNSt3__112basic_stringIcNS_11char_traitsIcEENS_9allocatorIcEEEaSERKS5_ CODE
 0001:00006880 00000028H .text$_ZNSt3__112basic_stringIcNS_11char_traitsIcEENS_9allocatorIcEEE6appendEPKc CODE
 0001:000068b0 0000005aH .text$_ZNSt3__112basic_stringIcNS_11char_traitsIcEENS_9allocatorIcEEE7replaceEyyRKS5_yy CODE
 0001:00006910 000001b7H .text$_ZNSt3__112basic_stringIcNS_11char_traitsIcEENS_9allocatorIcEEE6insertENS_11__wrap_iterIPKcEEc CODE
 0001:00006ad0 00000046H .text$_ZNSt3__112basic_stringIcNS_11char_traitsIcEENS_9allocatorIcEEE6resizeEyc CODE
 0001:00006b20 0000004fH .text$_ZNSt3__112basic_stringIcNS_11char_traitsIcEENS_9allocatorIcEEE6insertEyRKS5_yy CODE
 0001:00006b70 00000190H .text$_ZNSt3__112basic_stringIwNS_11char_traitsIwEENS_9allocatorIwEEE7replaceEyyPKwy CODE
 0001:00006d00 00000011H .text$_ZNKSt3__112basic_stringIwNS_11char_traitsIwEENS_9allocatorIwEEE20__throw_out_of_rangeB6v15007Ev CODE
 0001:00006d20 00000157H .text$_ZNSt3__112basic_stringIwNS_11char_traitsIwEENS_9allocatorIwEEE21__grow_by_and_replaceEyyyyyyPKw CODE
 0001:00006e80 000000c9H .text$_ZNKSt3__112basic_stringIwNS_11char_traitsIwEENS_9allocatorIwEEE5rfindEPKwyy CODE
 0001:00006f50 0000008aH .text$_ZNSt3__112basic_stringIwNS_11char_traitsIwEENS_9allocatorIwEEE6__initEPKwyy CODE
 0001:00006fe0 00000011H .text$_ZNKSt3__112basic_stringIwNS_11char_traitsIwEENS_9allocatorIwEEE20__throw_length_errorB6v15007Ev CODE
 0001:00007000 00000099H .text$_ZNSt3__112basic_stringIwNS_11char_traitsIwEENS_9allocatorIwEEEC2ERKS5_ CODE
 0001:000070a0 00000099H .text$_ZNSt3__112basic_stringIwNS_11char_traitsIwEENS_9allocatorIwEEEC1ERKS5_ CODE
 0001:00007140 0000003eH .text$_ZNSt3__112basic_stringIwNS_11char_traitsIwEENS_9allocatorIwEEE7replaceEyyPKw CODE
 0001:00007180 00000099H .text$_ZNSt3__112basic_stringIwNS_11char_traitsIwEENS_9allocatorIwEEEC2ERKS5_RKS4_ CODE
 0001:00007220 00000099H .text$_ZNSt3__112basic_stringIwNS_11char_traitsIwEENS_9allocatorIwEEEC1ERKS5_RKS4_ CODE
 0001:000072c0 00000085H .text$_ZNKSt3__112basic_stringIwNS_11char_traitsIwEENS_9allocatorIwEEE16find_last_not_ofEPKwyy CODE
 0001:00007350 0000000fH .text$_ZNSt3__112basic_stringIwNS_11char_traitsIwEENS_9allocatorIwEEED2Ev CODE
 0001:00007360 0000000fH .text$_ZNSt3__112basic_stringIwNS_11char_traitsIwEENS_9allocatorIwEEED1Ev CODE
 0001:00007370 00000086H .text$_ZNKSt3__112basic_stringIwNS_11char_traitsIwEENS_9allocatorIwEEE17find_first_not_ofEPKwyy CODE
 0001:00007400 000002d1H .text$_ZNSt3__112basic_stringIwNS_11char_traitsIwEENS_9allocatorIwEEE6insertEyyw CODE
 0001:000076e0 00000127H .text$_ZNSt3__112basic_stringIwNS_11char_traitsIwEENS_9allocatorIwEEE9__grow_byEyyyyyy CODE
 0001:00007810 0000002fH .text$_ZNSt3__112basic_stringIwNS_11char_traitsIwEENS_9allocatorIwEEEaSEw CODE
 0001:00007840 0000008fH .text$_ZNSt3__112basic_stringIwNS_11char_traitsIwEENS_9allocatorIwEEE6__initEPKwy CODE
 0001:000078d0 00000045H .text$_ZNKSt3__112basic_stringIwNS_11char_traitsIwEENS_9allocatorIwEEE2atEy CODE
 0001:00007920 0000011fH .text$_ZNSt3__112basic_stringIwNS_11char_traitsIwEENS_9allocatorIwEEE6insertEyPKwy CODE
 0001:00007a40 00000084H .text$_ZNKSt3__112basic_stringIwNS_11char_traitsIwEENS_9allocatorIwEEE13find_first_ofEPKwyy CODE
 0001:00007ad0 00000304H .text$_ZNSt3__112basic_stringIwNS_11char_traitsIwEENS_9allocatorIwEEE7replaceEyyyw CODE
 0001:00007de0 000000a6H .text$_ZNSt3__112basic_stringIwNS_11char_traitsIwEENS_9allocatorIwEEE6assignEPKwy CODE
 0001:00007e90 0000007dH .text$_ZNSt3__112basic_stringIwNS_11char_traitsIwEENS_9allocatorIwEEE7reserveEy CODE
 0001:00007f10 00000123H .text$_ZNSt3__112basic_stringIwNS_11char_traitsIwEENS_9allocatorIwEEE18__shrink_or_extendB6v15007Ey CODE
 0001:00008040 000000c9H .text$_ZNSt3__112basic_stringIwNS_11char_traitsIwEENS_9allocatorIwEEE6appendEPKwy CODE
 0001:00008110 000000e3H .text$_ZNSt3__112basic_stringIwNS_11char_traitsIwEENS_9allocatorIwEEE6assignERKS5_yy CODE
 0001:00008200 00000066H .text$_ZNKSt3__112basic_stringIwNS_11char_traitsIwEENS_9allocatorIwEEE4copyEPwyy CODE
 0001:00008270 000000dcH .text$_ZNSt3__112basic_stringIwNS_11char_traitsIwEENS_9allocatorIwEEEC2ERKS5_yyRKS4_ CODE
 0001:00008350 000000dcH .text$_ZNSt3__112basic_stringIwNS_11char_traitsIwEENS_9allocatorIwEEEC1ERKS5_yyRKS4_ CODE
 0001:00008430 00000068H .text$_ZNKSt3__112basic_stringIwNS_11char_traitsIwEENS_9allocatorIwEEE4findEwy CODE
 0001:000084a0 00000166H .text$_ZNSt3__112basic_stringIwNS_11char_traitsIwEENS_9allocatorIwEEE6__initEyw CODE
 0001:00008610 00000030H .text$_ZNSt3__112basic_stringIwNS_11char_traitsIwEENS_9allocatorIwEEE6insertEyPKw CODE
 0001:00008640 00000080H .text$_ZNKSt3__112basic_stringIwNS_11char_traitsIwEENS_9allocatorIwEEE12find_last_ofEPKwyy CODE
 0001:000086c0 00000113H .text$_ZNSt3__112basic_stringIwNS_11char_traitsIwEENS_9allocatorIwEEE9push_backEw CODE
 0001:000087e0 0000028aH .text$_ZNSt3__112basic_stringIwNS_11char_traitsIwEENS_9allocatorIwEEE6appendEyw CODE
 0001:00008a70 0000005bH .text$_ZNKSt3__112basic_stringIwNS_11char_traitsIwEENS_9allocatorIwEEE5rfindEwy CODE
 0001:00008ad0 00000225H .text$_ZNSt3__112basic_stringIwNS_11char_traitsIwEENS_9allocatorIwEEE6assignEyw CODE
 0001:00008d00 000000c1H .text$_ZNSt3__112basic_stringIwNS_11char_traitsIwEENS_9allocatorIwEEE5eraseEyy CODE
 0001:00008dd0 00000105H .text$_ZNSt3__112basic_stringIwNS_11char_traitsIwEENS_9allocatorIwEEE6appendERKS5_yy CODE
 0001:00008ee0 0000009bH .text$_ZNKSt3__112basic_stringIwNS_11char_traitsIwEENS_9allocatorIwEEE7compareEPKw CODE
 0001:00008f80 000000a7H .text$_ZNKSt3__112basic_stringIwNS_11char_traitsIwEENS_9allocatorIwEEE7compareEyyPKwy CODE
 0001:00009030 000000b7H .text$_ZNKSt3__112basic_stringIwNS_11char_traitsIwEENS_9allocatorIwEEE7compareEyyPKw CODE
 0001:000090f0 00000045H .text$_ZNSt3__112basic_stringIwNS_11char_traitsIwEENS_9allocatorIwEEE2atEy CODE
 0001:00009140 000000b5H .text$_ZNSt3__112basic_stringIwNS_11char_traitsIwEENS_9allocatorIwEEE6assignEPKw CODE
 0001:00009200 000000e9H .text$_ZNKSt3__112basic_stringIwNS_11char_traitsIwEENS_9allocatorIwEEE4findEPKwyy CODE
 0001:000092f0 000000cfH .text$_ZNKSt3__112basic_stringIwNS_11char_traitsIwEENS_9allocatorIwEEE7compareEyyRKS5_yy CODE
 0001:000093c0 0000017fH .text$_ZNSt3__112basic_stringIwNS_11char_traitsIwEENS_9allocatorIwEEEaSERKS5_ CODE
 0001:00009540 000000d4H .text$_ZNSt3__112basic_stringIwNS_11char_traitsIwEENS_9allocatorIwEEE6appendEPKw CODE
 0001:00009620 0000005cH .text$_ZNSt3__112basic_stringIwNS_11char_traitsIwEENS_9allocatorIwEEE7replaceEyyRKS5_yy CODE
 0001:00009680 000001d9H .text$_ZNSt3__112basic_stringIwNS_11char_traitsIwEENS_9allocatorIwEEE6insertENS_11__wrap_iterIPKwEEw CODE
 0001:00009860 0000004bH .text$_ZNSt3__112basic_stringIwNS_11char_traitsIwEENS_9allocatorIwEEE6resizeEyw CODE
 0001:000098b0 00000051H .text$_ZNSt3__112basic_stringIwNS_11char_traitsIwEENS_9allocatorIwEEE6insertEyRKS5_yy CODE
 0001:00009910 000000f8H .text$_ZNSt3__1plIcNS_11char_traitsIcEENS_9allocatorIcEEEENS_12basic_stringIT_T0_T1_EEPKS6_RKS9_ CODE
 0001:00009a10 00000011H .text$_ZNKSt3__121__basic_string_commonILb1EE20__throw_length_errorEv CODE
 0001:00009a30 0000004bH .text$_ZNSt3__120__throw_length_errorB6v15007EPKc CODE
 0001:00009a80 00000011H .text$_ZNKSt3__121__basic_string_commonILb1EE20__throw_out_of_rangeEv CODE
 0001:00009aa0 0000004bH .text$_ZNSt3__120__throw_out_of_rangeB6v15007EPKc CODE
 0001:00009af0 000000cbH .text$_ZNSt3__14stoiERKNS_12basic_stringIcNS_11char_traitsIcEENS_9allocatorIcEEEEPyi CODE
 0001:00009bc0 000000cbH .text$_ZNSt3__14stolERKNS_12basic_stringIcNS_11char_traitsIcEENS_9allocatorIcEEEEPyi CODE
 0001:00009c90 000000cdH .text$_ZNSt3__15stoulERKNS_12basic_stringIcNS_11char_traitsIcEENS_9allocatorIcEEEEPyi CODE
 0001:00009d60 000000cfH .text$_ZNSt3__15stollERKNS_12basic_stringIcNS_11char_traitsIcEENS_9allocatorIcEEEEPyi CODE
 0001:00009e30 000000d4H .text$_ZNSt3__16stoullERKNS_12basic_stringIcNS_11char_traitsIcEENS_9allocatorIcEEEEPyi CODE
 0001:00009f10 000000cfH .text$_ZNSt3__14stofERKNS_12basic_stringIcNS_11char_traitsIcEENS_9allocatorIcEEEEPy CODE
 0001:00009fe0 000000cfH .text$_ZNSt3__14stodERKNS_12basic_stringIcNS_11char_traitsIcEENS_9allocatorIcEEEEPy CODE
 0001:0000a0b0 000000d1H .text$_ZNSt3__15stoldERKNS_12basic_stringIcNS_11char_traitsIcEENS_9allocatorIcEEEEPy CODE
 0001:0000a190 000000cfH .text$_ZNSt3__14stoiERKNS_12basic_stringIwNS_11char_traitsIwEENS_9allocatorIwEEEEPyi CODE
 0001:0000a260 000000cfH .text$_ZNSt3__14stolERKNS_12basic_stringIwNS_11char_traitsIwEENS_9allocatorIwEEEEPyi CODE
 0001:0000a330 000000d1H .text$_ZNSt3__15stoulERKNS_12basic_stringIwNS_11char_traitsIwEENS_9allocatorIwEEEEPyi CODE
 0001:0000a410 000000d3H .text$_ZNSt3__15stollERKNS_12basic_stringIwNS_11char_traitsIwEENS_9allocatorIwEEEEPyi CODE
 0001:0000a4f0 000000d8H .text$_ZNSt3__16stoullERKNS_12basic_stringIwNS_11char_traitsIwEENS_9allocatorIwEEEEPyi CODE
 0001:0000a5d0 000000d3H .text$_ZNSt3__14stofERKNS_12basic_stringIwNS_11char_traitsIwEENS_9allocatorIwEEEEPy CODE
 0001:0000a6b0 000000d3H .text$_ZNSt3__14stodERKNS_12basic_stringIwNS_11char_traitsIwEENS_9allocatorIwEEEEPy CODE
 0001:0000a790 000000d5H .text$_ZNSt3__15stoldERKNS_12basic_stringIwNS_11char_traitsIwEENS_9allocatorIwEEEEPy CODE
 0001:0000a870 000000fcH .text$_ZNSt3__19to_stringEi CODE
 0001:0000a970 000000fcH .text$_ZNSt3__19to_stringEl CODE
 0001:0000aa70 000001ecH .text$_ZNSt3__19to_stringEx CODE
 0001:0000ac60 0000009fH .text$_ZNSt3__19to_stringEj CODE
 0001:0000ad00 0000009fH .text$_ZNSt3__19to_stringEm CODE
 0001:0000ada0 00000196H .text$_ZNSt3__19to_stringEy CODE
 0001:0000af40 000001f8H .text$_ZNSt3__110to_wstringEi CODE
 0001:0000b140 000001f8H .text$_ZNSt3__110to_wstringEl CODE
 0001:0000b340 000002d8H .text$_ZNSt3__110to_wstringEx CODE
 0001:0000b620 00000188H .text$_ZNSt3__110to_wstringEj CODE
 0001:0000b7b0 00000188H .text$_ZNSt3__110to_wstringEm CODE
 0001:0000b940 00000288H .text$_ZNSt3__110to_wstringEy CODE
 0001:0000bbd0 000001cdH .text$_ZNSt3__19to_stringEf CODE
 0001:0000bda0 000001cdH .text$_ZNSt3__19to_stringEd CODE
 0001:0000bf70 000001cdH .text$_ZNSt3__19to_stringEe CODE
 0001:0000c140 000001e3H .text$_ZNSt3__110to_wstringEf CODE
 0001:0000c330 000001e3H .text$_ZNSt3__110to_wstringEd CODE
 0001:0000c520 000001e3H .text$_ZNSt3__110to_wstringEe CODE
 0001:0000c710 00000031H .text$_ZSt28__throw_bad_array_new_lengthB6v15007v CODE
 0001:0000c750 00000021H .text$_ZNSt12length_errorC2B6v15007EPKc CODE
 0001:0000c780 00000021H .text$_ZNSt12out_of_rangeC2B6v15007EPKc CODE
 0001:0000c7b0 0000014cH .text$_ZNSt3__112_GLOBAL__N_130throw_from_string_out_of_rangeERKNS_12basic_stringIcNS_11char_traitsIcEENS_9allocatorIcEEEE CODE
 0001:0000c900 0000014cH .text$_ZNSt3__112_GLOBAL__N_129throw_from_string_invalid_argERKNS_12basic_stringIcNS_11char_traitsIcEENS_9allocatorIcEEEE CODE
 0001:0000ca50 00000046H .text$_ZL8swprintfPwyPKwz CODE
 0001:0000caa0 000003cdH .text$_ZNSt3__16__itoa13__base_10_u32B6v15007EPcj CODE
 0001:0000ce70 00000000H .text                   CODE
 0001:0000ce70 00000008H .text$_ZNKSt3__119__iostream_category4nameEv CODE
 0001:0000ce80 00000072H .text$_ZNKSt3__119__iostream_category7messageEi CODE
 0001:0000cf00 0000004fH .text$_ZNSt3__117iostream_categoryEv CODE
 0001:0000cf50 0000000cH .text$__dtor__ZZNSt3__117iostream_categoryEvE1s CODE
 0001:0000cf60 00000031H .text$_ZNSt3__18ios_base7failureC2ERKNS_12basic_stringIcNS_11char_traitsIcEENS_9allocatorIcEEEERKNS_10error_codeE CODE
 0001:0000cfa0 00000031H .text$_ZNSt3__18ios_base7failureC2EPKcRKNS_10error_codeE CODE
 0001:0000cfe0 00000005H .text$_ZNSt3__18ios_base7failureD2Ev CODE
 0001:0000cff0 0000001aH .text$_ZNSt3__18ios_base7failureD0Ev CODE
 0001:0000d010 00000043H .text$_ZNSt3__18ios_base16__call_callbacksENS0_5eventE CODE
 0001:0000d060 0000007fH .text$_ZNSt3__18ios_base5imbueERKNS_6localeE CODE
 0001:0000d0e0 0000001aH .text$_ZNKSt3__18ios_base6getlocEv CODE
 0001:0000d100 0000000eH .text$_ZNSt3__18ios_base6xallocEv CODE
 0001:0000d110 0000011dH .text$_ZNSt3__18ios_base5iwordEi CODE
 0001:0000d230 00000125H .text$_ZNSt3__18ios_base5pwordEi CODE
 0001:0000d360 000000d0H .text$_ZNSt3__18ios_base17register_callbackEPFvNS0_5eventERS0_iEi CODE
 0001:0000d430 00000077H .text$_ZNSt3__18ios_baseD2Ev CODE
 0001:0000d4b0 0000001aH .text$_ZNSt3__18ios_baseD0Ev CODE
 0001:0000d4d0 0000002aH .text$_ZNSt3__18ios_base5clearEj CODE
 0001:0000d500 000000a3H .text$_ZNSt3__115__throw_failureB6v15007EPKc CODE
 0001:0000d5b0 0000004bH .text$_ZNSt3__18ios_base4initEPv CODE
 0001:0000d600 000002a4H .text$_ZNSt3__18ios_base7copyfmtERKS0_ CODE
 0001:0000d8b0 00000091H .text$_ZNSt3__18ios_base4moveERS0_ CODE
 0001:0000d950 00000143H .text$_ZNSt3__18ios_base4swapERS0_ CODE
 0001:0000daa0 00000019H .text$_ZNSt3__18ios_base33__set_badbit_and_consider_rethrowEv CODE
 0001:0000dac0 00000019H .text$_ZNSt3__18ios_base34__set_failbit_and_consider_rethrowEv CODE
 0001:0000dae0 0000000eH .text$_ZNSt3__18ios_base15sync_with_stdioEb CODE
 0001:0000daf0 0000001aH .text$_ZNSt3__119__iostream_categoryD0Ev CODE
 0001:0000db0c 00000000H .text                   CODE
 0001:0000db10 00000005H .text$_ZNSt3__19basic_iosIcNS_11char_traitsIcEEED2Ev CODE
 0001:0000db20 00000005H .text$_ZNSt3__19basic_iosIcNS_11char_traitsIcEEED1Ev CODE
 0001:0000db30 0000001aH .text$_ZNSt3__19basic_iosIcNS_11char_traitsIcEEED0Ev CODE
 0001:0000db50 00000068H .text$_ZNSt3__19basic_iosIcNS_11char_traitsIcEEE7copyfmtERKS3_ CODE
 0001:0000dbc0 00000013H .text$_ZNSt3__115basic_streambufIcNS_11char_traitsIcEEED2Ev CODE
 0001:0000dbe0 00000013H .text$_ZNSt3__115basic_streambufIcNS_11char_traitsIcEEED1Ev CODE
 0001:0000dc00 00000028H .text$_ZNSt3__115basic_streambufIcNS_11char_traitsIcEEED0Ev CODE
 0001:0000dc30 00000041H .text$_ZNSt3__115basic_streambufIcNS_11char_traitsIcEEE8pubimbueERKNS_6localeE CODE
 0001:0000dc80 0000001aH .text$_ZNKSt3__115basic_streambufIcNS_11char_traitsIcEEE6getlocEv CODE
 0001:0000dca0 0000000aH .text$_ZNSt3__115basic_streambufIcNS_11char_traitsIcEEE9pubsetbufEPcx CODE
 0001:0000dcb0 00000022H .text$_ZNSt3__115basic_streambufIcNS_11char_traitsIcEEE10pubseekoffExNS_8ios_base7seekdirEj CODE
 0001:0000dce0 00000025H .text$_ZNSt3__115basic_streambufIcNS_11char_traitsIcEEE10pubseekposENS_4fposI9_MbstatetEEj CODE
 0001:0000dd10 00000007H .text$_ZNSt3__115basic_streambufIcNS_11char_traitsIcEEE7pubsyncEv CODE
 0001:0000dd20 00000018H .text$_ZNSt3__115basic_streambufIcNS_11char_traitsIcEEE8in_availEv CODE
 0001:0000dd40 0000005fH .text$_ZNSt3__115basic_streambufIcNS_11char_traitsIcEEE6snextcEv CODE
 0001:0000dda0 0000001dH .text$_ZNSt3__115basic_streambufIcNS_11char_traitsIcEEE6sbumpcEv CODE
 0001:0000ddc0 00000015H .text$_ZNSt3__115basic_streambufIcNS_11char_traitsIcEEE5sgetcEv CODE
 0001:0000dde0 0000000aH .text$_ZNSt3__115basic_streambufIcNS_11char_traitsIcEEE5sgetnEPcx CODE
 0001:0000ddf0 00000027H .text$_ZNSt3__115basic_streambufIcNS_11char_traitsIcEEE9sputbackcEc CODE
 0001:0000de20 00000026H .text$_ZNSt3__115basic_streambufIcNS_11char_traitsIcEEE7sungetcEv CODE
 0001:0000de50 00000026H .text$_ZNSt3__115basic_streambufIcNS_11char_traitsIcEEE5sputcEc CODE
 0001:0000de80 0000000aH .text$_ZNSt3__115basic_streambufIcNS_11char_traitsIcEEE5sputnEPKcx CODE
 0001:0000de90 00000030H .text$_ZNSt3__115basic_streambufIcNS_11char_traitsIcEEEC2Ev CODE
 0001:0000dec0 00000030H .text$_ZNSt3__115basic_streambufIcNS_11char_traitsIcEEEC1Ev CODE
 0001:0000def0 00000042H .text$_ZNSt3__115basic_streambufIcNS_11char_traitsIcEEEC2ERKS3_ CODE
 0001:0000df40 00000042H .text$_ZNSt3__115basic_streambufIcNS_11char_traitsIcEEEC1ERKS3_ CODE
 0001:0000df90 0000003bH .text$_ZNSt3__115basic_streambufIcNS_11char_traitsIcEEEaSERKS3_ CODE
 0001:0000dfd0 000000b3H .text$_ZNSt3__115basic_streambufIcNS_11char_traitsIcEEE4swapERS3_ CODE
 0001:0000e090 00000008H .text$_ZNSt3__115basic_streambufIcNS_11char_traitsIcEEE5gbumpEi CODE
 0001:0000e0a0 0000000dH .text$_ZNSt3__115basic_streambufIcNS_11char_traitsIcEEE4setgEPcS4_S4_ CODE
 0001:0000e0b0 00000008H .text$_ZNSt3__115basic_streambufIcNS_11char_traitsIcEEE5pbumpEi CODE
 0001:0000e0c0 0000000dH .text$_ZNSt3__115basic_streambufIcNS_11char_traitsIcEEE4setpEPcS4_ CODE
 0001:0000e0d0 00000001H .text$_ZNSt3__115basic_streambufIcNS_11char_traitsIcEEE5imbueERKNS_6localeE CODE
 0001:0000e0e0 00000004H .text$_ZNSt3__115basic_streambufIcNS_11char_traitsIcEEE6setbufEPcx CODE
 0001:0000e0f0 0000000eH .text$_ZNSt3__115basic_streambufIcNS_11char_traitsIcEEE7seekoffExNS_8ios_base7seekdirEj CODE
 0001:0000e100 0000000eH .text$_ZNSt3__115basic_streambufIcNS_11char_traitsIcEEE7seekposENS_4fposI9_MbstatetEEj CODE
 0001:0000e110 00000003H .text$_ZNSt3__115basic_streambufIcNS_11char_traitsIcEEE4syncEv CODE
 0001:0000e120 00000003H .text$_ZNSt3__115basic_streambufIcNS_11char_traitsIcEEE9showmanycEv CODE
 0001:0000e130 000000c4H .text$_ZNSt3__115basic_streambufIcNS_11char_traitsIcEEE6xsgetnEPcx CODE
 0001:0000e200 00000006H .text$_ZNSt3__115basic_streambufIcNS_11char_traitsIcEEE9underflowEv CODE
 0001:0000e210 00000033H .text$_ZNSt3__115basic_streambufIcNS_11char_traitsIcEEE5uflowEv CODE
 0001:0000e250 00000006H .text$_ZNSt3__115basic_streambufIcNS_11char_traitsIcEEE9pbackfailEi CODE
 0001:0000e260 000000a0H .text$_ZNSt3__115basic_streambufIcNS_11char_traitsIcEEE6xsputnEPKcx CODE
 0001:0000e300 00000006H .text$_ZNSt3__115basic_streambufIcNS_11char_traitsIcEEE8overflowEi CODE
 0001:0000e310 00000054H .text$_ZNSt3__113basic_istreamIcNS_11char_traitsIcEEEC2EPNS_15basic_streambufIcS2_EE CODE
 0001:0000e370 00000062H .text$_ZNSt3__113basic_istreamIcNS_11char_traitsIcEEEC1EPNS_15basic_streambufIcS2_EE CODE
 0001:0000e3e0 00000001H .text$_ZNSt3__113basic_istreamIcNS_11char_traitsIcEEED2Ev CODE
 0001:0000e3f0 00000009H .text$_ZNSt3__113basic_istreamIcNS_11char_traitsIcEEED1Ev CODE
 0001:0000e400 00000013H .text$_ZTv0_n24_NSt3__113basic_istreamIcNS_11char_traitsIcEEED1Ev CODE
 0001:0000e420 0000001eH .text$_ZNSt3__113basic_istreamIcNS_11char_traitsIcEEED0Ev CODE
 0001:0000e440 00000029H .text$_ZTv0_n24_NSt3__113basic_istreamIcNS_11char_traitsIcEEED0Ev CODE
 0001:0000e470 00000081H .text$_ZNSt3__113basic_istreamIcNS_11char_traitsIcEEE4swapERS3_ CODE
 0001:0000e500 00000182H .text$_ZNSt3__113basic_istreamIcNS_11char_traitsIcEEE6sentryC2ERS3_b CODE
 0001:0000e690 000000cfH .text$_ZNSt3__113basic_ostreamIcNS_11char_traitsIcEEE5flushEv CODE
 0001:0000e760 00000005H .text$_ZNSt3__113basic_istreamIcNS_11char_traitsIcEEE6sentryC1ERS3_b CODE
 0001:0000e770 00000003H .text$_ZNSt3__113basic_istreamIcNS_11char_traitsIcEEErsEPFRS3_S4_E CODE
 0001:0000e780 0000001dH .text$_ZNSt3__113basic_istreamIcNS_11char_traitsIcEEErsEPFRNS_9basic_iosIcS2_EES6_E CODE
 0001:0000e7a0 0000001dH .text$_ZNSt3__113basic_istreamIcNS_11char_traitsIcEEErsEPFRNS_8ios_baseES5_E CODE
 0001:0000e7c0 0000016eH .text$_ZNSt3__113basic_istreamIcNS_11char_traitsIcEEErsEPNS_15basic_streambufIcS2_EE CODE
 0001:0000e930 00000005H .text$_ZNSt3__113basic_istreamIcNS_11char_traitsIcEEErsERb CODE
 0001:0000e940 0000010cH .text$_ZNSt3__118__input_arithmeticB6v15007IbcNS_11char_traitsIcEEEERNS_13basic_istreamIT0_T1_EES7_RT_ CODE
 0001:0000ea50 00000005H .text$_ZNSt3__113basic_istreamIcNS_11char_traitsIcEEErsERs CODE
 0001:0000ea60 00000146H .text$_ZNSt3__138__input_arithmetic_with_numeric_limitsB6v15007IscNS_11char_traitsIcEEEERNS_13basic_istreamIT0_T1_EES7_RT_ CODE
 0001:0000ebb0 00000005H .text$_ZNSt3__113basic_istreamIcNS_11char_traitsIcEEErsERt CODE
 0001:0000ebc0 0000010cH .text$_ZNSt3__118__input_arithmeticB6v15007ItcNS_11char_traitsIcEEEERNS_13basic_istreamIT0_T1_EES7_RT_ CODE
 0001:0000ecd0 00000005H .text$_ZNSt3__113basic_istreamIcNS_11char_traitsIcEEErsERi CODE
 0001:0000ece0 0000011bH .text$_ZNSt3__138__input_arithmetic_with_numeric_limitsB6v15007IicNS_11char_traitsIcEEEERNS_13basic_istreamIT0_T1_EES7_RT_ CODE
 0001:0000ee00 00000005H .text$_ZNSt3__113basic_istreamIcNS_11char_traitsIcEEErsERj CODE
 0001:0000ee10 0000010cH .text$_ZNSt3__118__input_arithmeticB6v15007IjcNS_11char_traitsIcEEEERNS_13basic_istreamIT0_T1_EES7_RT_ CODE
 0001:0000ef20 00000005H .text$_ZNSt3__113basic_istreamIcNS_11char_traitsIcEEErsERl CODE
 0001:0000ef30 0000010cH .text$_ZNSt3__118__input_arithmeticB6v15007IlcNS_11char_traitsIcEEEERNS_13basic_istreamIT0_T1_EES7_RT_ CODE
 0001:0000f040 00000005H .text$_ZNSt3__113basic_istreamIcNS_11char_traitsIcEEErsERm CODE
 0001:0000f050 0000010cH .text$_ZNSt3__118__input_arithmeticB6v15007ImcNS_11char_traitsIcEEEERNS_13basic_istreamIT0_T1_EES7_RT_ CODE
 0001:0000f160 00000005H .text$_ZNSt3__113basic_istreamIcNS_11char_traitsIcEEErsERx CODE
 0001:0000f170 0000010cH .text$_ZNSt3__118__input_arithmeticB6v15007IxcNS_11char_traitsIcEEEERNS_13basic_istreamIT0_T1_EES7_RT_ CODE
 0001:0000f280 00000005H .text$_ZNSt3__113basic_istreamIcNS_11char_traitsIcEEErsERy CODE
 0001:0000f290 0000010cH .text$_ZNSt3__118__input_arithmeticB6v15007IycNS_11char_traitsIcEEEERNS_13basic_istreamIT0_T1_EES7_RT_ CODE
 0001:0000f3a0 00000005H .text$_ZNSt3__113basic_istreamIcNS_11char_traitsIcEEErsERf CODE
 0001:0000f3b0 0000010cH .text$_ZNSt3__118__input_arithmeticB6v15007IfcNS_11char_traitsIcEEEERNS_13basic_istreamIT0_T1_EES7_RT_ CODE
 0001:0000f4c0 00000005H .text$_ZNSt3__113basic_istreamIcNS_11char_traitsIcEEErsERd CODE
 0001:0000f4d0 0000010cH .text$_ZNSt3__118__input_arithmeticB6v15007IdcNS_11char_traitsIcEEEERNS_13basic_istreamIT0_T1_EES7_RT_ CODE
 0001:0000f5e0 00000005H .text$_ZNSt3__113basic_istreamIcNS_11char_traitsIcEEErsERe CODE
 0001:0000f5f0 0000010cH .text$_ZNSt3__118__input_arithmeticB6v15007IecNS_11char_traitsIcEEEERNS_13basic_istreamIT0_T1_EES7_RT_ CODE
 0001:0000f700 00000005H .text$_ZNSt3__113basic_istreamIcNS_11char_traitsIcEEErsERPv CODE
 0001:0000f710 0000010cH .text$_ZNSt3__118__input_arithmeticB6v15007IPvcNS_11char_traitsIcEEEERNS_13basic_istreamIT0_T1_EES8_RT_ CODE
 0001:0000f820 000000fbH .text$_ZNSt3__113basic_istreamIcNS_11char_traitsIcEEE3getEv CODE
 0001:0000f920 00000022H .text$_ZNSt3__113basic_istreamIcNS_11char_traitsIcEEE3getERc CODE
 0001:0000f950 0000007fH .text$_ZNSt3__113basic_istreamIcNS_11char_traitsIcEEE3getEPcx CODE
 0001:0000f9d0 00000194H .text$_ZNSt3__113basic_istreamIcNS_11char_traitsIcEEE3getEPcxc CODE
 0001:0000fb70 00000077H .text$_ZNSt3__113basic_istreamIcNS_11char_traitsIcEEE3getERNS_15basic_streambufIcS2_EE CODE
 0001:0000fbf0 0000013fH .text$_ZNSt3__113basic_istreamIcNS_11char_traitsIcEEE3getERNS_15basic_streambufIcS2_EEc CODE
 0001:0000fd30 0000007fH .text$_ZNSt3__113basic_istreamIcNS_11char_traitsIcEEE7getlineEPcx CODE
 0001:0000fdb0 000001a6H .text$_ZNSt3__113basic_istreamIcNS_11char_traitsIcEEE7getlineEPcxc CODE
 0001:0000ff60 00000174H .text$_ZNSt3__113basic_istreamIcNS_11char_traitsIcEEE6ignoreExi CODE
 0001:000100e0 000000ecH .text$_ZNSt3__113basic_istreamIcNS_11char_traitsIcEEE4peekEv CODE
 0001:000101d0 000000edH .text$_ZNSt3__113basic_istreamIcNS_11char_traitsIcEEE4readEPcx CODE
 0001:000102c0 00000141H .text$_ZNSt3__113basic_istreamIcNS_11char_traitsIcEEE8readsomeEPcx CODE
 0001:00010410 0000010cH .text$_ZNSt3__113basic_istreamIcNS_11char_traitsIcEEE7putbackEc CODE
 0001:00010520 00000105H .text$_ZNSt3__113basic_istreamIcNS_11char_traitsIcEEE5ungetEv CODE
 0001:00010630 000000c5H .text$_ZNSt3__113basic_istreamIcNS_11char_traitsIcEEE4syncEv CODE
 0001:00010700 000000e5H .text$_ZNSt3__113basic_istreamIcNS_11char_traitsIcEEE5tellgEv CODE
 0001:000107f0 000000f4H .text$_ZNSt3__113basic_istreamIcNS_11char_traitsIcEEE5seekgENS_4fposI9_MbstatetEE CODE
 0001:000108f0 000000f7H .text$_ZNSt3__113basic_istreamIcNS_11char_traitsIcEEE5seekgExNS_8ios_base7seekdirE CODE
 0001:000109f0 0000004cH .text$_ZNSt3__113basic_ostreamIcNS_11char_traitsIcEEEC2EPNS_15basic_streambufIcS2_EE CODE
 0001:00010a40 0000005aH .text$_ZNSt3__113basic_ostreamIcNS_11char_traitsIcEEEC1EPNS_15basic_streambufIcS2_EE CODE
 0001:00010aa0 00000001H .text$_ZNSt3__113basic_ostreamIcNS_11char_traitsIcEEED2Ev CODE
 0001:00010ab0 00000009H .text$_ZNSt3__113basic_ostreamIcNS_11char_traitsIcEEED1Ev CODE
 0001:00010ac0 00000013H .text$_ZTv0_n24_NSt3__113basic_ostreamIcNS_11char_traitsIcEEED1Ev CODE
 0001:00010ae0 0000001eH .text$_ZNSt3__113basic_ostreamIcNS_11char_traitsIcEEED0Ev CODE
 0001:00010b00 00000029H .text$_ZTv0_n24_NSt3__113basic_ostreamIcNS_11char_traitsIcEEED0Ev CODE
 0001:00010b30 00000070H .text$_ZNSt3__113basic_ostreamIcNS_11char_traitsIcEEE4swapERS3_ CODE
 0001:00010ba0 00000003H .text$_ZNSt3__113basic_ostreamIcNS_11char_traitsIcEEElsEPFRS3_S4_E CODE
 0001:00010bb0 0000001dH .text$_ZNSt3__113basic_ostreamIcNS_11char_traitsIcEEElsEPFRNS_9basic_iosIcS2_EES6_E CODE
 0001:00010bd0 0000001dH .text$_ZNSt3__113basic_ostreamIcNS_11char_traitsIcEEElsEPFRNS_8ios_baseES5_E CODE
 0001:00010bf0 00000181H .text$_ZNSt3__113basic_ostreamIcNS_11char_traitsIcEEElsEb CODE
 0001:00010d80 000001a0H .text$_ZNSt3__113basic_ostreamIcNS_11char_traitsIcEEElsEs CODE
 0001:00010f20 00000183H .text$_ZNSt3__113basic_ostreamIcNS_11char_traitsIcEEElsEt CODE
 0001:000110b0 00000180H .text$_ZNSt3__113basic_ostreamIcNS_11char_traitsIcEEElsEi CODE
 0001:00011230 00000180H .text$_ZNSt3__113basic_ostreamIcNS_11char_traitsIcEEElsEj CODE
 0001:000113b0 00000180H .text$_ZNSt3__113basic_ostreamIcNS_11char_traitsIcEEElsEl CODE
 0001:00011530 00000180H .text$_ZNSt3__113basic_ostreamIcNS_11char_traitsIcEEElsEm CODE
 0001:000116b0 00000180H .text$_ZNSt3__113basic_ostreamIcNS_11char_traitsIcEEElsEx CODE
 0001:00011830 00000180H .text$_ZNSt3__113basic_ostreamIcNS_11char_traitsIcEEElsEy CODE
 0001:000119b0 0000018bH .text$_ZNSt3__113basic_ostreamIcNS_11char_traitsIcEEElsEf CODE
 0001:00011b40 00000187H .text$_ZNSt3__113basic_ostreamIcNS_11char_traitsIcEEElsEd CODE
 0001:00011cd0 00000187H .text$_ZNSt3__113basic_ostreamIcNS_11char_traitsIcEEElsEe CODE
 0001:00011e60 00000180H .text$_ZNSt3__113basic_ostreamIcNS_11char_traitsIcEEElsEPKv CODE
 0001:00011fe0 000001e4H .text$_ZNSt3__113basic_ostreamIcNS_11char_traitsIcEEElsEPNS_15basic_streambufIcS2_EE CODE
 0001:000121d0 0000014fH .text$_ZNSt3__113basic_ostreamIcNS_11char_traitsIcEEE3putEc CODE
 0001:00012320 000000e2H .text$_ZNSt3__113basic_ostreamIcNS_11char_traitsIcEEE5writeEPKcx CODE
 0001:00012410 0000004aH .text$_ZNSt3__113basic_ostreamIcNS_11char_traitsIcEEE5tellpEv CODE
 0001:00012460 000000c1H .text$_ZNSt3__113basic_ostreamIcNS_11char_traitsIcEEE5seekpENS_4fposI9_MbstatetEE CODE
 0001:00012530 000000c4H .text$_ZNSt3__113basic_ostreamIcNS_11char_traitsIcEEE5seekpExNS_8ios_base7seekdirE CODE
 0001:00012600 00000089H .text$_ZNSt3__114basic_iostreamIcNS_11char_traitsIcEEEC2EPNS_15basic_streambufIcS2_EE CODE
 0001:00012690 00000082H .text$_ZNSt3__114basic_iostreamIcNS_11char_traitsIcEEEC1EPNS_15basic_streambufIcS2_EE CODE
 0001:00012720 00000001H .text$_ZNSt3__114basic_iostreamIcNS_11char_traitsIcEEED2Ev CODE
 0001:00012730 00000009H .text$_ZNSt3__114basic_iostreamIcNS_11char_traitsIcEEED1Ev CODE
 0001:00012740 00000009H .text$_ZThn16_NSt3__114basic_iostreamIcNS_11char_traitsIcEEED1Ev CODE
 0001:00012750 00000013H .text$_ZTv0_n24_NSt3__114basic_iostreamIcNS_11char_traitsIcEEED1Ev CODE
 0001:00012770 0000001eH .text$_ZNSt3__114basic_iostreamIcNS_11char_traitsIcEEED0Ev CODE
 0001:00012790 0000001fH .text$_ZThn16_NSt3__114basic_iostreamIcNS_11char_traitsIcEEED0Ev CODE
 0001:000127b0 00000029H .text$_ZTv0_n24_NSt3__114basic_iostreamIcNS_11char_traitsIcEEED0Ev CODE
 0001:000127e0 00000081H .text$_ZNSt3__114basic_iostreamIcNS_11char_traitsIcEEE4swapERS3_ CODE
 0001:00012870 00000005H .text$_ZNSt3__19basic_iosIwNS_11char_traitsIwEEED2Ev CODE
 0001:00012880 00000005H .text$_ZNSt3__19basic_iosIwNS_11char_traitsIwEEED1Ev CODE
 0001:00012890 0000001aH .text$_ZNSt3__19basic_iosIwNS_11char_traitsIwEEED0Ev CODE
 0001:000128b0 0000006aH .text$_ZNSt3__19basic_iosIwNS_11char_traitsIwEEE7copyfmtERKS3_ CODE
 0001:00012920 00000013H .text$_ZNSt3__115basic_streambufIwNS_11char_traitsIwEEED2Ev CODE
 0001:00012940 00000013H .text$_ZNSt3__115basic_streambufIwNS_11char_traitsIwEEED1Ev CODE
 0001:00012960 00000028H .text$_ZNSt3__115basic_streambufIwNS_11char_traitsIwEEED0Ev CODE
 0001:00012990 00000041H .text$_ZNSt3__115basic_streambufIwNS_11char_traitsIwEEE8pubimbueERKNS_6localeE CODE
 0001:000129e0 0000001aH .text$_ZNKSt3__115basic_streambufIwNS_11char_traitsIwEEE6getlocEv CODE
 0001:00012a00 0000000aH .text$_ZNSt3__115basic_streambufIwNS_11char_traitsIwEEE9pubsetbufEPwx CODE
 0001:00012a10 00000022H .text$_ZNSt3__115basic_streambufIwNS_11char_traitsIwEEE10pubseekoffExNS_8ios_base7seekdirEj CODE
 0001:00012a40 00000025H .text$_ZNSt3__115basic_streambufIwNS_11char_traitsIwEEE10pubseekposENS_4fposI9_MbstatetEEj CODE
 0001:00012a70 00000007H .text$_ZNSt3__115basic_streambufIwNS_11char_traitsIwEEE7pubsyncEv CODE
 0001:00012a80 0000001bH .text$_ZNSt3__115basic_streambufIwNS_11char_traitsIwEEE8in_availEv CODE
 0001:00012aa0 0000005eH .text$_ZNSt3__115basic_streambufIwNS_11char_traitsIwEEE6snextcEv CODE
 0001:00012b00 0000001dH .text$_ZNSt3__115basic_streambufIwNS_11char_traitsIwEEE6sbumpcEv CODE
 0001:00012b20 00000015H .text$_ZNSt3__115basic_streambufIwNS_11char_traitsIwEEE5sgetcEv CODE
 0001:00012b40 0000000aH .text$_ZNSt3__115basic_streambufIwNS_11char_traitsIwEEE5sgetnEPwx CODE
 0001:00012b50 00000025H .text$_ZNSt3__115basic_streambufIwNS_11char_traitsIwEEE9sputbackcEw CODE
 0001:00012b80 00000025H .text$_ZNSt3__115basic_streambufIwNS_11char_traitsIwEEE7sungetcEv CODE
 0001:00012bb0 00000023H .text$_ZNSt3__115basic_streambufIwNS_11char_traitsIwEEE5sputcEw CODE
 0001:00012be0 0000000aH .text$_ZNSt3__115basic_streambufIwNS_11char_traitsIwEEE5sputnEPKwx CODE
 0001:00012bf0 00000030H .text$_ZNSt3__115basic_streambufIwNS_11char_traitsIwEEEC2Ev CODE
 0001:00012c20 00000030H .text$_ZNSt3__115basic_streambufIwNS_11char_traitsIwEEEC1Ev CODE
 0001:00012c50 00000042H .text$_ZNSt3__115basic_streambufIwNS_11char_traitsIwEEEC2ERKS3_ CODE
 0001:00012ca0 00000042H .text$_ZNSt3__115basic_streambufIwNS_11char_traitsIwEEEC1ERKS3_ CODE
 0001:00012cf0 0000003bH .text$_ZNSt3__115basic_streambufIwNS_11char_traitsIwEEEaSERKS3_ CODE
 0001:00012d30 000000b3H .text$_ZNSt3__115basic_streambufIwNS_11char_traitsIwEEE4swapERS3_ CODE
 0001:00012df0 0000000bH .text$_ZNSt3__115basic_streambufIwNS_11char_traitsIwEEE5gbumpEi CODE
 0001:00012e00 0000000dH .text$_ZNSt3__115basic_streambufIwNS_11char_traitsIwEEE4setgEPwS4_S4_ CODE
 0001:00012e10 0000000bH .text$_ZNSt3__115basic_streambufIwNS_11char_traitsIwEEE5pbumpEi CODE
 0001:00012e20 0000000dH .text$_ZNSt3__115basic_streambufIwNS_11char_traitsIwEEE4setpEPwS4_ CODE
 0001:00012e30 00000001H .text$_ZNSt3__115basic_streambufIwNS_11char_traitsIwEEE5imbueERKNS_6localeE CODE
 0001:00012e40 00000004H .text$_ZNSt3__115basic_streambufIwNS_11char_traitsIwEEE6setbufEPwx CODE
 0001:00012e50 0000000eH .text$_ZNSt3__115basic_streambufIwNS_11char_traitsIwEEE7seekoffExNS_8ios_base7seekdirEj CODE
 0001:00012e60 0000000eH .text$_ZNSt3__115basic_streambufIwNS_11char_traitsIwEEE7seekposENS_4fposI9_MbstatetEEj CODE
 0001:00012e70 00000003H .text$_ZNSt3__115basic_streambufIwNS_11char_traitsIwEEE4syncEv CODE
 0001:00012e80 00000003H .text$_ZNSt3__115basic_streambufIwNS_11char_traitsIwEEE9showmanycEv CODE
 0001:00012e90 000000c7H .text$_ZNSt3__115basic_streambufIwNS_11char_traitsIwEEE6xsgetnEPwx CODE
 0001:00012f60 00000005H .text$_ZNSt3__115basic_streambufIwNS_11char_traitsIwEEE9underflowEv CODE
 0001:00012f70 00000033H .text$_ZNSt3__115basic_streambufIwNS_11char_traitsIwEEE5uflowEv CODE
 0001:00012fb0 00000005H .text$_ZNSt3__115basic_streambufIwNS_11char_traitsIwEEE9pbackfailEt CODE
 0001:00012fc0 000000b2H .text$_ZNSt3__115basic_streambufIwNS_11char_traitsIwEEE6xsputnEPKwx CODE
 0001:00013080 00000005H .text$_ZNSt3__115basic_streambufIwNS_11char_traitsIwEEE8overflowEt CODE
 0001:00013090 00000053H .text$_ZNSt3__113basic_istreamIwNS_11char_traitsIwEEEC2EPNS_15basic_streambufIwS2_EE CODE
 0001:000130f0 00000061H .text$_ZNSt3__113basic_istreamIwNS_11char_traitsIwEEEC1EPNS_15basic_streambufIwS2_EE CODE
 0001:00013160 00000001H .text$_ZNSt3__113basic_istreamIwNS_11char_traitsIwEEED2Ev CODE
 0001:00013170 00000009H .text$_ZNSt3__113basic_istreamIwNS_11char_traitsIwEEED1Ev CODE
 0001:00013180 00000013H .text$_ZTv0_n24_NSt3__113basic_istreamIwNS_11char_traitsIwEEED1Ev CODE
 0001:000131a0 0000001eH .text$_ZNSt3__113basic_istreamIwNS_11char_traitsIwEEED0Ev CODE
 0001:000131c0 00000029H .text$_ZTv0_n24_NSt3__113basic_istreamIwNS_11char_traitsIwEEED0Ev CODE
 0001:000131f0 00000085H .text$_ZNSt3__113basic_istreamIwNS_11char_traitsIwEEE4swapERS3_ CODE
 0001:00013280 000001b6H .text$_ZNSt3__113basic_istreamIwNS_11char_traitsIwEEE6sentryC2ERS3_b CODE
 0001:00013440 000000cfH .text$_ZNSt3__113basic_ostreamIwNS_11char_traitsIwEEE5flushEv CODE
 0001:00013510 00000005H .text$_ZNSt3__113basic_istreamIwNS_11char_traitsIwEEE6sentryC1ERS3_b CODE
 0001:00013520 00000003H .text$_ZNSt3__113basic_istreamIwNS_11char_traitsIwEEErsEPFRS3_S4_E CODE
 0001:00013530 0000001dH .text$_ZNSt3__113basic_istreamIwNS_11char_traitsIwEEErsEPFRNS_9basic_iosIwS2_EES6_E CODE
 0001:00013550 0000001dH .text$_ZNSt3__113basic_istreamIwNS_11char_traitsIwEEErsEPFRNS_8ios_baseES5_E CODE
 0001:00013570 0000016fH .text$_ZNSt3__113basic_istreamIwNS_11char_traitsIwEEErsEPNS_15basic_streambufIwS2_EE CODE
 0001:000136e0 00000005H .text$_ZNSt3__113basic_istreamIwNS_11char_traitsIwEEErsERb CODE
 0001:000136f0 0000010cH .text$_ZNSt3__118__input_arithmeticB6v15007IbwNS_11char_traitsIwEEEERNS_13basic_istreamIT0_T1_EES7_RT_ CODE
 0001:00013800 00000005H .text$_ZNSt3__113basic_istreamIwNS_11char_traitsIwEEErsERs CODE
 0001:00013810 00000146H .text$_ZNSt3__138__input_arithmetic_with_numeric_limitsB6v15007IswNS_11char_traitsIwEEEERNS_13basic_istreamIT0_T1_EES7_RT_ CODE
 0001:00013960 00000005H .text$_ZNSt3__113basic_istreamIwNS_11char_traitsIwEEErsERt CODE
 0001:00013970 0000010cH .text$_ZNSt3__118__input_arithmeticB6v15007ItwNS_11char_traitsIwEEEERNS_13basic_istreamIT0_T1_EES7_RT_ CODE
 0001:00013a80 00000005H .text$_ZNSt3__113basic_istreamIwNS_11char_traitsIwEEErsERi CODE
 0001:00013a90 0000011bH .text$_ZNSt3__138__input_arithmetic_with_numeric_limitsB6v15007IiwNS_11char_traitsIwEEEERNS_13basic_istreamIT0_T1_EES7_RT_ CODE
 0001:00013bb0 00000005H .text$_ZNSt3__113basic_istreamIwNS_11char_traitsIwEEErsERj CODE
 0001:00013bc0 0000010cH .text$_ZNSt3__118__input_arithmeticB6v15007IjwNS_11char_traitsIwEEEERNS_13basic_istreamIT0_T1_EES7_RT_ CODE
 0001:00013cd0 00000005H .text$_ZNSt3__113basic_istreamIwNS_11char_traitsIwEEErsERl CODE
 0001:00013ce0 0000010cH .text$_ZNSt3__118__input_arithmeticB6v15007IlwNS_11char_traitsIwEEEERNS_13basic_istreamIT0_T1_EES7_RT_ CODE
 0001:00013df0 00000005H .text$_ZNSt3__113basic_istreamIwNS_11char_traitsIwEEErsERm CODE
 0001:00013e00 0000010cH .text$_ZNSt3__118__input_arithmeticB6v15007ImwNS_11char_traitsIwEEEERNS_13basic_istreamIT0_T1_EES7_RT_ CODE
 0001:00013f10 00000005H .text$_ZNSt3__113basic_istreamIwNS_11char_traitsIwEEErsERx CODE
 0001:00013f20 0000010cH .text$_ZNSt3__118__input_arithmeticB6v15007IxwNS_11char_traitsIwEEEERNS_13basic_istreamIT0_T1_EES7_RT_ CODE
 0001:00014030 00000005H .text$_ZNSt3__113basic_istreamIwNS_11char_traitsIwEEErsERy CODE
 0001:00014040 0000010cH .text$_ZNSt3__118__input_arithmeticB6v15007IywNS_11char_traitsIwEEEERNS_13basic_istreamIT0_T1_EES7_RT_ CODE
 0001:00014150 00000005H .text$_ZNSt3__113basic_istreamIwNS_11char_traitsIwEEErsERf CODE
 0001:00014160 0000010cH .text$_ZNSt3__118__input_arithmeticB6v15007IfwNS_11char_traitsIwEEEERNS_13basic_istreamIT0_T1_EES7_RT_ CODE
 0001:00014270 00000005H .text$_ZNSt3__113basic_istreamIwNS_11char_traitsIwEEErsERd CODE
 0001:00014280 0000010cH .text$_ZNSt3__118__input_arithmeticB6v15007IdwNS_11char_traitsIwEEEERNS_13basic_istreamIT0_T1_EES7_RT_ CODE
 0001:00014390 00000005H .text$_ZNSt3__113basic_istreamIwNS_11char_traitsIwEEErsERe CODE
 0001:000143a0 0000010cH .text$_ZNSt3__118__input_arithmeticB6v15007IewNS_11char_traitsIwEEEERNS_13basic_istreamIT0_T1_EES7_RT_ CODE
 0001:000144b0 00000005H .text$_ZNSt3__113basic_istreamIwNS_11char_traitsIwEEErsERPv CODE
 0001:000144c0 0000010cH .text$_ZNSt3__118__input_arithmeticB6v15007IPvwNS_11char_traitsIwEEEERNS_13basic_istreamIT0_T1_EES8_RT_ CODE
 0001:000145d0 000000fcH .text$_ZNSt3__113basic_istreamIwNS_11char_traitsIwEEE3getEv CODE
 0001:000146d0 00000024H .text$_ZNSt3__113basic_istreamIwNS_11char_traitsIwEEE3getERw CODE
 0001:00014700 0000007fH .text$_ZNSt3__113basic_istreamIwNS_11char_traitsIwEEE3getEPwx CODE
 0001:00014780 0000019eH .text$_ZNSt3__113basic_istreamIwNS_11char_traitsIwEEE3getEPwxw CODE
 0001:00014920 00000077H .text$_ZNSt3__113basic_istreamIwNS_11char_traitsIwEEE3getERNS_15basic_streambufIwS2_EE CODE
 0001:000149a0 00000141H .text$_ZNSt3__113basic_istreamIwNS_11char_traitsIwEEE3getERNS_15basic_streambufIwS2_EEw CODE
 0001:00014af0 0000007fH .text$_ZNSt3__113basic_istreamIwNS_11char_traitsIwEEE7getlineEPwx CODE
 0001:00014b70 000001b3H .text$_ZNSt3__113basic_istreamIwNS_11char_traitsIwEEE7getlineEPwxw CODE
 0001:00014d30 00000195H .text$_ZNSt3__113basic_istreamIwNS_11char_traitsIwEEE6ignoreExt CODE
 0001:00014ed0 000000eaH .text$_ZNSt3__113basic_istreamIwNS_11char_traitsIwEEE4peekEv CODE
 0001:00014fc0 000000edH .text$_ZNSt3__113basic_istreamIwNS_11char_traitsIwEEE4readEPwx CODE
 0001:000150b0 00000144H .text$_ZNSt3__113basic_istreamIwNS_11char_traitsIwEEE8readsomeEPwx CODE
 0001:00015200 00000116H .text$_ZNSt3__113basic_istreamIwNS_11char_traitsIwEEE7putbackEw CODE
 0001:00015320 0000010aH .text$_ZNSt3__113basic_istreamIwNS_11char_traitsIwEEE5ungetEv CODE
 0001:00015430 000000c5H .text$_ZNSt3__113basic_istreamIwNS_11char_traitsIwEEE4syncEv CODE
 0001:00015500 000000e5H .text$_ZNSt3__113basic_istreamIwNS_11char_traitsIwEEE5tellgEv CODE
 0001:000155f0 000000f4H .text$_ZNSt3__113basic_istreamIwNS_11char_traitsIwEEE5seekgENS_4fposI9_MbstatetEE CODE
 0001:000156f0 000000f7H .text$_ZNSt3__113basic_istreamIwNS_11char_traitsIwEEE5seekgExNS_8ios_base7seekdirE CODE
 0001:000157f0 0000004bH .text$_ZNSt3__113basic_ostreamIwNS_11char_traitsIwEEEC2EPNS_15basic_streambufIwS2_EE CODE
 0001:00015840 00000059H .text$_ZNSt3__113basic_ostreamIwNS_11char_traitsIwEEEC1EPNS_15basic_streambufIwS2_EE CODE
 0001:000158a0 00000001H .text$_ZNSt3__113basic_ostreamIwNS_11char_traitsIwEEED2Ev CODE
 0001:000158b0 00000009H .text$_ZNSt3__113basic_ostreamIwNS_11char_traitsIwEEED1Ev CODE
 0001:000158c0 00000013H .text$_ZTv0_n24_NSt3__113basic_ostreamIwNS_11char_traitsIwEEED1Ev CODE
 0001:000158e0 0000001eH .text$_ZNSt3__113basic_ostreamIwNS_11char_traitsIwEEED0Ev CODE
 0001:00015900 00000029H .text$_ZTv0_n24_NSt3__113basic_ostreamIwNS_11char_traitsIwEEED0Ev CODE
 0001:00015930 00000074H .text$_ZNSt3__113basic_ostreamIwNS_11char_traitsIwEEE4swapERS3_ CODE
 0001:000159b0 0000003eH .text$_ZNSt3__113basic_ostreamIwNS_11char_traitsIwEEE6sentryC2ERS3_ CODE
 0001:000159f0 0000003eH .text$_ZNSt3__113basic_ostreamIwNS_11char_traitsIwEEE6sentryC1ERS3_ CODE
 0001:00015a30 00000087H .text$_ZNSt3__113basic_ostreamIwNS_11char_traitsIwEEE6sentryD2Ev CODE
 0001:00015ac0 00000005H .text$_ZNSt3__113basic_ostreamIwNS_11char_traitsIwEEE6sentryD1Ev CODE
 0001:00015ad0 00000003H .text$_ZNSt3__113basic_ostreamIwNS_11char_traitsIwEEElsEPFRS3_S4_E CODE
 0001:00015ae0 0000001dH .text$_ZNSt3__113basic_ostreamIwNS_11char_traitsIwEEElsEPFRNS_9basic_iosIwS2_EES6_E CODE
 0001:00015b00 0000001dH .text$_ZNSt3__113basic_ostreamIwNS_11char_traitsIwEEElsEPFRNS_8ios_baseES5_E CODE
 0001:00015b20 0000017fH .text$_ZNSt3__113basic_ostreamIwNS_11char_traitsIwEEElsEb CODE
 0001:00015ca0 0000019eH .text$_ZNSt3__113basic_ostreamIwNS_11char_traitsIwEEElsEs CODE
 0001:00015e40 00000187H .text$_ZNSt3__113basic_ostreamIwNS_11char_traitsIwEEElsEt CODE
 0001:00015fd0 0000017fH .text$_ZNSt3__113basic_ostreamIwNS_11char_traitsIwEEElsEi CODE
 0001:00016150 0000017fH .text$_ZNSt3__113basic_ostreamIwNS_11char_traitsIwEEElsEj CODE
 0001:000162d0 0000017fH .text$_ZNSt3__113basic_ostreamIwNS_11char_traitsIwEEElsEl CODE
 0001:00016450 0000017fH .text$_ZNSt3__113basic_ostreamIwNS_11char_traitsIwEEElsEm CODE
 0001:000165d0 0000017fH .text$_ZNSt3__113basic_ostreamIwNS_11char_traitsIwEEElsEx CODE
 0001:00016750 0000017fH .text$_ZNSt3__113basic_ostreamIwNS_11char_traitsIwEEElsEy CODE
 0001:000168d0 0000018aH .text$_ZNSt3__113basic_ostreamIwNS_11char_traitsIwEEElsEf CODE
 0001:00016a60 00000186H .text$_ZNSt3__113basic_ostreamIwNS_11char_traitsIwEEElsEd CODE
 0001:00016bf0 00000186H .text$_ZNSt3__113basic_ostreamIwNS_11char_traitsIwEEElsEe CODE
 0001:00016d80 0000017fH .text$_ZNSt3__113basic_ostreamIwNS_11char_traitsIwEEElsEPKv CODE
 0001:00016f00 0000022dH .text$_ZNSt3__113basic_ostreamIwNS_11char_traitsIwEEElsEPNS_15basic_streambufIwS2_EE CODE
 0001:00017130 00000148H .text$_ZNSt3__113basic_ostreamIwNS_11char_traitsIwEEE3putEw CODE
 0001:00017280 00000150H .text$_ZNSt3__113basic_ostreamIwNS_11char_traitsIwEEE5writeEPKwx CODE
 0001:000173d0 0000004aH .text$_ZNSt3__113basic_ostreamIwNS_11char_traitsIwEEE5tellpEv CODE
 0001:00017420 000000c1H .text$_ZNSt3__113basic_ostreamIwNS_11char_traitsIwEEE5seekpENS_4fposI9_MbstatetEE CODE
 0001:000174f0 000000c4H .text$_ZNSt3__113basic_ostreamIwNS_11char_traitsIwEEE5seekpExNS_8ios_base7seekdirE CODE
 0001:000175c0 00000226H .text$_ZNSt3__115basic_stringbufIcNS_11char_traitsIcEENS_9allocatorIcEEEC2EOS5_ CODE
 0001:000177f0 00000005H .text$_ZNSt3__115basic_stringbufIcNS_11char_traitsIcEENS_9allocatorIcEEEC1EOS5_ CODE
 0001:00017800 00000237H .text$_ZNSt3__115basic_stringbufIcNS_11char_traitsIcEENS_9allocatorIcEEEaSEOS5_ CODE
 0001:00017a40 0000040dH .text$_ZNSt3__115basic_stringbufIcNS_11char_traitsIcEENS_9allocatorIcEEE4swapERS5_ CODE
 0001:00017e50 000003b2H .text$_ZNKSt3__115basic_stringbufIcNS_11char_traitsIcEENS_9allocatorIcEEE3strEv CODE
 0001:00018210 00000174H .text$_ZNSt3__115basic_stringbufIcNS_11char_traitsIcEENS_9allocatorIcEEE3strERKNS_12basic_stringIcS2_S4_EE CODE
 0001:00018390 0000003cH .text$_ZNSt3__115basic_stringbufIcNS_11char_traitsIcEENS_9allocatorIcEEE9underflowEv CODE
 0001:000183d0 00000055H .text$_ZNSt3__115basic_stringbufIcNS_11char_traitsIcEENS_9allocatorIcEEE9pbackfailEi CODE
 0001:00018430 00000189H .text$_ZNSt3__115basic_stringbufIcNS_11char_traitsIcEENS_9allocatorIcEEE8overflowEi CODE
 0001:000185c0 00000108H .text$_ZNSt3__115basic_stringbufIcNS_11char_traitsIcEENS_9allocatorIcEEE7seekoffExNS_8ios_base7seekdirEj CODE
 0001:000186d0 00000094H .text$_ZNSt3__118basic_stringstreamIcNS_11char_traitsIcEENS_9allocatorIcEEEaSEOS5_ CODE
 0001:00018770 00000083H .text$_ZNSt3__119basic_ostringstreamIcNS_11char_traitsIcEENS_9allocatorIcEEEaSEOS5_ CODE
 0001:00018800 00000094H .text$_ZNSt3__119basic_istringstreamIcNS_11char_traitsIcEENS_9allocatorIcEEEaSEOS5_ CODE
 0001:000188a0 00000036H .text$_ZNSt3__114basic_ifstreamIcNS_11char_traitsIcEEE4openEPKcj CODE
 0001:000188e0 000001ecH .text$_ZNSt3__113basic_filebufIcNS_11char_traitsIcEEE4openEPKcj CODE
 0001:00018ad0 00000036H .text$_ZNSt3__114basic_ifstreamIcNS_11char_traitsIcEEE4openEPKwj CODE
 0001:00018b10 000001ecH .text$_ZNSt3__113basic_filebufIcNS_11char_traitsIcEEE4openEPKwj CODE
 0001:00018d00 00000044H .text$_ZNSt3__114basic_ifstreamIcNS_11char_traitsIcEEE4openERKNS_12basic_stringIcS2_NS_9allocatorIcEEEEj CODE
 0001:00018d50 00000036H .text$_ZNSt3__114basic_ofstreamIcNS_11char_traitsIcEEE4openEPKcj CODE
 0001:00018d90 00000036H .text$_ZNSt3__114basic_ofstreamIcNS_11char_traitsIcEEE4openEPKwj CODE
 0001:00018dd0 00000044H .text$_ZNSt3__114basic_ofstreamIcNS_11char_traitsIcEEE4openERKNS_12basic_stringIcS2_NS_9allocatorIcEEEEj CODE
 0001:00018e20 00000123H .text$_ZNSt3__113basic_filebufIcNS_11char_traitsIcEEEC2Ev CODE
 0001:00018f50 00000005H .text$_ZNSt3__113basic_filebufIcNS_11char_traitsIcEEEC1Ev CODE
 0001:00018f60 000001d6H .text$_ZNSt3__113basic_filebufIcNS_11char_traitsIcEEEC2EOS3_ CODE
 0001:00019140 00000005H .text$_ZNSt3__113basic_filebufIcNS_11char_traitsIcEEEC1EOS3_ CODE
 0001:00019150 000000b6H .text$_ZNSt3__113basic_filebufIcNS_11char_traitsIcEEED2Ev CODE
 0001:00019210 00000064H .text$_ZNSt3__113basic_filebufIcNS_11char_traitsIcEEE5closeEv CODE
 0001:00019280 00000005H .text$_ZNSt3__113basic_filebufIcNS_11char_traitsIcEEED1Ev CODE
 0001:00019290 0000001aH .text$_ZNSt3__113basic_filebufIcNS_11char_traitsIcEEED0Ev CODE
 0001:000192b0 00000350H .text$_ZNSt3__113basic_filebufIcNS_11char_traitsIcEEE4swapERS3_ CODE
 0001:00019600 0000026cH .text$_ZNSt3__113basic_filebufIcNS_11char_traitsIcEEE9underflowEv CODE
 0001:00019870 00000062H .text$_ZNSt3__113basic_filebufIcNS_11char_traitsIcEEE11__read_modeEv CODE
 0001:000198e0 00000031H .text$_ZNSt3__116__throw_bad_castB6v15007Ev CODE
 0001:00019920 00000043H .text$_ZNSt3__113basic_filebufIcNS_11char_traitsIcEEE9pbackfailEi CODE
 0001:00019970 00000244H .text$_ZNSt3__113basic_filebufIcNS_11char_traitsIcEEE8overflowEi CODE
 0001:00019bc0 00000076H .text$_ZNSt3__113basic_filebufIcNS_11char_traitsIcEEE12__write_modeEv CODE
 0001:00019c40 000000f7H .text$_ZNSt3__113basic_filebufIcNS_11char_traitsIcEEE6setbufEPcx CODE
 0001:00019d40 000000a4H .text$_ZNSt3__113basic_filebufIcNS_11char_traitsIcEEE7seekoffExNS_8ios_base7seekdirEj CODE
 0001:00019df0 00000058H .text$_ZNSt3__113basic_filebufIcNS_11char_traitsIcEEE7seekposENS_4fposI9_MbstatetEEj CODE
 0001:00019e50 000001d1H .text$_ZNSt3__113basic_filebufIcNS_11char_traitsIcEEE4syncEv CODE
 0001:0001a030 000000f6H .text$_ZNSt3__113basic_filebufIcNS_11char_traitsIcEEE5imbueERKNS_6localeE CODE
 0001:0001a130 0000003cH .text$_ZNSt3__115basic_stringbufIcNS_11char_traitsIcEENS_9allocatorIcEEED2Ev CODE
 0001:0001a170 00000041H .text$_ZNSt3__115basic_stringbufIcNS_11char_traitsIcEENS_9allocatorIcEEED0Ev CODE
 0001:0001a1c0 00000023H .text$_ZNSt3__115basic_stringbufIcNS_11char_traitsIcEENS_9allocatorIcEEE7seekposB6v15007ENS_4fposI9_MbstatetEEj CODE
 0001:0001a1f0 00000072H .text$_ZNSt3__118basic_stringstreamIcNS_11char_traitsIcEENS_9allocatorIcEEED1Ev CODE
 0001:0001a270 00000077H .text$_ZNSt3__118basic_stringstreamIcNS_11char_traitsIcEENS_9allocatorIcEEED0Ev CODE
 0001:0001a2f0 0000006cH .text$_ZThn16_NSt3__118basic_stringstreamIcNS_11char_traitsIcEENS_9allocatorIcEEED1Ev CODE
 0001:0001a360 0000007aH .text$_ZThn16_NSt3__118basic_stringstreamIcNS_11char_traitsIcEENS_9allocatorIcEEED0Ev CODE
 0001:0001a3e0 00000080H .text$_ZTv0_n24_NSt3__118basic_stringstreamIcNS_11char_traitsIcEENS_9allocatorIcEEED1Ev CODE
 0001:0001a460 00000085H .text$_ZTv0_n24_NSt3__118basic_stringstreamIcNS_11char_traitsIcEENS_9allocatorIcEEED0Ev CODE
 0001:0001a4f0 00000061H .text$_ZNSt3__119basic_ostringstreamIcNS_11char_traitsIcEENS_9allocatorIcEEED1Ev CODE
 0001:0001a560 00000066H .text$_ZNSt3__119basic_ostringstreamIcNS_11char_traitsIcEENS_9allocatorIcEEED0Ev CODE
 0001:0001a5d0 0000006eH .text$_ZTv0_n24_NSt3__119basic_ostringstreamIcNS_11char_traitsIcEENS_9allocatorIcEEED1Ev CODE
 0001:0001a640 00000073H .text$_ZTv0_n24_NSt3__119basic_ostringstreamIcNS_11char_traitsIcEENS_9allocatorIcEEED0Ev CODE
 0001:0001a6c0 00000061H .text$_ZNSt3__119basic_istringstreamIcNS_11char_traitsIcEENS_9allocatorIcEEED1Ev CODE
 0001:0001a730 00000066H .text$_ZNSt3__119basic_istringstreamIcNS_11char_traitsIcEENS_9allocatorIcEEED0Ev CODE
 0001:0001a7a0 0000006eH .text$_ZTv0_n24_NSt3__119basic_istringstreamIcNS_11char_traitsIcEENS_9allocatorIcEEED1Ev CODE
 0001:0001a810 00000073H .text$_ZTv0_n24_NSt3__119basic_istringstreamIcNS_11char_traitsIcEENS_9allocatorIcEEED0Ev CODE
 0001:0001a890 0000003aH .text$_ZNSt3__114basic_ifstreamIcNS_11char_traitsIcEEED1Ev CODE
 0001:0001a8d0 00000047H .text$_ZNSt3__114basic_ifstreamIcNS_11char_traitsIcEEED0Ev CODE
 0001:0001a920 00000047H .text$_ZTv0_n24_NSt3__114basic_ifstreamIcNS_11char_traitsIcEEED1Ev CODE
 0001:0001a970 00000055H .text$_ZTv0_n24_NSt3__114basic_ifstreamIcNS_11char_traitsIcEEED0Ev CODE
 0001:0001a9d0 0000003aH .text$_ZNSt3__114basic_ofstreamIcNS_11char_traitsIcEEED1Ev CODE
 0001:0001aa10 00000047H .text$_ZNSt3__114basic_ofstreamIcNS_11char_traitsIcEEED0Ev CODE
 0001:0001aa60 00000047H .text$_ZTv0_n24_NSt3__114basic_ofstreamIcNS_11char_traitsIcEEED1Ev CODE
 0001:0001aab0 00000055H .text$_ZTv0_n24_NSt3__114basic_ofstreamIcNS_11char_traitsIcEEED0Ev CODE
 0001:0001ab08 00000000H .text                   CODE
 0001:0001ab10 00000001H .text$__dtor__ZNSt3__119__start_std_streamsE CODE
 0001:0001ab20 000008eaH .text$_ZNSt3__19DoIOSInitC2Ev CODE
 0001:0001b410 00000043H .text$_ZNSt3__19DoIOSInitD2Ev CODE
 0001:0001b460 00000060H .text$_ZNSt3__18ios_base4InitC2Ev CODE
 0001:0001b4c0 00000043H .text$__dtor__ZZNSt3__18ios_base4InitC1EvE16init_the_streams CODE
 0001:0001b510 00000001H .text$_ZNSt3__18ios_base4InitD2Ev CODE
 0001:0001b520 00000071H .text$_ZNSt3__121__libcpp_locale_guardC2E8locale_t CODE
 0001:0001b5a0 0000017eH .text$_ZN15__lconv_storageD2Ev CODE
 0001:0001b720 0000001aH .text$_ZNSt3__110__stdinbufIcED0Ev CODE
 0001:0001b740 00000050H .text$_ZNSt3__110__stdinbufIcE5imbueERKNS_6localeE CODE
 0001:0001b790 00000007H .text$_ZNSt3__110__stdinbufIcE9underflowEv CODE
 0001:0001b7a0 00000007H .text$_ZNSt3__110__stdinbufIcE5uflowEv CODE
 0001:0001b7b0 000000e2H .text$_ZNSt3__110__stdinbufIcE9pbackfailEi CODE
 0001:0001b8a0 00000163H .text$_ZNSt3__110__stdinbufIcE9__getcharEb CODE
 0001:0001ba10 0000001aH .text$_ZNSt3__111__stdoutbufIcED0Ev CODE
 0001:0001ba30 00000038H .text$_ZNSt3__111__stdoutbufIcE5imbueERKNS_6localeE CODE
 0001:0001ba70 0000008cH .text$_ZNSt3__111__stdoutbufIcE4syncEv CODE
 0001:0001bb00 0000006bH .text$_ZNSt3__111__stdoutbufIcE6xsputnEPKcx CODE
 0001:0001bb70 00000124H .text$_ZNSt3__111__stdoutbufIcE8overflowEi CODE
 0001:0001bca0 0000001aH .text$_ZNSt3__110__stdinbufIwED0Ev CODE
 0001:0001bcc0 00000050H .text$_ZNSt3__110__stdinbufIwE5imbueERKNS_6localeE CODE
 0001:0001bd10 00000007H .text$_ZNSt3__110__stdinbufIwE9underflowEv CODE
 0001:0001bd20 00000007H .text$_ZNSt3__110__stdinbufIwE5uflowEv CODE
 0001:0001bd30 000000e3H .text$_ZNSt3__110__stdinbufIwE9pbackfailEt CODE
 0001:0001be20 00000172H .text$_ZNSt3__110__stdinbufIwE9__getcharEb CODE
 0001:0001bfa0 0000001aH .text$_ZNSt3__111__stdoutbufIwED0Ev CODE
 0001:0001bfc0 00000038H .text$_ZNSt3__111__stdoutbufIwE5imbueERKNS_6localeE CODE
 0001:0001c000 0000008cH .text$_ZNSt3__111__stdoutbufIwE4syncEv CODE
 0001:0001c090 0000006cH .text$_ZNSt3__111__stdoutbufIwE6xsputnEPKwx CODE
 0001:0001c100 00000123H .text$_ZNSt3__111__stdoutbufIwE8overflowEt CODE
 0001:0001c230 00000068H .text$_GLOBAL__I_000100 CODE
 0001:0001c298 00000000H .text                   CODE
 0001:0001c2a0 00000005H .text$_ZNSt3__17collateIcED2Ev CODE
 0001:0001c2b0 00000005H .text$_ZNSt3__17collateIcED1Ev CODE
 0001:0001c2c0 0000001aH .text$_ZNSt3__17collateIcED0Ev CODE
 0001:0001c2e0 00000051H .text$_ZNKSt3__17collateIcE10do_compareEPKcS3_S3_S3_ CODE
 0001:0001c340 00000093H .text$_ZNKSt3__17collateIcE12do_transformEPKcS3_ CODE
 0001:0001c3e0 000000a6H .text$_ZNKSt3__17collateIcE7do_hashEPKcS3_ CODE
 0001:0001c490 00000005H .text$_ZNSt3__17collateIwED2Ev CODE
 0001:0001c4a0 00000005H .text$_ZNSt3__17collateIwED1Ev CODE
 0001:0001c4b0 0000001aH .text$_ZNSt3__17collateIwED0Ev CODE
 0001:0001c4d0 00000041H .text$_ZNKSt3__17collateIwE10do_compareEPKwS3_S3_S3_ CODE
 0001:0001c520 000000a2H .text$_ZNKSt3__17collateIwE12do_transformEPKwS3_ CODE
 0001:0001c5d0 00000048H .text$_ZNKSt3__17collateIwE7do_hashEPKwS3_ CODE
 0001:0001c620 000002e7H .text$_ZNKSt3__17num_getIcNS_19istreambuf_iteratorIcNS_11char_traitsIcEEEEE6do_getES4_S4_RNS_8ios_baseERjRb CODE
 0001:0001c910 00000459H .text$_ZNSt3__114__scan_keywordINS_19istreambuf_iteratorIcNS_11char_traitsIcEEEEPKNS_12basic_stringIcS3_NS_9allocatorIcEEEENS_5ctypeIcEEEET0_RT_SE_SD_SD_RKT1_Rjb CODE
 0001:0001cd70 00000005H .text$_ZNKSt3__17num_getIcNS_19istreambuf_iteratorIcNS_11char_traitsIcEEEEE6do_getES4_S4_RNS_8ios_baseERjRl CODE
 0001:0001cd80 0000055aH .text$_ZNKSt3__17num_getIcNS_19istreambuf_iteratorIcNS_11char_traitsIcEEEEE15__do_get_signedIlEES4_S4_S4_RNS_8ios_baseERjRT_ CODE
 0001:0001d2e0 00000005H .text$_ZNKSt3__17num_getIcNS_19istreambuf_iteratorIcNS_11char_traitsIcEEEEE6do_getES4_S4_RNS_8ios_baseERjRx CODE
 0001:0001d2f0 0000055aH .text$_ZNKSt3__17num_getIcNS_19istreambuf_iteratorIcNS_11char_traitsIcEEEEE15__do_get_signedIxEES4_S4_S4_RNS_8ios_baseERjRT_ CODE
 0001:0001d850 00000005H .text$_ZNKSt3__17num_getIcNS_19istreambuf_iteratorIcNS_11char_traitsIcEEEEE6do_getES4_S4_RNS_8ios_baseERjRt CODE
 0001:0001d860 0000055aH .text$_ZNKSt3__17num_getIcNS_19istreambuf_iteratorIcNS_11char_traitsIcEEEEE17__do_get_unsignedItEES4_S4_S4_RNS_8ios_baseERjRT_ CODE
 0001:0001ddc0 00000005H .text$_ZNKSt3__17num_getIcNS_19istreambuf_iteratorIcNS_11char_traitsIcEEEEE6do_getES4_S4_RNS_8ios_baseERjS8_ CODE
 0001:0001ddd0 0000055aH .text$_ZNKSt3__17num_getIcNS_19istreambuf_iteratorIcNS_11char_traitsIcEEEEE17__do_get_unsignedIjEES4_S4_S4_RNS_8ios_baseERjRT_ CODE
 0001:0001e330 00000005H .text$_ZNKSt3__17num_getIcNS_19istreambuf_iteratorIcNS_11char_traitsIcEEEEE6do_getES4_S4_RNS_8ios_baseERjRm CODE
 0001:0001e340 0000055aH .text$_ZNKSt3__17num_getIcNS_19istreambuf_iteratorIcNS_11char_traitsIcEEEEE17__do_get_unsignedImEES4_S4_S4_RNS_8ios_baseERjRT_ CODE
 0001:0001e8a0 00000005H .text$_ZNKSt3__17num_getIcNS_19istreambuf_iteratorIcNS_11char_traitsIcEEEEE6do_getES4_S4_RNS_8ios_baseERjRy CODE
 0001:0001e8b0 0000055aH .text$_ZNKSt3__17num_getIcNS_19istreambuf_iteratorIcNS_11char_traitsIcEEEEE17__do_get_unsignedIyEES4_S4_S4_RNS_8ios_baseERjRT_ CODE
 0001:0001ee10 00000005H .text$_ZNKSt3__17num_getIcNS_19istreambuf_iteratorIcNS_11char_traitsIcEEEEE6do_getES4_S4_RNS_8ios_baseERjRf CODE
 0001:0001ee20 00000570H .text$_ZNKSt3__17num_getIcNS_19istreambuf_iteratorIcNS_11char_traitsIcEEEEE23__do_get_floating_pointIfEES4_S4_S4_RNS_8ios_baseERjRT_ CODE
 0001:0001f390 00000005H .text$_ZNKSt3__17num_getIcNS_19istreambuf_iteratorIcNS_11char_traitsIcEEEEE6do_getES4_S4_RNS_8ios_baseERjRd CODE
 0001:0001f3a0 00000570H .text$_ZNKSt3__17num_getIcNS_19istreambuf_iteratorIcNS_11char_traitsIcEEEEE23__do_get_floating_pointIdEES4_S4_S4_RNS_8ios_baseERjRT_ CODE
 0001:0001f910 00000005H .text$_ZNKSt3__17num_getIcNS_19istreambuf_iteratorIcNS_11char_traitsIcEEEEE6do_getES4_S4_RNS_8ios_baseERjRe CODE
 0001:0001f920 00000570H .text$_ZNKSt3__17num_getIcNS_19istreambuf_iteratorIcNS_11char_traitsIcEEEEE23__do_get_floating_pointIeEES4_S4_S4_RNS_8ios_baseERjRT_ CODE
 0001:0001fe90 00000552H .text$_ZNKSt3__17num_getIcNS_19istreambuf_iteratorIcNS_11char_traitsIcEEEEE6do_getES4_S4_RNS_8ios_baseERjRPv CODE
 0001:000203f0 0000025fH .text$_ZNSt3__19__num_getIcE17__stage2_int_loopEciPcRS2_RjcRKNS_12basic_stringIcNS_11char_traitsIcEENS_9allocatorIcEEEEPjRSD_S2_ CODE
 0001:00020650 0000003bH .text$_ZL9_sscanf_lPKcS0_P17localeinfo_structz CODE
 0001:00020690 000000b2H .text$_ZNSt3__16__clocEv CODE
 0001:00020750 0000002aH .text$_ZN8locale_tD2Ev  CODE
 0001:00020780 000002e7H .text$_ZNKSt3__17num_getIwNS_19istreambuf_iteratorIwNS_11char_traitsIwEEEEE6do_getES4_S4_RNS_8ios_baseERjRb CODE
 0001:00020a70 0000049eH .text$_ZNSt3__114__scan_keywordINS_19istreambuf_iteratorIwNS_11char_traitsIwEEEEPKNS_12basic_stringIwS3_NS_9allocatorIwEEEENS_5ctypeIwEEEET0_RT_SE_SD_SD_RKT1_Rjb CODE
 0001:00020f10 00000005H .text$_ZNKSt3__17num_getIwNS_19istreambuf_iteratorIwNS_11char_traitsIwEEEEE6do_getES4_S4_RNS_8ios_baseERjRl CODE
 0001:00020f20 00000578H .text$_ZNKSt3__17num_getIwNS_19istreambuf_iteratorIwNS_11char_traitsIwEEEEE15__do_get_signedIlEES4_S4_S4_RNS_8ios_baseERjRT_ CODE
 0001:000214a0 00000005H .text$_ZNKSt3__17num_getIwNS_19istreambuf_iteratorIwNS_11char_traitsIwEEEEE6do_getES4_S4_RNS_8ios_baseERjRx CODE
 0001:000214b0 00000578H .text$_ZNKSt3__17num_getIwNS_19istreambuf_iteratorIwNS_11char_traitsIwEEEEE15__do_get_signedIxEES4_S4_S4_RNS_8ios_baseERjRT_ CODE
 0001:00021a30 00000005H .text$_ZNKSt3__17num_getIwNS_19istreambuf_iteratorIwNS_11char_traitsIwEEEEE6do_getES4_S4_RNS_8ios_baseERjRt CODE
 0001:00021a40 00000578H .text$_ZNKSt3__17num_getIwNS_19istreambuf_iteratorIwNS_11char_traitsIwEEEEE17__do_get_unsignedItEES4_S4_S4_RNS_8ios_baseERjRT_ CODE
 0001:00021fc0 00000005H .text$_ZNKSt3__17num_getIwNS_19istreambuf_iteratorIwNS_11char_traitsIwEEEEE6do_getES4_S4_RNS_8ios_baseERjS8_ CODE
 0001:00021fd0 00000578H .text$_ZNKSt3__17num_getIwNS_19istreambuf_iteratorIwNS_11char_traitsIwEEEEE17__do_get_unsignedIjEES4_S4_S4_RNS_8ios_baseERjRT_ CODE
 0001:00022550 00000005H .text$_ZNKSt3__17num_getIwNS_19istreambuf_iteratorIwNS_11char_traitsIwEEEEE6do_getES4_S4_RNS_8ios_baseERjRm CODE
 0001:00022560 00000578H .text$_ZNKSt3__17num_getIwNS_19istreambuf_iteratorIwNS_11char_traitsIwEEEEE17__do_get_unsignedImEES4_S4_S4_RNS_8ios_baseERjRT_ CODE
 0001:00022ae0 00000005H .text$_ZNKSt3__17num_getIwNS_19istreambuf_iteratorIwNS_11char_traitsIwEEEEE6do_getES4_S4_RNS_8ios_baseERjRy CODE
 0001:00022af0 00000578H .text$_ZNKSt3__17num_getIwNS_19istreambuf_iteratorIwNS_11char_traitsIwEEEEE17__do_get_unsignedIyEES4_S4_S4_RNS_8ios_baseERjRT_ CODE
 0001:00023070 00000005H .text$_ZNKSt3__17num_getIwNS_19istreambuf_iteratorIwNS_11char_traitsIwEEEEE6do_getES4_S4_RNS_8ios_baseERjRf CODE
 0001:00023080 000005beH .text$_ZNKSt3__17num_getIwNS_19istreambuf_iteratorIwNS_11char_traitsIwEEEEE23__do_get_floating_pointIfEES4_S4_S4_RNS_8ios_baseERjRT_ CODE
 0001:00023640 00000005H .text$_ZNKSt3__17num_getIwNS_19istreambuf_iteratorIwNS_11char_traitsIwEEEEE6do_getES4_S4_RNS_8ios_baseERjRd CODE
 0001:00023650 000005beH .text$_ZNKSt3__17num_getIwNS_19istreambuf_iteratorIwNS_11char_traitsIwEEEEE23__do_get_floating_pointIdEES4_S4_S4_RNS_8ios_baseERjRT_ CODE
 0001:00023c10 00000005H .text$_ZNKSt3__17num_getIwNS_19istreambuf_iteratorIwNS_11char_traitsIwEEEEE6do_getES4_S4_RNS_8ios_baseERjRe CODE
 0001:00023c20 000005beH .text$_ZNKSt3__17num_getIwNS_19istreambuf_iteratorIwNS_11char_traitsIwEEEEE23__do_get_floating_pointIeEES4_S4_S4_RNS_8ios_baseERjRT_ CODE
 0001:000241e0 00000590H .text$_ZNKSt3__17num_getIwNS_19istreambuf_iteratorIwNS_11char_traitsIwEEEEE6do_getES4_S4_RNS_8ios_baseERjRPv CODE
 0001:00024770 00000293H .text$_ZNSt3__19__num_getIwE17__stage2_int_loopEwiPcRS2_RjwRKNS_12basic_stringIcNS_11char_traitsIcEENS_9allocatorIcEEEEPjRSD_Pw CODE
 0001:00024a10 000001c6H .text$_ZNSt3__19__num_getIcE19__stage2_float_prepERNS_8ios_baseEPcRcS5_ CODE
 0001:00024be0 00000370H .text$_ZNSt3__19__num_getIcE19__stage2_float_loopEcRbRcPcRS4_ccRKNS_12basic_stringIcNS_11char_traitsIcEENS_9allocatorIcEEEEPjRSE_RjS4_ CODE
 0001:00024f50 000001b3H .text$_ZNSt3__19__num_getIcE17__stage2_int_prepERNS_8ios_baseEPcRc CODE
 0001:00025110 000001c8H .text$_ZNSt3__19__num_getIwE19__stage2_float_prepERNS_8ios_baseEPwRwS5_ CODE
 0001:000252e0 000003a8H .text$_ZNSt3__19__num_getIwE19__stage2_float_loopEwRbRcPcRS4_wwRKNS_12basic_stringIcNS_11char_traitsIcEENS_9allocatorIcEEEEPjRSE_RjPw CODE
 0001:00025690 000001b4H .text$_ZNSt3__19__num_getIwE17__stage2_int_prepERNS_8ios_baseEPwRw CODE
 0001:00025850 00000202H .text$_ZNKSt3__17num_putIcNS_19ostreambuf_iteratorIcNS_11char_traitsIcEEEEE6do_putES4_RNS_8ios_baseEcb CODE
 0001:00025a60 00000025H .text$_ZNKSt3__17num_putIcNS_19ostreambuf_iteratorIcNS_11char_traitsIcEEEEE6do_putES4_RNS_8ios_baseEcl CODE
 0001:00025a90 0000021bH .text$_ZNKSt3__17num_putIcNS_19ostreambuf_iteratorIcNS_11char_traitsIcEEEEE17__do_put_integralB6v15007IlEES4_S4_RNS_8ios_baseEcT_PKc CODE
 0001:00025cb0 00000025H .text$_ZNKSt3__17num_putIcNS_19ostreambuf_iteratorIcNS_11char_traitsIcEEEEE6do_putES4_RNS_8ios_baseEcx CODE
 0001:00025ce0 00000220H .text$_ZNKSt3__17num_putIcNS_19ostreambuf_iteratorIcNS_11char_traitsIcEEEEE17__do_put_integralB6v15007IxEES4_S4_RNS_8ios_baseEcT_PKc CODE
 0001:00025f00 00000025H .text$_ZNKSt3__17num_putIcNS_19ostreambuf_iteratorIcNS_11char_traitsIcEEEEE6do_putES4_RNS_8ios_baseEcm CODE
 0001:00025f30 0000020bH .text$_ZNKSt3__17num_putIcNS_19ostreambuf_iteratorIcNS_11char_traitsIcEEEEE17__do_put_integralB6v15007ImEES4_S4_RNS_8ios_baseEcT_PKc CODE
 0001:00026140 00000025H .text$_ZNKSt3__17num_putIcNS_19ostreambuf_iteratorIcNS_11char_traitsIcEEEEE6do_putES4_RNS_8ios_baseEcy CODE
 0001:00026170 00000210H .text$_ZNKSt3__17num_putIcNS_19ostreambuf_iteratorIcNS_11char_traitsIcEEEEE17__do_put_integralB6v15007IyEES4_S4_RNS_8ios_baseEcT_PKc CODE
 0001:00026380 00000027H .text$_ZNKSt3__17num_putIcNS_19ostreambuf_iteratorIcNS_11char_traitsIcEEEEE6do_putES4_RNS_8ios_baseEcd CODE
 0001:000263b0 00000470H .text$_ZNKSt3__17num_putIcNS_19ostreambuf_iteratorIcNS_11char_traitsIcEEEEE23__do_put_floating_pointB6v15007IdEES4_S4_RNS_8ios_baseEcT_PKc CODE
 0001:00026820 00000027H .text$_ZNKSt3__17num_putIcNS_19ostreambuf_iteratorIcNS_11char_traitsIcEEEEE6do_putES4_RNS_8ios_baseEce CODE
 0001:00026850 00000470H .text$_ZNKSt3__17num_putIcNS_19ostreambuf_iteratorIcNS_11char_traitsIcEEEEE23__do_put_floating_pointB6v15007IeEES4_S4_RNS_8ios_baseEcT_PKc CODE
 0001:00026cc0 0000023bH .text$_ZNKSt3__17num_putIcNS_19ostreambuf_iteratorIcNS_11char_traitsIcEEEEE6do_putES4_RNS_8ios_baseEcPKv CODE
 0001:00026f00 00000053H .text$_ZNSt3__114__num_put_base18__identify_paddingEPcS1_RKNS_8ios_baseE CODE
 0001:00026f60 00000213H .text$_ZNKSt3__17num_putIwNS_19ostreambuf_iteratorIwNS_11char_traitsIwEEEEE6do_putES4_RNS_8ios_baseEwb CODE
 0001:00027180 00000025H .text$_ZNKSt3__17num_putIwNS_19ostreambuf_iteratorIwNS_11char_traitsIwEEEEE6do_putES4_RNS_8ios_baseEwl CODE
 0001:000271b0 0000021cH .text$_ZNKSt3__17num_putIwNS_19ostreambuf_iteratorIwNS_11char_traitsIwEEEEE17__do_put_integralB6v15007IlEES4_S4_RNS_8ios_baseEwT_PKc CODE
 0001:000273d0 00000025H .text$_ZNKSt3__17num_putIwNS_19ostreambuf_iteratorIwNS_11char_traitsIwEEEEE6do_putES4_RNS_8ios_baseEwx CODE
 0001:00027400 00000221H .text$_ZNKSt3__17num_putIwNS_19ostreambuf_iteratorIwNS_11char_traitsIwEEEEE17__do_put_integralB6v15007IxEES4_S4_RNS_8ios_baseEwT_PKc CODE
 0001:00027630 00000025H .text$_ZNKSt3__17num_putIwNS_19ostreambuf_iteratorIwNS_11char_traitsIwEEEEE6do_putES4_RNS_8ios_baseEwm CODE
 0001:00027660 0000020cH .text$_ZNKSt3__17num_putIwNS_19ostreambuf_iteratorIwNS_11char_traitsIwEEEEE17__do_put_integralB6v15007ImEES4_S4_RNS_8ios_baseEwT_PKc CODE
 0001:00027870 00000025H .text$_ZNKSt3__17num_putIwNS_19ostreambuf_iteratorIwNS_11char_traitsIwEEEEE6do_putES4_RNS_8ios_baseEwy CODE
 0001:000278a0 00000211H .text$_ZNKSt3__17num_putIwNS_19ostreambuf_iteratorIwNS_11char_traitsIwEEEEE17__do_put_integralB6v15007IyEES4_S4_RNS_8ios_baseEwT_PKc CODE
 0001:00027ac0 00000027H .text$_ZNKSt3__17num_putIwNS_19ostreambuf_iteratorIwNS_11char_traitsIwEEEEE6do_putES4_RNS_8ios_baseEwd CODE
 0001:00027af0 00000473H .text$_ZNKSt3__17num_putIwNS_19ostreambuf_iteratorIwNS_11char_traitsIwEEEEE23__do_put_floating_pointB6v15007IdEES4_S4_RNS_8ios_baseEwT_PKc CODE
 0001:00027f70 00000027H .text$_ZNKSt3__17num_putIwNS_19ostreambuf_iteratorIwNS_11char_traitsIwEEEEE6do_putES4_RNS_8ios_baseEwe CODE
 0001:00027fa0 00000473H .text$_ZNKSt3__17num_putIwNS_19ostreambuf_iteratorIwNS_11char_traitsIwEEEEE23__do_put_floating_pointB6v15007IeEES4_S4_RNS_8ios_baseEwT_PKc CODE
 0001:00028420 0000023dH .text$_ZNKSt3__17num_putIwNS_19ostreambuf_iteratorIwNS_11char_traitsIwEEEEE6do_putES4_RNS_8ios_baseEwPKv CODE
 0001:00028660 00000254H .text$_ZNSt3__116__pad_and_outputIwNS_11char_traitsIwEEEENS_19ostreambuf_iteratorIT_T0_EES6_PKS4_S8_S8_RNS_8ios_baseES4_ CODE
 0001:000288c0 000003d9H .text$_ZNSt3__19__num_putIcE21__widen_and_group_intEPcS2_S2_S2_RS2_S3_RKNS_6localeE CODE
 0001:00028ca0 0000083eH .text$_ZNSt3__19__num_putIcE23__widen_and_group_floatEPcS2_S2_S2_RS2_S3_RKNS_6localeE CODE
 0001:000294e0 000003ffH .text$_ZNSt3__19__num_putIwE21__widen_and_group_intEPcS2_S2_PwRS3_S4_RKNS_6localeE CODE
 0001:000298e0 00000899H .text$_ZNSt3__19__num_putIwE23__widen_and_group_floatEPcS2_S2_PwRS3_S4_RKNS_6localeE CODE
 0001:0002a180 0000047bH .text$_ZNKSt3__18time_getIcNS_19istreambuf_iteratorIcNS_11char_traitsIcEEEEE3getES4_S4_RNS_8ios_baseERjP2tmPKcSC_ CODE
 0001:0002a600 00000006H .text$_ZNKSt3__18time_getIcNS_19istreambuf_iteratorIcNS_11char_traitsIcEEEEE13do_date_orderEv CODE
 0001:0002a610 0000003cH .text$_ZNKSt3__18time_getIcNS_19istreambuf_iteratorIcNS_11char_traitsIcEEEEE11do_get_timeES4_S4_RNS_8ios_baseERjP2tm CODE
 0001:0002a650 00000077H .text$_ZNKSt3__18time_getIcNS_19istreambuf_iteratorIcNS_11char_traitsIcEEEEE11do_get_dateES4_S4_RNS_8ios_baseERjP2tm CODE
 0001:0002a6d0 0000018eH .text$_ZNKSt3__18time_getIcNS_19istreambuf_iteratorIcNS_11char_traitsIcEEEEE14do_get_weekdayES4_S4_RNS_8ios_baseERjP2tm CODE
 0001:0002a860 000000acH .text$_ZNKSt3__18time_getIcNS_19istreambuf_iteratorIcNS_11char_traitsIcEEEEE17__get_weekdaynameERiRS4_S4_RjRKNS_5ctypeIcEE CODE
 0001:0002a910 0000018bH .text$_ZNKSt3__18time_getIcNS_19istreambuf_iteratorIcNS_11char_traitsIcEEEEE16do_get_monthnameES4_S4_RNS_8ios_baseERjP2tm CODE
 0001:0002aaa0 000000a9H .text$_ZNKSt3__18time_getIcNS_19istreambuf_iteratorIcNS_11char_traitsIcEEEEE15__get_monthnameERiRS4_S4_RjRKNS_5ctypeIcEE CODE
 0001:0002ab50 00000147H .text$_ZNKSt3__18time_getIcNS_19istreambuf_iteratorIcNS_11char_traitsIcEEEEE11do_get_yearES4_S4_RNS_8ios_baseERjP2tm CODE
 0001:0002aca0 00000058H .text$_ZNKSt3__18time_getIcNS_19istreambuf_iteratorIcNS_11char_traitsIcEEEEE10__get_yearERiRS4_S4_RjRKNS_5ctypeIcEE CODE
 0001:0002ad00 00000800H .text$_ZNKSt3__18time_getIcNS_19istreambuf_iteratorIcNS_11char_traitsIcEEEEE6do_getES4_S4_RNS_8ios_baseERjP2tmcc CODE
 0001:0002b500 0000004dH .text$_ZNKSt3__18time_getIcNS_19istreambuf_iteratorIcNS_11char_traitsIcEEEEE9__get_dayERiRS4_S4_RjRKNS_5ctypeIcEE CODE
 0001:0002b550 0000004aH .text$_ZNKSt3__18time_getIcNS_19istreambuf_iteratorIcNS_11char_traitsIcEEEEE10__get_hourERiRS4_S4_RjRKNS_5ctypeIcEE CODE
 0001:0002b5a0 0000004dH .text$_ZNKSt3__18time_getIcNS_19istreambuf_iteratorIcNS_11char_traitsIcEEEEE13__get_12_hourERiRS4_S4_RjRKNS_5ctypeIcEE CODE
 0001:0002b5f0 0000004cH .text$_ZNKSt3__18time_getIcNS_19istreambuf_iteratorIcNS_11char_traitsIcEEEEE18__get_day_year_numERiRS4_S4_RjRKNS_5ctypeIcEE CODE
 0001:0002b640 0000004cH .text$_ZNKSt3__18time_getIcNS_19istreambuf_iteratorIcNS_11char_traitsIcEEEEE11__get_monthERiRS4_S4_RjRKNS_5ctypeIcEE CODE
 0001:0002b690 0000004aH .text$_ZNKSt3__18time_getIcNS_19istreambuf_iteratorIcNS_11char_traitsIcEEEEE12__get_minuteERiRS4_S4_RjRKNS_5ctypeIcEE CODE
 0001:0002b6e0 0000016bH .text$_ZNKSt3__18time_getIcNS_19istreambuf_iteratorIcNS_11char_traitsIcEEEEE17__get_white_spaceERS4_S4_RjRKNS_5ctypeIcEE CODE
 0001:0002b850 000000c0H .text$_ZNKSt3__18time_getIcNS_19istreambuf_iteratorIcNS_11char_traitsIcEEEEE11__get_am_pmERiRS4_S4_RjRKNS_5ctypeIcEE CODE
 0001:0002b910 0000004aH .text$_ZNKSt3__18time_getIcNS_19istreambuf_iteratorIcNS_11char_traitsIcEEEEE12__get_secondERiRS4_S4_RjRKNS_5ctypeIcEE CODE
 0001:0002b960 0000004aH .text$_ZNKSt3__18time_getIcNS_19istreambuf_iteratorIcNS_11char_traitsIcEEEEE13__get_weekdayERiRS4_S4_RjRKNS_5ctypeIcEE CODE
 0001:0002b9b0 0000003fH .text$_ZNKSt3__18time_getIcNS_19istreambuf_iteratorIcNS_11char_traitsIcEEEEE11__get_year4ERiRS4_S4_RjRKNS_5ctypeIcEE CODE
 0001:0002b9f0 00000148H .text$_ZNKSt3__18time_getIcNS_19istreambuf_iteratorIcNS_11char_traitsIcEEEEE13__get_percentERS4_S4_RjRKNS_5ctypeIcEE CODE
 0001:0002bb40 000002d0H .text$_ZNSt3__120__get_up_to_n_digitsIcNS_19istreambuf_iteratorIcNS_11char_traitsIcEEEEEEiRT0_S5_RjRKNS_5ctypeIT_EEi CODE
 0001:0002be10 00000569H .text$_ZNKSt3__18time_getIwNS_19istreambuf_iteratorIwNS_11char_traitsIwEEEEE3getES4_S4_RNS_8ios_baseERjP2tmPKwSC_ CODE
 0001:0002c380 00000006H .text$_ZNKSt3__18time_getIwNS_19istreambuf_iteratorIwNS_11char_traitsIwEEEEE13do_date_orderEv CODE
 0001:0002c390 0000003cH .text$_ZNKSt3__18time_getIwNS_19istreambuf_iteratorIwNS_11char_traitsIwEEEEE11do_get_timeES4_S4_RNS_8ios_baseERjP2tm CODE
 0001:0002c3d0 00000079H .text$_ZNKSt3__18time_getIwNS_19istreambuf_iteratorIwNS_11char_traitsIwEEEEE11do_get_dateES4_S4_RNS_8ios_baseERjP2tm CODE
 0001:0002c450 0000018eH .text$_ZNKSt3__18time_getIwNS_19istreambuf_iteratorIwNS_11char_traitsIwEEEEE14do_get_weekdayES4_S4_RNS_8ios_baseERjP2tm CODE
 0001:0002c5e0 000000acH .text$_ZNKSt3__18time_getIwNS_19istreambuf_iteratorIwNS_11char_traitsIwEEEEE17__get_weekdaynameERiRS4_S4_RjRKNS_5ctypeIwEE CODE
 0001:0002c690 0000018bH .text$_ZNKSt3__18time_getIwNS_19istreambuf_iteratorIwNS_11char_traitsIwEEEEE16do_get_monthnameES4_S4_RNS_8ios_baseERjP2tm CODE
 0001:0002c820 000000a9H .text$_ZNKSt3__18time_getIwNS_19istreambuf_iteratorIwNS_11char_traitsIwEEEEE15__get_monthnameERiRS4_S4_RjRKNS_5ctypeIwEE CODE
 0001:0002c8d0 00000147H .text$_ZNKSt3__18time_getIwNS_19istreambuf_iteratorIwNS_11char_traitsIwEEEEE11do_get_yearES4_S4_RNS_8ios_baseERjP2tm CODE
 0001:0002ca20 00000058H .text$_ZNKSt3__18time_getIwNS_19istreambuf_iteratorIwNS_11char_traitsIwEEEEE10__get_yearERiRS4_S4_RjRKNS_5ctypeIwEE CODE
 0001:0002ca80 00000804H .text$_ZNKSt3__18time_getIwNS_19istreambuf_iteratorIwNS_11char_traitsIwEEEEE6do_getES4_S4_RNS_8ios_baseERjP2tmcc CODE
 0001:0002d290 0000004dH .text$_ZNKSt3__18time_getIwNS_19istreambuf_iteratorIwNS_11char_traitsIwEEEEE9__get_dayERiRS4_S4_RjRKNS_5ctypeIwEE CODE
 0001:0002d2e0 0000004aH .text$_ZNKSt3__18time_getIwNS_19istreambuf_iteratorIwNS_11char_traitsIwEEEEE10__get_hourERiRS4_S4_RjRKNS_5ctypeIwEE CODE
 0001:0002d330 0000004dH .text$_ZNKSt3__18time_getIwNS_19istreambuf_iteratorIwNS_11char_traitsIwEEEEE13__get_12_hourERiRS4_S4_RjRKNS_5ctypeIwEE CODE
 0001:0002d380 0000004cH .text$_ZNKSt3__18time_getIwNS_19istreambuf_iteratorIwNS_11char_traitsIwEEEEE18__get_day_year_numERiRS4_S4_RjRKNS_5ctypeIwEE CODE
 0001:0002d3d0 0000004cH .text$_ZNKSt3__18time_getIwNS_19istreambuf_iteratorIwNS_11char_traitsIwEEEEE11__get_monthERiRS4_S4_RjRKNS_5ctypeIwEE CODE
 0001:0002d420 0000004aH .text$_ZNKSt3__18time_getIwNS_19istreambuf_iteratorIwNS_11char_traitsIwEEEEE12__get_minuteERiRS4_S4_RjRKNS_5ctypeIwEE CODE
 0001:0002d470 000001b0H .text$_ZNKSt3__18time_getIwNS_19istreambuf_iteratorIwNS_11char_traitsIwEEEEE17__get_white_spaceERS4_S4_RjRKNS_5ctypeIwEE CODE
 0001:0002d620 000000c0H .text$_ZNKSt3__18time_getIwNS_19istreambuf_iteratorIwNS_11char_traitsIwEEEEE11__get_am_pmERiRS4_S4_RjRKNS_5ctypeIwEE CODE
 0001:0002d6e0 0000004aH .text$_ZNKSt3__18time_getIwNS_19istreambuf_iteratorIwNS_11char_traitsIwEEEEE12__get_secondERiRS4_S4_RjRKNS_5ctypeIwEE CODE
 0001:0002d730 0000004aH .text$_ZNKSt3__18time_getIwNS_19istreambuf_iteratorIwNS_11char_traitsIwEEEEE13__get_weekdayERiRS4_S4_RjRKNS_5ctypeIwEE CODE
 0001:0002d780 0000003fH .text$_ZNKSt3__18time_getIwNS_19istreambuf_iteratorIwNS_11char_traitsIwEEEEE11__get_year4ERiRS4_S4_RjRKNS_5ctypeIwEE CODE
 0001:0002d7c0 0000016cH .text$_ZNKSt3__18time_getIwNS_19istreambuf_iteratorIwNS_11char_traitsIwEEEEE13__get_percentERS4_S4_RjRKNS_5ctypeIwEE CODE
 0001:0002d930 000002f4H .text$_ZNSt3__120__get_up_to_n_digitsIwNS_19istreambuf_iteratorIwNS_11char_traitsIwEEEEEEiRT0_S5_RjRKNS_5ctypeIT_EEi CODE
 0001:0002dc30 000002b7H .text$_ZNKSt3__18time_putIcNS_19ostreambuf_iteratorIcNS_11char_traitsIcEEEEE3putES4_RNS_8ios_baseEcPK2tmPKcSC_ CODE
 0001:0002def0 000000c1H .text$_ZNKSt3__18time_putIcNS_19ostreambuf_iteratorIcNS_11char_traitsIcEEEEE6do_putES4_RNS_8ios_baseEcPK2tmcc CODE
 0001:0002dfc0 0000005cH .text$_ZNKSt3__110__time_put8__do_putEPcRS1_PK2tmcc CODE
 0001:0002e020 000002b9H .text$_ZNKSt3__18time_putIwNS_19ostreambuf_iteratorIwNS_11char_traitsIwEEEEE3putES4_RNS_8ios_baseEwPK2tmPKwSC_ CODE
 0001:0002e2e0 000000b3H .text$_ZNKSt3__18time_putIwNS_19ostreambuf_iteratorIwNS_11char_traitsIwEEEEE6do_putES4_RNS_8ios_baseEwPK2tmcc CODE
 0001:0002e3a0 000000ffH .text$_ZNKSt3__110__time_put8__do_putEPwRS1_PK2tmcc CODE
 0001:0002e4a0 00000003H .text$_ZNKSt3__110moneypunctIcLb0EE16do_decimal_pointEv CODE
 0001:0002e4b0 00000003H .text$_ZNKSt3__110moneypunctIcLb0EE16do_thousands_sepEv CODE
 0001:0002e4c0 00000012H .text$_ZNKSt3__110moneypunctIcLb0EE11do_groupingEv CODE
 0001:0002e4e0 00000012H .text$_ZNKSt3__110moneypunctIcLb0EE14do_curr_symbolEv CODE
 0001:0002e500 00000012H .text$_ZNKSt3__110moneypunctIcLb0EE16do_positive_signEv CODE
 0001:0002e520 0000000dH .text$_ZNKSt3__110moneypunctIcLb0EE16do_negative_signEv CODE
 0001:0002e530 00000003H .text$_ZNKSt3__110moneypunctIcLb0EE14do_frac_digitsEv CODE
 0001:0002e540 00000006H .text$_ZNKSt3__110moneypunctIcLb0EE13do_pos_formatEv CODE
 0001:0002e550 00000006H .text$_ZNKSt3__110moneypunctIcLb0EE13do_neg_formatEv CODE
 0001:0002e560 00000003H .text$_ZNKSt3__110moneypunctIcLb1EE16do_decimal_pointEv CODE
 0001:0002e570 00000003H .text$_ZNKSt3__110moneypunctIcLb1EE16do_thousands_sepEv CODE
 0001:0002e580 00000012H .text$_ZNKSt3__110moneypunctIcLb1EE11do_groupingEv CODE
 0001:0002e5a0 00000012H .text$_ZNKSt3__110moneypunctIcLb1EE14do_curr_symbolEv CODE
 0001:0002e5c0 00000012H .text$_ZNKSt3__110moneypunctIcLb1EE16do_positive_signEv CODE
 0001:0002e5e0 0000000dH .text$_ZNKSt3__110moneypunctIcLb1EE16do_negative_signEv CODE
 0001:0002e5f0 00000003H .text$_ZNKSt3__110moneypunctIcLb1EE14do_frac_digitsEv CODE
 0001:0002e600 00000006H .text$_ZNKSt3__110moneypunctIcLb1EE13do_pos_formatEv CODE
 0001:0002e610 00000006H .text$_ZNKSt3__110moneypunctIcLb1EE13do_neg_formatEv CODE
 0001:0002e620 00000005H .text$_ZNKSt3__110moneypunctIwLb0EE16do_decimal_pointEv CODE
 0001:0002e630 00000005H .text$_ZNKSt3__110moneypunctIwLb0EE16do_thousands_sepEv CODE
 0001:0002e640 00000012H .text$_ZNKSt3__110moneypunctIwLb0EE11do_groupingEv CODE
 0001:0002e660 00000012H .text$_ZNKSt3__110moneypunctIwLb0EE14do_curr_symbolEv CODE
 0001:0002e680 00000012H .text$_ZNKSt3__110moneypunctIwLb0EE16do_positive_signEv CODE
 0001:0002e6a0 0000000eH .text$_ZNKSt3__110moneypunctIwLb0EE16do_negative_signEv CODE
 0001:0002e6b0 00000003H .text$_ZNKSt3__110moneypunctIwLb0EE14do_frac_digitsEv CODE
 0001:0002e6c0 00000006H .text$_ZNKSt3__110moneypunctIwLb0EE13do_pos_formatEv CODE
 0001:0002e6d0 00000006H .text$_ZNKSt3__110moneypunctIwLb0EE13do_neg_formatEv CODE
 0001:0002e6e0 00000005H .text$_ZNKSt3__110moneypunctIwLb1EE16do_decimal_pointEv CODE
 0001:0002e6f0 00000005H .text$_ZNKSt3__110moneypunctIwLb1EE16do_thousands_sepEv CODE
 0001:0002e700 00000012H .text$_ZNKSt3__110moneypunctIwLb1EE11do_groupingEv CODE
 0001:0002e720 00000012H .text$_ZNKSt3__110moneypunctIwLb1EE14do_curr_symbolEv CODE
 0001:0002e740 00000012H .text$_ZNKSt3__110moneypunctIwLb1EE16do_positive_signEv CODE
 0001:0002e760 0000000eH .text$_ZNKSt3__110moneypunctIwLb1EE16do_negative_signEv CODE
 0001:0002e770 00000003H .text$_ZNKSt3__110moneypunctIwLb1EE14do_frac_digitsEv CODE
 0001:0002e780 00000006H .text$_ZNKSt3__110moneypunctIwLb1EE13do_pos_formatEv CODE
 0001:0002e790 00000006H .text$_ZNKSt3__110moneypunctIwLb1EE13do_neg_formatEv CODE
 0001:0002e7a0 00000005H .text$_ZNKSt3__117moneypunct_bynameIcLb0EE16do_decimal_pointEv CODE
 0001:0002e7b0 00000005H .text$_ZNKSt3__117moneypunct_bynameIcLb0EE16do_thousands_sepEv CODE
 0001:0002e7c0 0000008dH .text$_ZNKSt3__117moneypunct_bynameIcLb0EE11do_groupingEv CODE
 0001:0002e850 0000008dH .text$_ZNKSt3__117moneypunct_bynameIcLb0EE14do_curr_symbolEv CODE
 0001:0002e8e0 0000008dH .text$_ZNKSt3__117moneypunct_bynameIcLb0EE16do_positive_signEv CODE
 0001:0002e970 0000008dH .text$_ZNKSt3__117moneypunct_bynameIcLb0EE16do_negative_signEv CODE
 0001:0002ea00 00000004H .text$_ZNKSt3__117moneypunct_bynameIcLb0EE14do_frac_digitsEv CODE
 0001:0002ea10 00000004H .text$_ZNKSt3__117moneypunct_bynameIcLb0EE13do_pos_formatEv CODE
 0001:0002ea20 00000007H .text$_ZNKSt3__117moneypunct_bynameIcLb0EE13do_neg_formatEv CODE
 0001:0002ea30 00000005H .text$_ZNKSt3__117moneypunct_bynameIcLb1EE16do_decimal_pointEv CODE
 0001:0002ea40 00000005H .text$_ZNKSt3__117moneypunct_bynameIcLb1EE16do_thousands_sepEv CODE
 0001:0002ea50 0000008dH .text$_ZNKSt3__117moneypunct_bynameIcLb1EE11do_groupingEv CODE
 0001:0002eae0 0000008dH .text$_ZNKSt3__117moneypunct_bynameIcLb1EE14do_curr_symbolEv CODE
 0001:0002eb70 0000008dH .text$_ZNKSt3__117moneypunct_bynameIcLb1EE16do_positive_signEv CODE
 0001:0002ec00 0000008dH .text$_ZNKSt3__117moneypunct_bynameIcLb1EE16do_negative_signEv CODE
 0001:0002ec90 00000004H .text$_ZNKSt3__117moneypunct_bynameIcLb1EE14do_frac_digitsEv CODE
 0001:0002eca0 00000004H .text$_ZNKSt3__117moneypunct_bynameIcLb1EE13do_pos_formatEv CODE
 0001:0002ecb0 00000007H .text$_ZNKSt3__117moneypunct_bynameIcLb1EE13do_neg_formatEv CODE
 0001:0002ecc0 00000005H .text$_ZNKSt3__117moneypunct_bynameIwLb0EE16do_decimal_pointEv CODE
 0001:0002ecd0 00000005H .text$_ZNKSt3__117moneypunct_bynameIwLb0EE16do_thousands_sepEv CODE
 0001:0002ece0 0000008dH .text$_ZNKSt3__117moneypunct_bynameIwLb0EE11do_groupingEv CODE
 0001:0002ed70 0000009aH .text$_ZNKSt3__117moneypunct_bynameIwLb0EE14do_curr_symbolEv CODE
 0001:0002ee10 0000009aH .text$_ZNKSt3__117moneypunct_bynameIwLb0EE16do_positive_signEv CODE
 0001:0002eeb0 0000009aH .text$_ZNKSt3__117moneypunct_bynameIwLb0EE16do_negative_signEv CODE
 0001:0002ef50 00000004H .text$_ZNKSt3__117moneypunct_bynameIwLb0EE14do_frac_digitsEv CODE
 0001:0002ef60 00000004H .text$_ZNKSt3__117moneypunct_bynameIwLb0EE13do_pos_formatEv CODE
 0001:0002ef70 00000007H .text$_ZNKSt3__117moneypunct_bynameIwLb0EE13do_neg_formatEv CODE
 0001:0002ef80 00000005H .text$_ZNKSt3__117moneypunct_bynameIwLb1EE16do_decimal_pointEv CODE
 0001:0002ef90 00000005H .text$_ZNKSt3__117moneypunct_bynameIwLb1EE16do_thousands_sepEv CODE
 0001:0002efa0 0000008dH .text$_ZNKSt3__117moneypunct_bynameIwLb1EE11do_groupingEv CODE
 0001:0002f030 0000009aH .text$_ZNKSt3__117moneypunct_bynameIwLb1EE14do_curr_symbolEv CODE
 0001:0002f0d0 0000009aH .text$_ZNKSt3__117moneypunct_bynameIwLb1EE16do_positive_signEv CODE
 0001:0002f170 0000009aH .text$_ZNKSt3__117moneypunct_bynameIwLb1EE16do_negative_signEv CODE
 0001:0002f210 00000004H .text$_ZNKSt3__117moneypunct_bynameIwLb1EE14do_frac_digitsEv CODE
 0001:0002f220 00000004H .text$_ZNKSt3__117moneypunct_bynameIwLb1EE13do_pos_formatEv CODE
 0001:0002f230 00000007H .text$_ZNKSt3__117moneypunct_bynameIwLb1EE13do_neg_formatEv CODE
 0001:0002f240 00000455H .text$_ZNKSt3__19money_getIcNS_19istreambuf_iteratorIcNS_11char_traitsIcEEEEE6do_getES4_S4_bRNS_8ios_baseERjRe CODE
 0001:0002f6a0 00000001H .text$_ZNSt3__112__do_nothingEPv CODE
 0001:0002f6b0 00001580H .text$_ZNSt3__19money_getIcNS_19istreambuf_iteratorIcNS_11char_traitsIcEEEEE8__do_getERS4_S4_bRKNS_6localeEjRjRbRKNS_5ctypeIcEERNS_10unique_ptrIcPFvPvEEERPcSM_ CODE
 0001:00030c30 0000004bH .text$_ZNSt3__121__throw_runtime_errorEPKc CODE
 0001:00030c80 00000318H .text$_ZNKSt3__19money_getIcNS_19istreambuf_iteratorIcNS_11char_traitsIcEEEEE6do_getES4_S4_bRNS_8ios_baseERjRNS_12basic_stringIcS3_NS_9allocatorIcEEEE CODE
 0001:00030fa0 000003beH .text$_ZNSt3__112basic_stringIcNS_11char_traitsIcEENS_9allocatorIcEEE6appendB6v15007IPcEENS_9enable_ifIXsr27__is_cpp17_forward_iteratorIT_EE5valueERS5_E4typeES9_S9_ CODE
 0001:00031360 00000238H .text$_ZNSt3__111__money_getIcE13__gather_infoEbRKNS_6localeERNS_10money_base7patternERcS8_RNS_12basic_stringIcNS_11char_traitsIcEENS_9allocatorIcEEEESF_SF_SF_Ri CODE
 0001:000315a0 00000103H .text$_ZNSt3__116__check_groupingERKNS_12basic_stringIcNS_11char_traitsIcEENS_9allocatorIcEEEEPjS8_Rj CODE
 0001:000316b0 00000473H .text$_ZNKSt3__19money_getIwNS_19istreambuf_iteratorIwNS_11char_traitsIwEEEEE6do_getES4_S4_bRNS_8ios_baseERjRe CODE
 0001:00031b30 000015acH .text$_ZNSt3__19money_getIwNS_19istreambuf_iteratorIwNS_11char_traitsIwEEEEE8__do_getERS4_S4_bRKNS_6localeEjRjRbRKNS_5ctypeIwEERNS_10unique_ptrIwPFvPvEEERPwSM_ CODE
 0001:000330e0 0000031dH .text$_ZNKSt3__19money_getIwNS_19istreambuf_iteratorIwNS_11char_traitsIwEEEEE6do_getES4_S4_bRNS_8ios_baseERjRNS_12basic_stringIwS3_NS_9allocatorIwEEEE CODE
 0001:00033400 00000431H .text$_ZNSt3__112basic_stringIwNS_11char_traitsIwEENS_9allocatorIwEEE6appendB6v15007IPwEENS_9enable_ifIXsr27__is_cpp17_forward_iteratorIT_EE5valueERS5_E4typeES9_S9_ CODE
 0001:00033840 0000023aH .text$_ZNSt3__111__money_getIwE13__gather_infoEbRKNS_6localeERNS_10money_base7patternERwS8_RNS_12basic_stringIcNS_11char_traitsIcEENS_9allocatorIcEEEERNS9_IwNSA_IwEENSC_IwEEEESJ_SJ_Ri CODE
 0001:00033a80 0000069dH .text$_ZNKSt3__19money_putIcNS_19ostreambuf_iteratorIcNS_11char_traitsIcEEEEE6do_putES4_bRNS_8ios_baseEce CODE
 0001:00034120 00000229H .text$_ZNSt3__111__money_putIcE13__gather_infoEbbRKNS_6localeERNS_10money_base7patternERcS8_RNS_12basic_stringIcNS_11char_traitsIcEENS_9allocatorIcEEEESF_SF_Ri CODE
 0001:00034350 00000560H .text$_ZNSt3__111__money_putIcE8__formatEPcRS2_S3_jPKcS5_RKNS_5ctypeIcEEbRKNS_10money_base7patternEccRKNS_12basic_stringIcNS_11char_traitsIcEENS_9allocatorIcEEEESL_SL_i CODE
 0001:000348b0 0000050fH .text$_ZNKSt3__19money_putIcNS_19ostreambuf_iteratorIcNS_11char_traitsIcEEEEE6do_putES4_bRNS_8ios_baseEcRKNS_12basic_stringIcS3_NS_9allocatorIcEEEE CODE
 0001:00034dc0 000006b9H .text$_ZNKSt3__19money_putIwNS_19ostreambuf_iteratorIwNS_11char_traitsIwEEEEE6do_putES4_bRNS_8ios_baseEwe CODE
 0001:00035480 0000022bH .text$_ZNSt3__111__money_putIwE13__gather_infoEbbRKNS_6localeERNS_10money_base7patternERwS8_RNS_12basic_stringIcNS_11char_traitsIcEENS_9allocatorIcEEEERNS9_IwNSA_IwEENSC_IwEEEESJ_Ri CODE
 0001:000356b0 00000600H .text$_ZNSt3__111__money_putIwE8__formatEPwRS2_S3_jPKwS5_RKNS_5ctypeIwEEbRKNS_10money_base7patternEwwRKNS_12basic_stringIcNS_11char_traitsIcEENS_9allocatorIcEEEERKNSE_IwNSF_IwEENSH_IwEEEESQ_i CODE
 0001:00035cb0 00000524H .text$_ZNKSt3__19money_putIwNS_19ostreambuf_iteratorIwNS_11char_traitsIwEEEEE6do_putES4_bRNS_8ios_baseEwRKNS_12basic_stringIwS3_NS_9allocatorIwEEEE CODE
 0001:000361e0 00000008H .text$_ZNKSt3__18messagesIcE7do_openERKNS_12basic_stringIcNS_11char_traitsIcEENS_9allocatorIcEEEERKNS_6localeE CODE
 0001:000361f0 0000008dH .text$_ZNKSt3__18messagesIcE6do_getExiiRKNS_12basic_stringIcNS_11char_traitsIcEENS_9allocatorIcEEEE CODE
 0001:00036280 00000001H .text$_ZNKSt3__18messagesIcE8do_closeEx CODE
 0001:00036290 00000008H .text$_ZNKSt3__18messagesIwE7do_openERKNS_12basic_stringIcNS_11char_traitsIcEENS_9allocatorIcEEEERKNS_6localeE CODE
 0001:000362a0 0000009aH .text$_ZNKSt3__18messagesIwE6do_getExiiRKNS_12basic_stringIwNS_11char_traitsIwEENS_9allocatorIwEEEE CODE
 0001:00036340 00000001H .text$_ZNKSt3__18messagesIwE8do_closeEx CODE
 0001:00036350 00000005H .text$_ZNSt3__114codecvt_bynameIcc9_MbstatetED2Ev CODE
 0001:00036360 00000005H .text$_ZNSt3__114codecvt_bynameIcc9_MbstatetED1Ev CODE
 0001:00036370 0000001aH .text$_ZNSt3__114codecvt_bynameIcc9_MbstatetED0Ev CODE
 0001:00036390 00000005H .text$_ZNSt3__114codecvt_bynameIwc9_MbstatetED2Ev CODE
 0001:000363a0 00000005H .text$_ZNSt3__114codecvt_bynameIwc9_MbstatetED1Ev CODE
 0001:000363b0 0000001aH .text$_ZNSt3__114codecvt_bynameIwc9_MbstatetED0Ev CODE
 0001:000363d0 00000005H .text$_ZNSt3__114codecvt_bynameIDsc9_MbstatetED2Ev CODE
 0001:000363e0 00000005H .text$_ZNSt3__114codecvt_bynameIDsc9_MbstatetED1Ev CODE
 0001:000363f0 0000001aH .text$_ZNSt3__114codecvt_bynameIDsc9_MbstatetED0Ev CODE
 0001:00036410 00000005H .text$_ZNSt3__114codecvt_bynameIDic9_MbstatetED2Ev CODE
 0001:00036420 00000005H .text$_ZNSt3__114codecvt_bynameIDic9_MbstatetED1Ev CODE
 0001:00036430 0000001aH .text$_ZNSt3__114codecvt_bynameIDic9_MbstatetED0Ev CODE
 0001:00036450 00000005H .text$_ZNSt3__114codecvt_bynameIDsDu9_MbstatetED2Ev CODE
 0001:00036460 00000005H .text$_ZNSt3__114codecvt_bynameIDsDu9_MbstatetED1Ev CODE
 0001:00036470 0000001aH .text$_ZNSt3__114codecvt_bynameIDsDu9_MbstatetED0Ev CODE
 0001:00036490 00000005H .text$_ZNSt3__114codecvt_bynameIDiDu9_MbstatetED2Ev CODE
 0001:000364a0 00000005H .text$_ZNSt3__114codecvt_bynameIDiDu9_MbstatetED1Ev CODE
 0001:000364b0 0000001aH .text$_ZNSt3__114codecvt_bynameIDiDu9_MbstatetED0Ev CODE
 0001:000364d0 0000002dH .text$__dtor__ZZNSt3__16__clocEvE6result CODE
 0001:00036500 0000069aH .text$_ZNSt3__16locale5__impC2Ey CODE
 0001:00036ba0 00000088H .text$_ZNSt3__112basic_stringIcNS_11char_traitsIcEENS_9allocatorIcEEEC2B6v15007IDnEEPKc CODE
 0001:00036c30 0000010aH .text$_ZNSt3__16locale5__imp7installINS_7collateIcEEEEvPT_ CODE
 0001:00036d40 0000010aH .text$_ZNSt3__16locale5__imp7installINS_7collateIwEEEEvPT_ CODE
 0001:00036e50 0000010aH .text$_ZNSt3__16locale5__imp7installINS_5ctypeIcEEEEvPT_ CODE
 0001:00036f60 0000010aH .text$_ZNSt3__16locale5__imp7installINS_5ctypeIwEEEEvPT_ CODE
 0001:00037070 0000010aH .text$_ZNSt3__16locale5__imp7installINS_7codecvtIcc9_MbstatetEEEEvPT_ CODE
 0001:00037180 0000010aH .text$_ZNSt3__16locale5__imp7installINS_7codecvtIwc9_MbstatetEEEEvPT_ CODE
 0001:00037290 0000010aH .text$_ZNSt3__16locale5__imp7installINS_7codecvtIDsc9_MbstatetEEEEvPT_ CODE
 0001:000373a0 0000010aH .text$_ZNSt3__16locale5__imp7installINS_7codecvtIDic9_MbstatetEEEEvPT_ CODE
 0001:000374b0 0000010aH .text$_ZNSt3__16locale5__imp7installINS_7codecvtIDsDu9_MbstatetEEEEvPT_ CODE
 0001:000375c0 0000010aH .text$_ZNSt3__16locale5__imp7installINS_7codecvtIDiDu9_MbstatetEEEEvPT_ CODE
 0001:000376d0 0000010aH .text$_ZNSt3__16locale5__imp7installINS_8numpunctIcEEEEvPT_ CODE
 0001:000377e0 0000010aH .text$_ZNSt3__16locale5__imp7installINS_8numpunctIwEEEEvPT_ CODE
 0001:000378f0 0000010aH .text$_ZNSt3__16locale5__imp7installINS_7num_getIcNS_19istreambuf_iteratorIcNS_11char_traitsIcEEEEEEEEvPT_ CODE
 0001:00037a00 0000010aH .text$_ZNSt3__16locale5__imp7installINS_7num_getIwNS_19istreambuf_iteratorIwNS_11char_traitsIwEEEEEEEEvPT_ CODE
 0001:00037b10 0000010aH .text$_ZNSt3__16locale5__imp7installINS_7num_putIcNS_19ostreambuf_iteratorIcNS_11char_traitsIcEEEEEEEEvPT_ CODE
 0001:00037c20 0000010aH .text$_ZNSt3__16locale5__imp7installINS_7num_putIwNS_19ostreambuf_iteratorIwNS_11char_traitsIwEEEEEEEEvPT_ CODE
 0001:00037d30 0000010aH .text$_ZNSt3__16locale5__imp7installINS_10moneypunctIcLb0EEEEEvPT_ CODE
 0001:00037e40 0000010aH .text$_ZNSt3__16locale5__imp7installINS_10moneypunctIcLb1EEEEEvPT_ CODE
 0001:00037f50 0000010aH .text$_ZNSt3__16locale5__imp7installINS_10moneypunctIwLb0EEEEEvPT_ CODE
 0001:00038060 0000010aH .text$_ZNSt3__16locale5__imp7installINS_10moneypunctIwLb1EEEEEvPT_ CODE
 0001:00038170 0000010aH .text$_ZNSt3__16locale5__imp7installINS_9money_getIcNS_19istreambuf_iteratorIcNS_11char_traitsIcEEEEEEEEvPT_ CODE
 0001:00038280 0000010aH .text$_ZNSt3__16locale5__imp7installINS_9money_getIwNS_19istreambuf_iteratorIwNS_11char_traitsIwEEEEEEEEvPT_ CODE
 0001:00038390 0000010aH .text$_ZNSt3__16locale5__imp7installINS_9money_putIcNS_19ostreambuf_iteratorIcNS_11char_traitsIcEEEEEEEEvPT_ CODE
 0001:000384a0 0000010aH .text$_ZNSt3__16locale5__imp7installINS_9money_putIwNS_19ostreambuf_iteratorIwNS_11char_traitsIwEEEEEEEEvPT_ CODE
 0001:000385b0 0000010aH .text$_ZNSt3__16locale5__imp7installINS_8time_getIcNS_19istreambuf_iteratorIcNS_11char_traitsIcEEEEEEEEvPT_ CODE
 0001:000386c0 0000010aH .text$_ZNSt3__16locale5__imp7installINS_8time_getIwNS_19istreambuf_iteratorIwNS_11char_traitsIwEEEEEEEEvPT_ CODE
 0001:000387d0 0000010aH .text$_ZNSt3__16locale5__imp7installINS_8time_putIcNS_19ostreambuf_iteratorIcNS_11char_traitsIcEEEEEEEEvPT_ CODE
 0001:000388e0 0000010aH .text$_ZNSt3__16locale5__imp7installINS_8time_putIwNS_19ostreambuf_iteratorIwNS_11char_traitsIwEEEEEEEEvPT_ CODE
 0001:000389f0 0000010aH .text$_ZNSt3__16locale5__imp7installINS_8messagesIcEEEEvPT_ CODE
 0001:00038b00 0000010aH .text$_ZNSt3__16locale5__imp7installINS_8messagesIwEEEEvPT_ CODE
 0001:00038c10 0000078dH .text$_ZNSt3__16locale5__impC2ERKNS_12basic_stringIcNS_11char_traitsIcEENS_9allocatorIcEEEEy CODE
 0001:000393a0 0000007cH .text$_ZNSt3__16locale7classicEv CODE
 0001:00039420 0000010aH .text$_ZNSt3__16locale5__imp7installINS_14collate_bynameIcEEEEvPT_ CODE
 0001:00039530 0000010aH .text$_ZNSt3__16locale5__imp7installINS_14collate_bynameIwEEEEvPT_ CODE
 0001:00039640 0000010aH .text$_ZNSt3__16locale5__imp7installINS_12ctype_bynameIcEEEEvPT_ CODE
 0001:00039750 0000010aH .text$_ZNSt3__16locale5__imp7installINS_12ctype_bynameIwEEEEvPT_ CODE
 0001:00039860 0000010aH .text$_ZNSt3__16locale5__imp7installINS_14codecvt_bynameIcc9_MbstatetEEEEvPT_ CODE
 0001:00039970 0000010aH .text$_ZNSt3__16locale5__imp7installINS_14codecvt_bynameIwc9_MbstatetEEEEvPT_ CODE
 0001:00039a80 0000010aH .text$_ZNSt3__16locale5__imp7installINS_14codecvt_bynameIDsc9_MbstatetEEEEvPT_ CODE
 0001:00039b90 0000010aH .text$_ZNSt3__16locale5__imp7installINS_14codecvt_bynameIDic9_MbstatetEEEEvPT_ CODE
 0001:00039ca0 0000010aH .text$_ZNSt3__16locale5__imp7installINS_14codecvt_bynameIDsDu9_MbstatetEEEEvPT_ CODE
 0001:00039db0 0000010aH .text$_ZNSt3__16locale5__imp7installINS_14codecvt_bynameIDiDu9_MbstatetEEEEvPT_ CODE
 0001:00039ec0 0000010aH .text$_ZNSt3__16locale5__imp7installINS_15numpunct_bynameIcEEEEvPT_ CODE
 0001:00039fd0 0000010aH .text$_ZNSt3__16locale5__imp7installINS_15numpunct_bynameIwEEEEvPT_ CODE
 0001:0003a0e0 0000010aH .text$_ZNSt3__16locale5__imp7installINS_17moneypunct_bynameIcLb0EEEEEvPT_ CODE
 0001:0003a1f0 000000c9H .text$_ZNSt3__117moneypunct_bynameIcLb0EEC2B6v15007ERKNS_12basic_stringIcNS_11char_traitsIcEENS_9allocatorIcEEEEy CODE
 0001:0003a2c0 0000010aH .text$_ZNSt3__16locale5__imp7installINS_17moneypunct_bynameIcLb1EEEEEvPT_ CODE
 0001:0003a3d0 000000c9H .text$_ZNSt3__117moneypunct_bynameIcLb1EEC2B6v15007ERKNS_12basic_stringIcNS_11char_traitsIcEENS_9allocatorIcEEEEy CODE
 0001:0003a4a0 0000010aH .text$_ZNSt3__16locale5__imp7installINS_17moneypunct_bynameIwLb0EEEEEvPT_ CODE
 0001:0003a5b0 000000c9H .text$_ZNSt3__117moneypunct_bynameIwLb0EEC2B6v15007ERKNS_12basic_stringIcNS_11char_traitsIcEENS_9allocatorIcEEEEy CODE
 0001:0003a680 0000010aH .text$_ZNSt3__16locale5__imp7installINS_17moneypunct_bynameIwLb1EEEEEvPT_ CODE
 0001:0003a790 000000c9H .text$_ZNSt3__117moneypunct_bynameIwLb1EEC2B6v15007ERKNS_12basic_stringIcNS_11char_traitsIcEENS_9allocatorIcEEEEy CODE
 0001:0003a860 0000010aH .text$_ZNSt3__16locale5__imp7installINS_15time_get_bynameIcNS_19istreambuf_iteratorIcNS_11char_traitsIcEEEEEEEEvPT_ CODE
 0001:0003a970 0000010aH .text$_ZNSt3__16locale5__imp7installINS_15time_get_bynameIwNS_19istreambuf_iteratorIwNS_11char_traitsIwEEEEEEEEvPT_ CODE
 0001:0003aa80 0000010aH .text$_ZNSt3__16locale5__imp7installINS_15time_put_bynameIcNS_19ostreambuf_iteratorIcNS_11char_traitsIcEEEEEEEEvPT_ CODE
 0001:0003ab90 0000010aH .text$_ZNSt3__16locale5__imp7installINS_15time_put_bynameIwNS_19ostreambuf_iteratorIwNS_11char_traitsIwEEEEEEEEvPT_ CODE
 0001:0003aca0 0000010aH .text$_ZNSt3__16locale5__imp7installINS_15messages_bynameIcEEEEvPT_ CODE
 0001:0003adb0 0000010aH .text$_ZNSt3__16locale5__imp7installINS_15messages_bynameIwEEEEvPT_ CODE
 0001:0003aec0 00000261H .text$_ZNSt3__16locale5__impC2ERKS1_ CODE
 0001:0003b130 000006c0H .text$_ZNSt3__16locale5__impC2ERKS1_RKNS_12basic_stringIcNS_11char_traitsIcEENS_9allocatorIcEEEEi CODE
 0001:0003b7f0 00000360H .text$_ZNSt3__16locale5__impC2ERKS1_S3_i CODE
 0001:0003bb50 0000012cH .text$_ZNSt3__16locale5__imp12install_fromINS_7collateIcEEEEvRKS1_ CODE
 0001:0003bc80 0000012cH .text$_ZNSt3__16locale5__imp12install_fromINS_7collateIwEEEEvRKS1_ CODE
 0001:0003bdb0 0000012cH .text$_ZNSt3__16locale5__imp12install_fromINS_5ctypeIcEEEEvRKS1_ CODE
 0001:0003bee0 0000012cH .text$_ZNSt3__16locale5__imp12install_fromINS_5ctypeIwEEEEvRKS1_ CODE
 0001:0003c010 0000012cH .text$_ZNSt3__16locale5__imp12install_fromINS_7codecvtIcc9_MbstatetEEEEvRKS1_ CODE
 0001:0003c140 0000012cH .text$_ZNSt3__16locale5__imp12install_fromINS_7codecvtIDsc9_MbstatetEEEEvRKS1_ CODE
 0001:0003c270 0000012cH .text$_ZNSt3__16locale5__imp12install_fromINS_7codecvtIDic9_MbstatetEEEEvRKS1_ CODE
 0001:0003c3a0 0000012cH .text$_ZNSt3__16locale5__imp12install_fromINS_7codecvtIDsDu9_MbstatetEEEEvRKS1_ CODE
 0001:0003c4d0 0000012cH .text$_ZNSt3__16locale5__imp12install_fromINS_7codecvtIDiDu9_MbstatetEEEEvRKS1_ CODE
 0001:0003c600 0000012cH .text$_ZNSt3__16locale5__imp12install_fromINS_7codecvtIwc9_MbstatetEEEEvRKS1_ CODE
 0001:0003c730 0000012cH .text$_ZNSt3__16locale5__imp12install_fromINS_10moneypunctIcLb0EEEEEvRKS1_ CODE
 0001:0003c860 0000012cH .text$_ZNSt3__16locale5__imp12install_fromINS_10moneypunctIcLb1EEEEEvRKS1_ CODE
 0001:0003c990 0000012cH .text$_ZNSt3__16locale5__imp12install_fromINS_10moneypunctIwLb0EEEEEvRKS1_ CODE
 0001:0003cac0 0000012cH .text$_ZNSt3__16locale5__imp12install_fromINS_10moneypunctIwLb1EEEEEvRKS1_ CODE
 0001:0003cbf0 0000012cH .text$_ZNSt3__16locale5__imp12install_fromINS_9money_getIcNS_19istreambuf_iteratorIcNS_11char_traitsIcEEEEEEEEvRKS1_ CODE
 0001:0003cd20 0000012cH .text$_ZNSt3__16locale5__imp12install_fromINS_9money_getIwNS_19istreambuf_iteratorIwNS_11char_traitsIwEEEEEEEEvRKS1_ CODE
 0001:0003ce50 0000012cH .text$_ZNSt3__16locale5__imp12install_fromINS_9money_putIcNS_19ostreambuf_iteratorIcNS_11char_traitsIcEEEEEEEEvRKS1_ CODE
 0001:0003cf80 0000012cH .text$_ZNSt3__16locale5__imp12install_fromINS_9money_putIwNS_19ostreambuf_iteratorIwNS_11char_traitsIwEEEEEEEEvRKS1_ CODE
 0001:0003d0b0 0000012cH .text$_ZNSt3__16locale5__imp12install_fromINS_8numpunctIcEEEEvRKS1_ CODE
 0001:0003d1e0 0000012cH .text$_ZNSt3__16locale5__imp12install_fromINS_8numpunctIwEEEEvRKS1_ CODE
 0001:0003d310 0000012cH .text$_ZNSt3__16locale5__imp12install_fromINS_7num_getIcNS_19istreambuf_iteratorIcNS_11char_traitsIcEEEEEEEEvRKS1_ CODE
 0001:0003d440 0000012cH .text$_ZNSt3__16locale5__imp12install_fromINS_7num_getIwNS_19istreambuf_iteratorIwNS_11char_traitsIwEEEEEEEEvRKS1_ CODE
 0001:0003d570 0000012cH .text$_ZNSt3__16locale5__imp12install_fromINS_7num_putIcNS_19ostreambuf_iteratorIcNS_11char_traitsIcEEEEEEEEvRKS1_ CODE
 0001:0003d6a0 0000012cH .text$_ZNSt3__16locale5__imp12install_fromINS_7num_putIwNS_19ostreambuf_iteratorIwNS_11char_traitsIwEEEEEEEEvRKS1_ CODE
 0001:0003d7d0 0000012cH .text$_ZNSt3__16locale5__imp12install_fromINS_8time_getIcNS_19istreambuf_iteratorIcNS_11char_traitsIcEEEEEEEEvRKS1_ CODE
 0001:0003d900 0000012cH .text$_ZNSt3__16locale5__imp12install_fromINS_8time_getIwNS_19istreambuf_iteratorIwNS_11char_traitsIwEEEEEEEEvRKS1_ CODE
 0001:0003da30 0000012cH .text$_ZNSt3__16locale5__imp12install_fromINS_8time_putIcNS_19ostreambuf_iteratorIcNS_11char_traitsIcEEEEEEEEvRKS1_ CODE
 0001:0003db60 0000012cH .text$_ZNSt3__16locale5__imp12install_fromINS_8time_putIwNS_19ostreambuf_iteratorIwNS_11char_traitsIwEEEEEEEEvRKS1_ CODE
 0001:0003dc90 0000012cH .text$_ZNSt3__16locale5__imp12install_fromINS_8messagesIcEEEEvRKS1_ CODE
 0001:0003ddc0 0000012cH .text$_ZNSt3__16locale5__imp12install_fromINS_8messagesIwEEEEvRKS1_ CODE
 0001:0003def0 000002b5H .text$_ZNSt3__16locale5__impC2ERKS1_PNS0_5facetEl CODE
 0001:0003e1b0 000000a7H .text$_ZNSt3__16locale5__imp7installEPNS0_5facetEl CODE
 0001:0003e260 000000acH .text$_ZNSt3__16locale5__impD2Ev CODE
 0001:0003e310 000000b4H .text$_ZNSt3__16locale5__impD0Ev CODE
 0001:0003e3d0 0000002fH .text$_ZNKSt3__16locale5__imp9use_facetEl CODE
 0001:0003e400 0000002dH .text$_ZNSt3__16locale5__imp12make_classicEv CODE
 0001:0003e430 0000008eH .text$_ZNSt3__16locale5__imp11make_globalEv CODE
 0001:0003e4c0 00000066H .text$_ZNSt3__16locale8__globalEv CODE
 0001:0003e530 00000070H .text$_ZNSt3__16localeC2Ev CODE
 0001:0003e5a0 0000000bH .text$_ZNSt3__16localeC2ERKS0_ CODE
 0001:0003e5b0 00000019H .text$_ZNSt3__16localeD2Ev CODE
 0001:0003e5d0 0000003aH .text$_ZNSt3__16localeaSERKS0_ CODE
 0001:0003e610 0000010cH .text$_ZNSt3__16localeC2EPKc CODE
 0001:0003e720 0000004bH .text$_ZNSt3__16localeC2ERKNS_12basic_stringIcNS_11char_traitsIcEENS_9allocatorIcEEEE CODE
 0001:0003e770 0000011eH .text$_ZNSt3__16localeC2ERKS0_PKci CODE
 0001:0003e890 0000005aH .text$_ZNSt3__16localeC2ERKS0_RKNS_12basic_stringIcNS_11char_traitsIcEENS_9allocatorIcEEEEi CODE
 0001:0003e8f0 0000005aH .text$_ZNSt3__16localeC2ERKS0_S2_i CODE
 0001:0003e950 0000009bH .text$_ZNKSt3__16locale4nameEv CODE
 0001:0003e9f0 00000066H .text$_ZNSt3__16locale14__install_ctorERKS0_PNS0_5facetEl CODE
 0001:0003ea60 000002d1H .text$_ZNSt3__16locale6globalERKS0_ CODE
 0001:0003ed40 00000085H .text$_ZNKSt3__16locale9has_facetERNS0_2idE CODE
 0001:0003edd0 0000005cH .text$_ZNSt3__16locale2id5__getEv CODE
 0001:0003ee30 00000088H .text$_ZNKSt3__16locale9use_facetERNS0_2idE CODE
 0001:0003eec0 000000feH .text$_ZNKSt3__16localeeqERKS0_ CODE
 0001:0003efc0 0000001aH .text$_ZNSt3__16locale5facetD0Ev CODE
 0001:0003efe0 00000007H .text$_ZNSt3__16locale5facet16__on_zero_sharedEv CODE
 0001:0003eff0 00000013H .text$_ZNSt3__16locale2id6__initEv CODE
 0001:0003f010 000000f4H .text$_ZNSt3__114collate_bynameIcEC2EPKcy CODE
 0001:0003f110 0000004bH .text$_ZNSt3__112_GLOBAL__N_121__throw_runtime_errorERKNS_12basic_stringIcNS_11char_traitsIcEENS_9allocatorIcEEEE CODE
 0001:0003f160 0000004fH .text$_ZNSt3__1plB6v15007IcNS_11char_traitsIcEENS_9allocatorIcEEEENS_12basic_stringIT_T0_T1_EEPKS6_OS9_ CODE
 0001:0003f1b0 000000dbH .text$_ZNSt3__114collate_bynameIcEC2ERKNS_12basic_stringIcNS_11char_traitsIcEENS_9allocatorIcEEEEy CODE
 0001:0003f290 0000004cH .text$_ZNSt3__114collate_bynameIcED2Ev CODE
 0001:0003f2e0 00000054H .text$_ZNSt3__114collate_bynameIcED0Ev CODE
 0001:0003f340 000001d1H .text$_ZNKSt3__114collate_bynameIcE10do_compareEPKcS3_S3_S3_ CODE
 0001:0003f520 000001c1H .text$_ZNKSt3__114collate_bynameIcE12do_transformEPKcS3_ CODE
 0001:0003f6f0 000000f4H .text$_ZNSt3__114collate_bynameIwEC2EPKcy CODE
 0001:0003f7f0 000000dbH .text$_ZNSt3__114collate_bynameIwEC2ERKNS_12basic_stringIcNS_11char_traitsIcEENS_9allocatorIcEEEEy CODE
 0001:0003f8d0 0000004cH .text$_ZNSt3__114collate_bynameIwED2Ev CODE
 0001:0003f920 00000054H .text$_ZNSt3__114collate_bynameIwED0Ev CODE
 0001:0003f980 000001ecH .text$_ZNKSt3__114collate_bynameIwE10do_compareEPKwS3_S3_S3_ CODE
 0001:0003fb70 000001ddH .text$_ZNKSt3__114collate_bynameIwE12do_transformEPKwS3_ CODE
 0001:0003fd50 0000001aH .text$_ZNSt3__15ctypeIwED0Ev CODE
 0001:0003fd70 00000035H .text$_ZNKSt3__15ctypeIwE5do_isEtw CODE
 0001:0003fdb0 00000018H .text$_ZNSt3__15ctypeIcE13classic_tableEv CODE
 0001:0003fdd0 0000005dH .text$_ZNKSt3__15ctypeIwE5do_isEPKwS3_Pt CODE
 0001:0003fe30 00000056H .text$_ZNKSt3__15ctypeIwE10do_scan_isEtPKwS3_ CODE
 0001:0003fe90 00000054H .text$_ZNKSt3__15ctypeIwE11do_scan_notEtPKwS3_ CODE
 0001:0003fef0 00000067H .text$_ZNKSt3__15ctypeIwE10do_toupperEw CODE
 0001:0003ff60 000000baH .text$_ZNKSt3__15ctypeIwE10do_toupperEPwPKw CODE
 0001:00040020 00000090H .text$_ZNKSt3__15ctypeIwE10do_tolowerEw CODE
 0001:000400b0 000000baH .text$_ZNKSt3__15ctypeIwE10do_tolowerEPwPKw CODE
 0001:00040170 00000004H .text$_ZNKSt3__15ctypeIwE8do_widenEc CODE
 0001:00040180 000001bdH .text$_ZNKSt3__15ctypeIwE8do_widenEPKcS3_Pw CODE
 0001:00040340 00000011H .text$_ZNKSt3__15ctypeIwE9do_narrowEwc CODE
 0001:00040360 0000023cH .text$_ZNKSt3__15ctypeIwE9do_narrowEPKwS3_cPc CODE
 0001:000405a0 00000044H .text$_ZNSt3__15ctypeIcEC2EPKtby CODE
 0001:000405f0 00000033H .text$_ZNSt3__15ctypeIcED2Ev CODE
 0001:00040630 0000003bH .text$_ZNSt3__15ctypeIcED0Ev CODE
 0001:00040670 00000092H .text$_ZNKSt3__15ctypeIcE10do_toupperEc CODE
 0001:00040710 000000beH .text$_ZNKSt3__15ctypeIcE10do_toupperEPcPKc CODE
 0001:000407d0 00000092H .text$_ZNKSt3__15ctypeIcE10do_tolowerEc CODE
 0001:00040870 000000beH .text$_ZNKSt3__15ctypeIcE10do_tolowerEPcPKc CODE
 0001:00040930 00000003H .text$_ZNKSt3__15ctypeIcE8do_widenEc CODE
 0001:00040940 000001eeH .text$_ZNKSt3__15ctypeIcE8do_widenEPKcS3_Pc CODE
 0001:00040b30 0000000dH .text$_ZNKSt3__15ctypeIcE9do_narrowEcc CODE
 0001:00040b40 0000028eH .text$_ZNKSt3__15ctypeIcE9do_narrowEPKcS3_cPc CODE
 0001:00040dd0 0000011bH .text$_ZNSt3__112ctype_bynameIcEC2EPKcy CODE
 0001:00040ef0 00000102H .text$_ZNSt3__112ctype_bynameIcEC2ERKNS_12basic_stringIcNS_11char_traitsIcEENS_9allocatorIcEEEEy CODE
 0001:00041000 00000072H .text$_ZNSt3__112ctype_bynameIcED0Ev CODE
 0001:00041080 0000000eH .text$_ZNKSt3__112ctype_bynameIcE10do_toupperEc CODE
 0001:00041090 00000044H .text$_ZNKSt3__112ctype_bynameIcE10do_toupperEPcPKc CODE
 0001:000410e0 0000000eH .text$_ZNKSt3__112ctype_bynameIcE10do_tolowerEc CODE
 0001:000410f0 00000044H .text$_ZNKSt3__112ctype_bynameIcE10do_tolowerEPcPKc CODE
 0001:00041140 000000f4H .text$_ZNSt3__112ctype_bynameIwEC2EPKcy CODE
 0001:00041240 000000dbH .text$_ZNSt3__112ctype_bynameIwEC2ERKNS_12basic_stringIcNS_11char_traitsIcEENS_9allocatorIcEEEEy CODE
 0001:00041320 00000054H .text$_ZNSt3__112ctype_bynameIwED0Ev CODE
 0001:00041380 0000018dH .text$_ZNKSt3__112ctype_bynameIwE5do_isEtw CODE
 0001:00041510 0000010bH .text$_ZNKSt3__112ctype_bynameIwE5do_isEPKwS3_Pt CODE
 0001:00041620 000001deH .text$_ZNKSt3__112ctype_bynameIwE10do_scan_isEtPKwS3_ CODE
 0001:00041800 000001dcH .text$_ZNKSt3__112ctype_bynameIwE11do_scan_notEtPKwS3_ CODE
 0001:000419e0 0000000dH .text$_ZNKSt3__112ctype_bynameIwE10do_toupperEw CODE
 0001:000419f0 00000046H .text$_ZNKSt3__112ctype_bynameIwE10do_toupperEPwPKw CODE
 0001:00041a40 0000000dH .text$_ZNKSt3__112ctype_bynameIwE10do_tolowerEw CODE
 0001:00041a50 00000046H .text$_ZNKSt3__112ctype_bynameIwE10do_tolowerEPwPKw CODE
 0001:00041aa0 00000062H .text$_ZNKSt3__112ctype_bynameIwE8do_widenEc CODE
 0001:00041b10 000000a3H .text$_ZNKSt3__112ctype_bynameIwE8do_widenEPKcS3_Pw CODE
 0001:00041bc0 0000006dH .text$_ZNKSt3__112ctype_bynameIwE9do_narrowEwc CODE
 0001:00041c30 000000bfH .text$_ZNKSt3__112ctype_bynameIwE9do_narrowEPKwS3_cPc CODE
 0001:00041cf0 0000001aH .text$_ZNSt3__17codecvtIcc9_MbstatetED0Ev CODE
 0001:00041d10 0000001bH .text$_ZNKSt3__17codecvtIcc9_MbstatetE6do_outERS1_PKcS5_RS5_PcS7_RS7_ CODE
 0001:00041d30 0000001bH .text$_ZNKSt3__17codecvtIcc9_MbstatetE5do_inERS1_PKcS5_RS5_PcS7_RS7_ CODE
 0001:00041d50 0000000eH .text$_ZNKSt3__17codecvtIcc9_MbstatetE10do_unshiftERS1_PcS4_RS4_ CODE
 0001:00041d60 00000006H .text$_ZNKSt3__17codecvtIcc9_MbstatetE11do_encodingEv CODE
 0001:00041d70 00000003H .text$_ZNKSt3__17codecvtIcc9_MbstatetE16do_always_noconvEv CODE
 0001:00041d80 00000010H .text$_ZNKSt3__17codecvtIcc9_MbstatetE9do_lengthERS1_PKcS5_y CODE
 0001:00041d90 00000006H .text$_ZNKSt3__17codecvtIcc9_MbstatetE13do_max_lengthEv CODE
 0001:00041da0 0000003dH .text$_ZNSt3__17codecvtIwc9_MbstatetEC2Ey CODE
 0001:00041de0 000000f4H .text$_ZNSt3__17codecvtIwc9_MbstatetEC2EPKcy CODE
 0001:00041ee0 0000001aH .text$_ZNSt3__17codecvtIwc9_MbstatetED0Ev CODE
 0001:00041f00 000003c0H .text$_ZNKSt3__17codecvtIwc9_MbstatetE6do_outERS1_PKwS5_RS5_PcS7_RS7_ CODE
 0001:000422c0 0000031eH .text$_ZNKSt3__17codecvtIwc9_MbstatetE5do_inERS1_PKcS5_RS5_PwS7_RS7_ CODE
 0001:000425e0 00000158H .text$_ZNKSt3__17codecvtIwc9_MbstatetE10do_unshiftERS1_PcS4_RS4_ CODE
 0001:00042740 00000089H .text$_ZNKSt3__17codecvtIwc9_MbstatetE11do_encodingEv CODE
 0001:000427d0 00000003H .text$_ZNKSt3__17codecvtIwc9_MbstatetE16do_always_noconvEv CODE
 0001:000427e0 000000feH .text$_ZNKSt3__17codecvtIwc9_MbstatetE9do_lengthERS1_PKcS5_y CODE
 0001:000428e0 00000065H .text$_ZNKSt3__17codecvtIwc9_MbstatetE13do_max_lengthEv CODE
 0001:00042950 0000001aH .text$_ZNSt3__17codecvtIDsc9_MbstatetED0Ev CODE
 0001:00042970 00000078H .text$_ZNKSt3__17codecvtIDsc9_MbstatetE6do_outERS1_PKDsS5_RS5_PcS7_RS7_ CODE
 0001:000429f0 00000259H .text$_ZNSt3__1L13utf16_to_utf8EPKtS1_RS1_PhS3_RS3_mNS_12codecvt_modeE CODE
 0001:00042c50 00000078H .text$_ZNKSt3__17codecvtIDsc9_MbstatetE5do_inERS1_PKcS5_RS5_PDsS7_RS7_ CODE
 0001:00042cd0 000002beH .text$_ZNSt3__1L13utf8_to_utf16EPKhS1_RS1_PtS3_RS3_mNS_12codecvt_modeE CODE
 0001:00042f90 0000000eH .text$_ZNKSt3__17codecvtIDsc9_MbstatetE10do_unshiftERS1_PcS4_RS4_ CODE
 0001:00042fa0 00000003H .text$_ZNKSt3__17codecvtIDsc9_MbstatetE11do_encodingEv CODE
 0001:00042fb0 00000003H .text$_ZNKSt3__17codecvtIDsc9_MbstatetE16do_always_noconvEv CODE
 0001:00042fc0 00000028H .text$_ZNKSt3__17codecvtIDsc9_MbstatetE9do_lengthERS1_PKcS5_y CODE
 0001:00042ff0 00000245H .text$_ZNSt3__1L20utf8_to_utf16_lengthEPKhS1_ymNS_12codecvt_modeE CODE
 0001:00043240 00000006H .text$_ZNKSt3__17codecvtIDsc9_MbstatetE13do_max_lengthEv CODE
 0001:00043250 0000001aH .text$_ZNSt3__17codecvtIDsDu9_MbstatetED0Ev CODE
 0001:00043270 00000078H .text$_ZNKSt3__17codecvtIDsDu9_MbstatetE6do_outERS1_PKDsS5_RS5_PDuS7_RS7_ CODE
 0001:000432f0 00000078H .text$_ZNKSt3__17codecvtIDsDu9_MbstatetE5do_inERS1_PKDuS5_RS5_PDsS7_RS7_ CODE
 0001:00043370 0000000eH .text$_ZNKSt3__17codecvtIDsDu9_MbstatetE10do_unshiftERS1_PDuS4_RS4_ CODE
 0001:00043380 00000003H .text$_ZNKSt3__17codecvtIDsDu9_MbstatetE11do_encodingEv CODE
 0001:00043390 00000003H .text$_ZNKSt3__17codecvtIDsDu9_MbstatetE16do_always_noconvEv CODE
 0001:000433a0 00000028H .text$_ZNKSt3__17codecvtIDsDu9_MbstatetE9do_lengthERS1_PKDuS5_y CODE
 0001:000433d0 00000006H .text$_ZNKSt3__17codecvtIDsDu9_MbstatetE13do_max_lengthEv CODE
 0001:000433e0 0000001aH .text$_ZNSt3__17codecvtIDic9_MbstatetED0Ev CODE
 0001:00043400 00000152H .text$_ZNKSt3__17codecvtIDic9_MbstatetE6do_outERS1_PKDiS5_RS5_PcS7_RS7_ CODE
 0001:00043560 00000078H .text$_ZNKSt3__17codecvtIDic9_MbstatetE5do_inERS1_PKcS5_RS5_PDiS7_RS7_ CODE
 0001:000435e0 00000248H .text$_ZNSt3__1L12utf8_to_ucs4EPKhS1_RS1_PjS3_RS3_mNS_12codecvt_modeE CODE
 0001:00043830 0000000eH .text$_ZNKSt3__17codecvtIDic9_MbstatetE10do_unshiftERS1_PcS4_RS4_ CODE
 0001:00043840 00000003H .text$_ZNKSt3__17codecvtIDic9_MbstatetE11do_encodingEv CODE
 0001:00043850 00000003H .text$_ZNKSt3__17codecvtIDic9_MbstatetE16do_always_noconvEv CODE
 0001:00043860 00000028H .text$_ZNKSt3__17codecvtIDic9_MbstatetE9do_lengthERS1_PKcS5_y CODE
 0001:00043890 00000221H .text$_ZNSt3__1L19utf8_to_ucs4_lengthEPKhS1_ymNS_12codecvt_modeE CODE
 0001:00043ac0 00000006H .text$_ZNKSt3__17codecvtIDic9_MbstatetE13do_max_lengthEv CODE
 0001:00043ad0 0000001aH .text$_ZNSt3__17codecvtIDiDu9_MbstatetED0Ev CODE
 0001:00043af0 00000152H .text$_ZNKSt3__17codecvtIDiDu9_MbstatetE6do_outERS1_PKDiS5_RS5_PDuS7_RS7_ CODE
 0001:00043c50 00000078H .text$_ZNKSt3__17codecvtIDiDu9_MbstatetE5do_inERS1_PKDuS5_RS5_PDiS7_RS7_ CODE
 0001:00043cd0 0000000eH .text$_ZNKSt3__17codecvtIDiDu9_MbstatetE10do_unshiftERS1_PDuS4_RS4_ CODE
 0001:00043ce0 00000003H .text$_ZNKSt3__17codecvtIDiDu9_MbstatetE11do_encodingEv CODE
 0001:00043cf0 00000003H .text$_ZNKSt3__17codecvtIDiDu9_MbstatetE16do_always_noconvEv CODE
 0001:00043d00 00000028H .text$_ZNKSt3__17codecvtIDiDu9_MbstatetE9do_lengthERS1_PKDuS5_y CODE
 0001:00043d30 00000006H .text$_ZNKSt3__17codecvtIDiDu9_MbstatetE13do_max_lengthEv CODE
 0001:00043d40 0000012cH .text$_ZNKSt3__114__codecvt_utf8IwE6do_outER9_MbstatetPKwS5_RS5_PcS7_RS7_ CODE
 0001:00043e70 0000007dH .text$_ZNKSt3__114__codecvt_utf8IwE5do_inER9_MbstatetPKcS5_RS5_PwS7_RS7_ CODE
 0001:00043ef0 00000182H .text$_ZNSt3__1L12utf8_to_ucs2EPKhS1_RS1_PtS3_RS3_mNS_12codecvt_modeE CODE
 0001:00044080 0000000eH .text$_ZNKSt3__114__codecvt_utf8IwE10do_unshiftER9_MbstatetPcS4_RS4_ CODE
 0001:00044090 00000003H .text$_ZNKSt3__114__codecvt_utf8IwE11do_encodingEv CODE
 0001:000440a0 00000003H .text$_ZNKSt3__114__codecvt_utf8IwE16do_always_noconvEv CODE
 0001:000440b0 00000028H .text$_ZNKSt3__114__codecvt_utf8IwE9do_lengthER9_MbstatetPKcS5_y CODE
 0001:000440e0 0000016eH .text$_ZNSt3__1L19utf8_to_ucs2_lengthEPKhS1_ymNS_12codecvt_modeE CODE
 0001:00044250 00000013H .text$_ZNKSt3__114__codecvt_utf8IwE13do_max_lengthEv CODE
 0001:00044270 0000012cH .text$_ZNKSt3__114__codecvt_utf8IDsE6do_outER9_MbstatetPKDsS5_RS5_PcS7_RS7_ CODE
 0001:000443a0 0000007dH .text$_ZNKSt3__114__codecvt_utf8IDsE5do_inER9_MbstatetPKcS5_RS5_PDsS7_RS7_ CODE
 0001:00044420 0000000eH .text$_ZNKSt3__114__codecvt_utf8IDsE10do_unshiftER9_MbstatetPcS4_RS4_ CODE
 0001:00044430 00000003H .text$_ZNKSt3__114__codecvt_utf8IDsE11do_encodingEv CODE
 0001:00044440 00000003H .text$_ZNKSt3__114__codecvt_utf8IDsE16do_always_noconvEv CODE
 0001:00044450 00000028H .text$_ZNKSt3__114__codecvt_utf8IDsE9do_lengthER9_MbstatetPKcS5_y CODE
 0001:00044480 00000013H .text$_ZNKSt3__114__codecvt_utf8IDsE13do_max_lengthEv CODE
 0001:000444a0 00000164H .text$_ZNKSt3__114__codecvt_utf8IDiE6do_outER9_MbstatetPKDiS5_RS5_PcS7_RS7_ CODE
 0001:00044610 0000007dH .text$_ZNKSt3__114__codecvt_utf8IDiE5do_inER9_MbstatetPKcS5_RS5_PDiS7_RS7_ CODE
 0001:00044690 0000000eH .text$_ZNKSt3__114__codecvt_utf8IDiE10do_unshiftER9_MbstatetPcS4_RS4_ CODE
 0001:000446a0 00000003H .text$_ZNKSt3__114__codecvt_utf8IDiE11do_encodingEv CODE
 0001:000446b0 00000003H .text$_ZNKSt3__114__codecvt_utf8IDiE16do_always_noconvEv CODE
 0001:000446c0 00000028H .text$_ZNKSt3__114__codecvt_utf8IDiE9do_lengthER9_MbstatetPKcS5_y CODE
 0001:000446f0 00000013H .text$_ZNKSt3__114__codecvt_utf8IDiE13do_max_lengthEv CODE
 0001:00044710 0000009eH .text$_ZNKSt3__115__codecvt_utf16IwLb0EE6do_outER9_MbstatetPKwS5_RS5_PcS7_RS7_ CODE
 0001:000447b0 000000a5H .text$_ZNKSt3__115__codecvt_utf16IwLb0EE5do_inER9_MbstatetPKcS5_RS5_PwS7_RS7_ CODE
 0001:00044860 0000000eH .text$_ZNKSt3__115__codecvt_utf16IwLb0EE10do_unshiftER9_MbstatetPcS4_RS4_ CODE
 0001:00044870 00000003H .text$_ZNKSt3__115__codecvt_utf16IwLb0EE11do_encodingEv CODE
 0001:00044880 00000003H .text$_ZNKSt3__115__codecvt_utf16IwLb0EE16do_always_noconvEv CODE
 0001:00044890 0000008dH .text$_ZNKSt3__115__codecvt_utf16IwLb0EE9do_lengthER9_MbstatetPKcS5_y CODE
 0001:00044920 00000012H .text$_ZNKSt3__115__codecvt_utf16IwLb0EE13do_max_lengthEv CODE
 0001:00044940 0000009aH .text$_ZNKSt3__115__codecvt_utf16IwLb1EE6do_outER9_MbstatetPKwS5_RS5_PcS7_RS7_ CODE
 0001:000449e0 000000a0H .text$_ZNKSt3__115__codecvt_utf16IwLb1EE5do_inER9_MbstatetPKcS5_RS5_PwS7_RS7_ CODE
 0001:00044a80 0000000eH .text$_ZNKSt3__115__codecvt_utf16IwLb1EE10do_unshiftER9_MbstatetPcS4_RS4_ CODE
 0001:00044a90 00000003H .text$_ZNKSt3__115__codecvt_utf16IwLb1EE11do_encodingEv CODE
 0001:00044aa0 00000003H .text$_ZNKSt3__115__codecvt_utf16IwLb1EE16do_always_noconvEv CODE
 0001:00044ab0 0000008dH .text$_ZNKSt3__115__codecvt_utf16IwLb1EE9do_lengthER9_MbstatetPKcS5_y CODE
 0001:00044b40 00000012H .text$_ZNKSt3__115__codecvt_utf16IwLb1EE13do_max_lengthEv CODE
 0001:00044b60 0000009eH .text$_ZNKSt3__115__codecvt_utf16IDsLb0EE6do_outER9_MbstatetPKDsS5_RS5_PcS7_RS7_ CODE
 0001:00044c00 000000a5H .text$_ZNKSt3__115__codecvt_utf16IDsLb0EE5do_inER9_MbstatetPKcS5_RS5_PDsS7_RS7_ CODE
 0001:00044cb0 0000000eH .text$_ZNKSt3__115__codecvt_utf16IDsLb0EE10do_unshiftER9_MbstatetPcS4_RS4_ CODE
 0001:00044cc0 00000003H .text$_ZNKSt3__115__codecvt_utf16IDsLb0EE11do_encodingEv CODE
 0001:00044cd0 00000003H .text$_ZNKSt3__115__codecvt_utf16IDsLb0EE16do_always_noconvEv CODE
 0001:00044ce0 0000008dH .text$_ZNKSt3__115__codecvt_utf16IDsLb0EE9do_lengthER9_MbstatetPKcS5_y CODE
 0001:00044d70 00000012H .text$_ZNKSt3__115__codecvt_utf16IDsLb0EE13do_max_lengthEv CODE
 0001:00044d90 0000009aH .text$_ZNKSt3__115__codecvt_utf16IDsLb1EE6do_outER9_MbstatetPKDsS5_RS5_PcS7_RS7_ CODE
 0001:00044e30 000000a0H .text$_ZNKSt3__115__codecvt_utf16IDsLb1EE5do_inER9_MbstatetPKcS5_RS5_PDsS7_RS7_ CODE
 0001:00044ed0 0000000eH .text$_ZNKSt3__115__codecvt_utf16IDsLb1EE10do_unshiftER9_MbstatetPcS4_RS4_ CODE
 0001:00044ee0 00000003H .text$_ZNKSt3__115__codecvt_utf16IDsLb1EE11do_encodingEv CODE
 0001:00044ef0 00000003H .text$_ZNKSt3__115__codecvt_utf16IDsLb1EE16do_always_noconvEv CODE
 0001:00044f00 0000008dH .text$_ZNKSt3__115__codecvt_utf16IDsLb1EE9do_lengthER9_MbstatetPKcS5_y CODE
 0001:00044f90 00000012H .text$_ZNKSt3__115__codecvt_utf16IDsLb1EE13do_max_lengthEv CODE
 0001:00044fb0 00000103H .text$_ZNKSt3__115__codecvt_utf16IDiLb0EE6do_outER9_MbstatetPKDiS5_RS5_PcS7_RS7_ CODE
 0001:000450c0 0000011fH .text$_ZNKSt3__115__codecvt_utf16IDiLb0EE5do_inER9_MbstatetPKcS5_RS5_PDiS7_RS7_ CODE
 0001:000451e0 0000000eH .text$_ZNKSt3__115__codecvt_utf16IDiLb0EE10do_unshiftER9_MbstatetPcS4_RS4_ CODE
 0001:000451f0 00000003H .text$_ZNKSt3__115__codecvt_utf16IDiLb0EE11do_encodingEv CODE
 0001:00045200 00000003H .text$_ZNKSt3__115__codecvt_utf16IDiLb0EE16do_always_noconvEv CODE
 0001:00045210 00000109H .text$_ZNKSt3__115__codecvt_utf16IDiLb0EE9do_lengthER9_MbstatetPKcS5_y CODE
 0001:00045320 00000012H .text$_ZNKSt3__115__codecvt_utf16IDiLb0EE13do_max_lengthEv CODE
 0001:00045340 00000105H .text$_ZNKSt3__115__codecvt_utf16IDiLb1EE6do_outER9_MbstatetPKDiS5_RS5_PcS7_RS7_ CODE
 0001:00045450 0000011fH .text$_ZNKSt3__115__codecvt_utf16IDiLb1EE5do_inER9_MbstatetPKcS5_RS5_PDiS7_RS7_ CODE
 0001:00045570 0000000eH .text$_ZNKSt3__115__codecvt_utf16IDiLb1EE10do_unshiftER9_MbstatetPcS4_RS4_ CODE
 0001:00045580 00000003H .text$_ZNKSt3__115__codecvt_utf16IDiLb1EE11do_encodingEv CODE
 0001:00045590 00000003H .text$_ZNKSt3__115__codecvt_utf16IDiLb1EE16do_always_noconvEv CODE
 0001:000455a0 00000109H .text$_ZNKSt3__115__codecvt_utf16IDiLb1EE9do_lengthER9_MbstatetPKcS5_y CODE
 0001:000456b0 00000012H .text$_ZNKSt3__115__codecvt_utf16IDiLb1EE13do_max_lengthEv CODE
 0001:000456d0 0000007dH .text$_ZNKSt3__120__codecvt_utf8_utf16IwE6do_outER9_MbstatetPKwS5_RS5_PcS7_RS7_ CODE
 0001:00045750 0000007dH .text$_ZNKSt3__120__codecvt_utf8_utf16IwE5do_inER9_MbstatetPKcS5_RS5_PwS7_RS7_ CODE
 0001:000457d0 0000000eH .text$_ZNKSt3__120__codecvt_utf8_utf16IwE10do_unshiftER9_MbstatetPcS4_RS4_ CODE
 0001:000457e0 00000003H .text$_ZNKSt3__120__codecvt_utf8_utf16IwE11do_encodingEv CODE
 0001:000457f0 00000003H .text$_ZNKSt3__120__codecvt_utf8_utf16IwE16do_always_noconvEv CODE
 0001:00045800 00000028H .text$_ZNKSt3__120__codecvt_utf8_utf16IwE9do_lengthER9_MbstatetPKcS5_y CODE
 0001:00045830 00000013H .text$_ZNKSt3__120__codecvt_utf8_utf16IwE13do_max_lengthEv CODE
 0001:00045850 0000007dH .text$_ZNKSt3__120__codecvt_utf8_utf16IDsE6do_outER9_MbstatetPKDsS5_RS5_PcS7_RS7_ CODE
 0001:000458d0 0000007dH .text$_ZNKSt3__120__codecvt_utf8_utf16IDsE5do_inER9_MbstatetPKcS5_RS5_PDsS7_RS7_ CODE
 0001:00045950 0000000eH .text$_ZNKSt3__120__codecvt_utf8_utf16IDsE10do_unshiftER9_MbstatetPcS4_RS4_ CODE
 0001:00045960 00000003H .text$_ZNKSt3__120__codecvt_utf8_utf16IDsE11do_encodingEv CODE
 0001:00045970 00000003H .text$_ZNKSt3__120__codecvt_utf8_utf16IDsE16do_always_noconvEv CODE
 0001:00045980 00000028H .text$_ZNKSt3__120__codecvt_utf8_utf16IDsE9do_lengthER9_MbstatetPKcS5_y CODE
 0001:000459b0 00000013H .text$_ZNKSt3__120__codecvt_utf8_utf16IDsE13do_max_lengthEv CODE
 0001:000459d0 0000022dH .text$_ZNKSt3__120__codecvt_utf8_utf16IDiE6do_outER9_MbstatetPKDiS5_RS5_PcS7_RS7_ CODE
 0001:00045c00 000002b1H .text$_ZNKSt3__120__codecvt_utf8_utf16IDiE5do_inER9_MbstatetPKcS5_RS5_PDiS7_RS7_ CODE
 0001:00045ec0 0000000eH .text$_ZNKSt3__120__codecvt_utf8_utf16IDiE10do_unshiftER9_MbstatetPcS4_RS4_ CODE
 0001:00045ed0 00000003H .text$_ZNKSt3__120__codecvt_utf8_utf16IDiE11do_encodingEv CODE
 0001:00045ee0 00000003H .text$_ZNKSt3__120__codecvt_utf8_utf16IDiE16do_always_noconvEv CODE
 0001:00045ef0 00000028H .text$_ZNKSt3__120__codecvt_utf8_utf16IDiE9do_lengthER9_MbstatetPKcS5_y CODE
 0001:00045f20 00000013H .text$_ZNKSt3__120__codecvt_utf8_utf16IDiE13do_max_lengthEv CODE
 0001:00045f40 0000001aH .text$_ZNSt3__116__narrow_to_utf8ILy16EED0Ev CODE
 0001:00045f60 0000001aH .text$_ZNSt3__116__narrow_to_utf8ILy32EED0Ev CODE
 0001:00045f80 0000001aH .text$_ZNSt3__117__widen_from_utf8ILy16EED0Ev CODE
 0001:00045fa0 0000001aH .text$_ZNSt3__117__widen_from_utf8ILy32EED0Ev CODE
 0001:00045fc0 00000025H .text$_ZNSt3__18numpunctIcEC2Ey CODE
 0001:00045ff0 00000026H .text$_ZNSt3__18numpunctIwEC2Ey CODE
 0001:00046020 0000002eH .text$_ZNSt3__18numpunctIcED2Ev CODE
 0001:00046050 00000036H .text$_ZNSt3__18numpunctIcED0Ev CODE
 0001:00046090 0000002eH .text$_ZNSt3__18numpunctIwED2Ev CODE
 0001:000460c0 00000036H .text$_ZNSt3__18numpunctIwED0Ev CODE
 0001:00046100 00000005H .text$_ZNKSt3__18numpunctIcE16do_decimal_pointEv CODE
 0001:00046110 00000005H .text$_ZNKSt3__18numpunctIwE16do_decimal_pointEv CODE
 0001:00046120 00000005H .text$_ZNKSt3__18numpunctIcE16do_thousands_sepEv CODE
 0001:00046130 00000005H .text$_ZNKSt3__18numpunctIwE16do_thousands_sepEv CODE
 0001:00046140 0000008dH .text$_ZNKSt3__18numpunctIcE11do_groupingEv CODE
 0001:000461d0 0000008dH .text$_ZNKSt3__18numpunctIwE11do_groupingEv CODE
 0001:00046260 00000012H .text$_ZNKSt3__18numpunctIcE11do_truenameEv CODE
 0001:00046280 0000001bH .text$_ZNKSt3__18numpunctIwE11do_truenameEv CODE
 0001:000462a0 00000097H .text$_ZNSt3__112basic_stringIwNS_11char_traitsIwEENS_9allocatorIwEEEC2B6v15007IDnEEPKw CODE
 0001:00046340 00000014H .text$_ZNKSt3__18numpunctIcE12do_falsenameEv CODE
 0001:00046360 0000001cH .text$_ZNKSt3__18numpunctIwE12do_falsenameEv CODE
 0001:00046380 00000050H .text$_ZNSt3__115numpunct_bynameIcEC2EPKcy CODE
 0001:000463d0 00000223H .text$_ZNSt3__115numpunct_bynameIcE6__initEPKc CODE
 0001:00046600 00000061H .text$_ZNSt3__115numpunct_bynameIcEC2ERKNS_12basic_stringIcNS_11char_traitsIcEENS_9allocatorIcEEEEy CODE
 0001:00046670 00000036H .text$_ZNSt3__115numpunct_bynameIcED0Ev CODE
 0001:000466b0 00000145H .text$_ZNSt3__1L30checked_string_to_char_convertERcPKc8locale_t CODE
 0001:00046800 00000043H .text$_ZNSt3__122__libcpp_unique_localeD2Ev CODE
 0001:00046850 00000051H .text$_ZNSt3__115numpunct_bynameIwEC2EPKcy CODE
 0001:000468b0 00000314H .text$_ZNSt3__115numpunct_bynameIwE6__initEPKc CODE
 0001:00046bd0 00000062H .text$_ZNSt3__115numpunct_bynameIwEC2ERKNS_12basic_stringIcNS_11char_traitsIcEENS_9allocatorIcEEEEy CODE
 0001:00046c40 00000036H .text$_ZNSt3__115numpunct_bynameIwED0Ev CODE
 0001:00046c80 00000027H .text$_ZNSt3__114__num_get_base10__get_baseERNS_8ios_baseE CODE
 0001:00046cb0 00000089H .text$_ZNSt3__114__num_put_base12__format_intEPcPKcbj CODE
 0001:00046d40 0000010bH .text$_ZNSt3__114__num_put_base14__format_floatEPcPKcj CODE
 0001:00046e50 00000066H .text$_ZNKSt3__120__time_get_c_storageIcE7__weeksEv CODE
 0001:00046ec0 000003ceH .text$_ZNSt3__1L10init_weeksEv CODE
 0001:00047290 00000066H .text$_ZNKSt3__120__time_get_c_storageIwE7__weeksEv CODE
 0001:00047300 0000044dH .text$_ZNSt3__1L11init_wweeksEv CODE
 0001:00047750 00000066H .text$_ZNKSt3__120__time_get_c_storageIcE8__monthsEv CODE
 0001:000477c0 000006ceH .text$_ZNSt3__1L11init_monthsEv CODE
 0001:00047e90 00000066H .text$_ZNKSt3__120__time_get_c_storageIwE8__monthsEv CODE
 0001:00047f00 00000720H .text$_ZNSt3__1L12init_wmonthsEv CODE
 0001:00048620 00000066H .text$_ZNKSt3__120__time_get_c_storageIcE7__am_pmEv CODE
 0001:00048690 000000bdH .text$_ZNSt3__1L10init_am_pmEv CODE
 0001:00048750 00000066H .text$_ZNKSt3__120__time_get_c_storageIwE7__am_pmEv CODE
 0001:000487c0 000000caH .text$_ZNSt3__1L11init_wam_pmEv CODE
 0001:00048890 00000072H .text$_ZNKSt3__120__time_get_c_storageIcE3__xEv CODE
 0001:00048910 00000016H .text$__dtor__ZZNKSt3__120__time_get_c_storageIcE3__xEvE1s CODE
 0001:00048930 00000072H .text$_ZNKSt3__120__time_get_c_storageIwE3__xEv CODE
 0001:000489b0 00000016H .text$__dtor__ZZNKSt3__120__time_get_c_storageIwE3__xEvE1s CODE
 0001:000489d0 00000072H .text$_ZNKSt3__120__time_get_c_storageIcE3__XEv CODE
 0001:00048a50 00000016H .text$__dtor__ZZNKSt3__120__time_get_c_storageIcE3__XEvE1s CODE
 0001:00048a70 00000072H .text$_ZNKSt3__120__time_get_c_storageIwE3__XEv CODE
 0001:00048af0 00000016H .text$__dtor__ZZNKSt3__120__time_get_c_storageIwE3__XEvE1s CODE
 0001:00048b10 00000072H .text$_ZNKSt3__120__time_get_c_storageIcE3__cEv CODE
 0001:00048b90 00000016H .text$__dtor__ZZNKSt3__120__time_get_c_storageIcE3__cEvE1s CODE
 0001:00048bb0 00000072H .text$_ZNKSt3__120__time_get_c_storageIwE3__cEv CODE
 0001:00048c30 00000016H .text$__dtor__ZZNKSt3__120__time_get_c_storageIwE3__cEvE1s CODE
 0001:00048c50 00000072H .text$_ZNKSt3__120__time_get_c_storageIcE3__rEv CODE
 0001:00048cd0 00000016H .text$__dtor__ZZNKSt3__120__time_get_c_storageIcE3__rEvE1s CODE
 0001:00048cf0 00000072H .text$_ZNKSt3__120__time_get_c_storageIwE3__rEv CODE
 0001:00048d70 00000016H .text$__dtor__ZZNKSt3__120__time_get_c_storageIwE3__rEvE1s CODE
 0001:00048d90 0000010aH .text$_ZNSt3__110__time_getC2EPKc CODE
 0001:00048ea0 000000baH .text$_ZNSt3__110__time_getC2ERKNS_12basic_stringIcNS_11char_traitsIcEENS_9allocatorIcEEEE CODE
 0001:00048f60 0000003eH .text$_ZNSt3__110__time_getD2Ev CODE
 0001:00048fa0 00000654H .text$_ZNSt3__118__time_get_storageIcE9__analyzeEcRKNS_5ctypeIcEE CODE
 0001:00049600 00000386H .text$_ZNSt3__114__scan_keywordIPcPNS_12basic_stringIcNS_11char_traitsIcEENS_9allocatorIcEEEENS_5ctypeIcEEEET0_RT_SC_SB_SB_RKT1_Rjb CODE
 0001:00049990 000007d8H .text$_ZNSt3__118__time_get_storageIwE9__analyzeEcRKNS_5ctypeIwEE CODE
 0001:0004a170 00000386H .text$_ZNSt3__114__scan_keywordIPwPNS_12basic_stringIwNS_11char_traitsIwEENS_9allocatorIwEEEENS_5ctypeIwEEEET0_RT_SC_SB_SB_RKT1_Rjb CODE
 0001:0004a500 00000586H .text$_ZNSt3__118__time_get_storageIcE4initERKNS_5ctypeIcEE CODE
 0001:0004aa90 000006a5H .text$_ZNSt3__118__time_get_storageIwE4initERKNS_5ctypeIwEE CODE
 0001:0004b140 0000039bH .text$_ZNSt3__112basic_stringIwNS_11char_traitsIwEENS_9allocatorIwEEE6assignIPwEENS_9enable_ifIXsr27__is_cpp17_forward_iteratorIT_EE5valueERS5_E4typeES9_S9_ CODE
 0001:0004b4e0 0000073eH .text$_ZNSt3__118__time_get_storageIcEC2EPKc CODE
 0001:0004bc20 0000006aH .text$_ZNSt3__112ctype_bynameIcED2Ev CODE
 0001:0004bc90 0000073eH .text$_ZNSt3__118__time_get_storageIcEC2ERKNS_12basic_stringIcNS_11char_traitsIcEENS_9allocatorIcEEEE CODE
 0001:0004c3d0 0000071cH .text$_ZNSt3__118__time_get_storageIwEC2EPKc CODE
 0001:0004caf0 0000004cH .text$_ZNSt3__112ctype_bynameIwED2Ev CODE
 0001:0004cb40 0000071cH .text$_ZNSt3__118__time_get_storageIwEC2ERKNS_12basic_stringIcNS_11char_traitsIcEENS_9allocatorIcEEEE CODE
 0001:0004d260 000002f4H .text$_ZNKSt3__118__time_get_storageIcE15__do_date_orderEv CODE
 0001:0004d560 0000031cH .text$_ZNKSt3__118__time_get_storageIwE15__do_date_orderEv CODE
 0001:0004d880 0000010aH .text$_ZNSt3__110__time_putC2EPKc CODE
 0001:0004d990 000000baH .text$_ZNSt3__110__time_putC2ERKNS_12basic_stringIcNS_11char_traitsIcEENS_9allocatorIcEEEE CODE
 0001:0004da50 0000007bH .text$_ZNSt3__110__time_putD2Ev CODE
 0001:0004dad0 000003cbH .text$_ZNSt3__117moneypunct_bynameIcLb0EE4initEPKc CODE
 0001:0004dea0 000005f8H .text$_ZNSt3__1L10__init_patIcEEvRNS_10money_base7patternERNS_12basic_stringIT_NS_11char_traitsIS5_EENS_9allocatorIS5_EEEEbcccS5_ CODE
 0001:0004e4a0 000003caH .text$_ZNSt3__117moneypunct_bynameIcLb1EE4initEPKc CODE
 0001:0004e870 00000745H .text$_ZNSt3__117moneypunct_bynameIwLb0EE4initEPKc CODE
 0001:0004efc0 000005b8H .text$_ZNSt3__1L10__init_patIwEEvRNS_10money_base7patternERNS_12basic_stringIT_NS_11char_traitsIS5_EENS_9allocatorIS5_EEEEbcccS5_ CODE
 0001:0004f580 00000744H .text$_ZNSt3__117moneypunct_bynameIwLb1EE4initEPKc CODE
 0001:0004fcd0 00000084H .text$_ZNSt3__17codecvtIwc9_MbstatetED2Ev CODE
 0001:0004fd60 0000001aH .text$_ZNSt3__114__codecvt_utf8IwED0Ev CODE
 0001:0004fd80 00000005H .text$_ZNSt3__16locale5facetD2Ev CODE
 0001:0004fd90 0000001aH .text$_ZNSt3__114__codecvt_utf8IDsED0Ev CODE
 0001:0004fdb0 0000001aH .text$_ZNSt3__114__codecvt_utf8IDiED0Ev CODE
 0001:0004fdd0 0000001aH .text$_ZNSt3__115__codecvt_utf16IwLb0EED0Ev CODE
 0001:0004fdf0 0000001aH .text$_ZNSt3__115__codecvt_utf16IwLb1EED0Ev CODE
 0001:0004fe10 0000001aH .text$_ZNSt3__115__codecvt_utf16IDsLb0EED0Ev CODE
 0001:0004fe30 0000001aH .text$_ZNSt3__115__codecvt_utf16IDsLb1EED0Ev CODE
 0001:0004fe50 0000001aH .text$_ZNSt3__115__codecvt_utf16IDiLb0EED0Ev CODE
 0001:0004fe70 0000001aH .text$_ZNSt3__115__codecvt_utf16IDiLb1EED0Ev CODE
 0001:0004fe90 0000001aH .text$_ZNSt3__120__codecvt_utf8_utf16IwED0Ev CODE
 0001:0004feb0 0000001aH .text$_ZNSt3__120__codecvt_utf8_utf16IDiED0Ev CODE
 0001:0004fed0 0000001aH .text$_ZNSt3__120__codecvt_utf8_utf16IDsED0Ev CODE
 0001:0004fef0 0000001aH .text$_ZNSt3__17num_getIcNS_19istreambuf_iteratorIcNS_11char_traitsIcEEEEED0B6v15007Ev CODE
 0001:0004ff10 0000001aH .text$_ZNSt3__17num_getIwNS_19istreambuf_iteratorIwNS_11char_traitsIwEEEEED0B6v15007Ev CODE
 0001:0004ff30 0000001aH .text$_ZNSt3__17num_putIcNS_19ostreambuf_iteratorIcNS_11char_traitsIcEEEEED0B6v15007Ev CODE
 0001:0004ff50 0000001aH .text$_ZNSt3__17num_putIwNS_19ostreambuf_iteratorIwNS_11char_traitsIwEEEEED0B6v15007Ev CODE
 0001:0004ff70 00000005H .text$_ZNSt3__18time_getIcNS_19istreambuf_iteratorIcNS_11char_traitsIcEEEEED2B6v15007Ev CODE
 0001:0004ff80 0000001aH .text$_ZNSt3__18time_getIcNS_19istreambuf_iteratorIcNS_11char_traitsIcEEEEED0B6v15007Ev CODE
 0001:0004ffa0 00000005H .text$_ZNSt3__18time_getIwNS_19istreambuf_iteratorIwNS_11char_traitsIwEEEEED2B6v15007Ev CODE
 0001:0004ffb0 0000001aH .text$_ZNSt3__18time_getIwNS_19istreambuf_iteratorIwNS_11char_traitsIwEEEEED0B6v15007Ev CODE
 0001:0004ffd0 0000001eH .text$_ZNSt3__115time_get_bynameIcNS_19istreambuf_iteratorIcNS_11char_traitsIcEEEEED2B6v15007Ev CODE
 0001:0004fff0 00000026H .text$_ZNSt3__115time_get_bynameIcNS_19istreambuf_iteratorIcNS_11char_traitsIcEEEEED0B6v15007Ev CODE
 0001:00050020 00000009H .text$_ZNKSt3__115time_get_bynameIcNS_19istreambuf_iteratorIcNS_11char_traitsIcEEEEE13do_date_orderB6v15007Ev CODE
 0001:00050030 00000005H .text$_ZNKSt3__115time_get_bynameIcNS_19istreambuf_iteratorIcNS_11char_traitsIcEEEEE7__weeksB6v15007Ev CODE
 0001:00050040 00000008H .text$_ZNKSt3__115time_get_bynameIcNS_19istreambuf_iteratorIcNS_11char_traitsIcEEEEE8__monthsB6v15007Ev CODE
 0001:00050050 00000008H .text$_ZNKSt3__115time_get_bynameIcNS_19istreambuf_iteratorIcNS_11char_traitsIcEEEEE7__am_pmB6v15007Ev CODE
 0001:00050060 00000008H .text$_ZNKSt3__115time_get_bynameIcNS_19istreambuf_iteratorIcNS_11char_traitsIcEEEEE3__cB6v15007Ev CODE
 0001:00050070 00000008H .text$_ZNKSt3__115time_get_bynameIcNS_19istreambuf_iteratorIcNS_11char_traitsIcEEEEE3__rB6v15007Ev CODE
 0001:00050080 00000008H .text$_ZNKSt3__115time_get_bynameIcNS_19istreambuf_iteratorIcNS_11char_traitsIcEEEEE3__xB6v15007Ev CODE
 0001:00050090 00000008H .text$_ZNKSt3__115time_get_bynameIcNS_19istreambuf_iteratorIcNS_11char_traitsIcEEEEE3__XB6v15007Ev CODE
 0001:000500a0 00000005H .text$_ZThn16_NKSt3__115time_get_bynameIcNS_19istreambuf_iteratorIcNS_11char_traitsIcEEEEE7__weeksB6v15007Ev CODE
 0001:000500b0 00000008H .text$_ZThn16_NKSt3__115time_get_bynameIcNS_19istreambuf_iteratorIcNS_11char_traitsIcEEEEE8__monthsB6v15007Ev CODE
 0001:000500c0 00000008H .text$_ZThn16_NKSt3__115time_get_bynameIcNS_19istreambuf_iteratorIcNS_11char_traitsIcEEEEE7__am_pmB6v15007Ev CODE
 0001:000500d0 00000008H .text$_ZThn16_NKSt3__115time_get_bynameIcNS_19istreambuf_iteratorIcNS_11char_traitsIcEEEEE3__cB6v15007Ev CODE
 0001:000500e0 00000008H .text$_ZThn16_NKSt3__115time_get_bynameIcNS_19istreambuf_iteratorIcNS_11char_traitsIcEEEEE3__rB6v15007Ev CODE
 0001:000500f0 00000008H .text$_ZThn16_NKSt3__115time_get_bynameIcNS_19istreambuf_iteratorIcNS_11char_traitsIcEEEEE3__xB6v15007Ev CODE
 0001:00050100 00000008H .text$_ZThn16_NKSt3__115time_get_bynameIcNS_19istreambuf_iteratorIcNS_11char_traitsIcEEEEE3__XB6v15007Ev CODE
 0001:00050110 0000001eH .text$_ZNSt3__115time_get_bynameIwNS_19istreambuf_iteratorIwNS_11char_traitsIwEEEEED2B6v15007Ev CODE
 0001:00050130 00000026H .text$_ZNSt3__115time_get_bynameIwNS_19istreambuf_iteratorIwNS_11char_traitsIwEEEEED0B6v15007Ev CODE
 0001:00050160 00000009H .text$_ZNKSt3__115time_get_bynameIwNS_19istreambuf_iteratorIwNS_11char_traitsIwEEEEE13do_date_orderB6v15007Ev CODE
 0001:00050170 00000005H .text$_ZNKSt3__115time_get_bynameIwNS_19istreambuf_iteratorIwNS_11char_traitsIwEEEEE7__weeksB6v15007Ev CODE
 0001:00050180 00000008H .text$_ZNKSt3__115time_get_bynameIwNS_19istreambuf_iteratorIwNS_11char_traitsIwEEEEE8__monthsB6v15007Ev CODE
 0001:00050190 00000008H .text$_ZNKSt3__115time_get_bynameIwNS_19istreambuf_iteratorIwNS_11char_traitsIwEEEEE7__am_pmB6v15007Ev CODE
 0001:000501a0 00000008H .text$_ZNKSt3__115time_get_bynameIwNS_19istreambuf_iteratorIwNS_11char_traitsIwEEEEE3__cB6v15007Ev CODE
 0001:000501b0 00000008H .text$_ZNKSt3__115time_get_bynameIwNS_19istreambuf_iteratorIwNS_11char_traitsIwEEEEE3__rB6v15007Ev CODE
 0001:000501c0 00000008H .text$_ZNKSt3__115time_get_bynameIwNS_19istreambuf_iteratorIwNS_11char_traitsIwEEEEE3__xB6v15007Ev CODE
 0001:000501d0 00000008H .text$_ZNKSt3__115time_get_bynameIwNS_19istreambuf_iteratorIwNS_11char_traitsIwEEEEE3__XB6v15007Ev CODE
 0001:000501e0 00000005H .text$_ZThn16_NKSt3__115time_get_bynameIwNS_19istreambuf_iteratorIwNS_11char_traitsIwEEEEE7__weeksB6v15007Ev CODE
 0001:000501f0 00000008H .text$_ZThn16_NKSt3__115time_get_bynameIwNS_19istreambuf_iteratorIwNS_11char_traitsIwEEEEE8__monthsB6v15007Ev CODE
 0001:00050200 00000008H .text$_ZThn16_NKSt3__115time_get_bynameIwNS_19istreambuf_iteratorIwNS_11char_traitsIwEEEEE7__am_pmB6v15007Ev CODE
 0001:00050210 00000008H .text$_ZThn16_NKSt3__115time_get_bynameIwNS_19istreambuf_iteratorIwNS_11char_traitsIwEEEEE3__cB6v15007Ev CODE
 0001:00050220 00000008H .text$_ZThn16_NKSt3__115time_get_bynameIwNS_19istreambuf_iteratorIwNS_11char_traitsIwEEEEE3__rB6v15007Ev CODE
 0001:00050230 00000008H .text$_ZThn16_NKSt3__115time_get_bynameIwNS_19istreambuf_iteratorIwNS_11char_traitsIwEEEEE3__xB6v15007Ev CODE
 0001:00050240 00000008H .text$_ZThn16_NKSt3__115time_get_bynameIwNS_19istreambuf_iteratorIwNS_11char_traitsIwEEEEE3__XB6v15007Ev CODE
 0001:00050250 0000001eH .text$_ZNSt3__18time_putIcNS_19ostreambuf_iteratorIcNS_11char_traitsIcEEEEED2B6v15007Ev CODE
 0001:00050270 00000026H .text$_ZNSt3__18time_putIcNS_19ostreambuf_iteratorIcNS_11char_traitsIcEEEEED0B6v15007Ev CODE
 0001:000502a0 00000026H .text$_ZNSt3__18time_putIwNS_19ostreambuf_iteratorIwNS_11char_traitsIwEEEEED0B6v15007Ev CODE
 0001:000502d0 00000026H .text$_ZNSt3__115time_put_bynameIcNS_19ostreambuf_iteratorIcNS_11char_traitsIcEEEEED0B6v15007Ev CODE
 0001:00050300 0000001eH .text$_ZNSt3__18time_putIwNS_19ostreambuf_iteratorIwNS_11char_traitsIwEEEEED2B6v15007Ev CODE
 0001:00050320 00000026H .text$_ZNSt3__115time_put_bynameIwNS_19ostreambuf_iteratorIwNS_11char_traitsIwEEEEED0B6v15007Ev CODE
 0001:00050350 0000001aH .text$_ZNSt3__110moneypunctIcLb0EED0B6v15007Ev CODE
 0001:00050370 0000001aH .text$_ZNSt3__110moneypunctIcLb1EED0B6v15007Ev CODE
 0001:00050390 0000001aH .text$_ZNSt3__110moneypunctIwLb0EED0B6v15007Ev CODE
 0001:000503b0 0000001aH .text$_ZNSt3__110moneypunctIwLb1EED0B6v15007Ev CODE
 0001:000503d0 0000006fH .text$_ZNSt3__117moneypunct_bynameIcLb0EED2B6v15007Ev CODE
 0001:00050440 00000077H .text$_ZNSt3__117moneypunct_bynameIcLb0EED0B6v15007Ev CODE
 0001:000504c0 0000006fH .text$_ZNSt3__117moneypunct_bynameIcLb1EED2B6v15007Ev CODE
 0001:00050530 00000077H .text$_ZNSt3__117moneypunct_bynameIcLb1EED0B6v15007Ev CODE
 0001:000505b0 0000006fH .text$_ZNSt3__117moneypunct_bynameIwLb0EED2B6v15007Ev CODE
 0001:00050620 00000077H .text$_ZNSt3__117moneypunct_bynameIwLb0EED0B6v15007Ev CODE
 0001:000506a0 0000006fH .text$_ZNSt3__117moneypunct_bynameIwLb1EED2B6v15007Ev CODE
 0001:00050710 00000077H .text$_ZNSt3__117moneypunct_bynameIwLb1EED0B6v15007Ev CODE
 0001:00050790 0000001aH .text$_ZNSt3__19money_getIcNS_19istreambuf_iteratorIcNS_11char_traitsIcEEEEED0B6v15007Ev CODE
 0001:000507b0 0000001aH .text$_ZNSt3__19money_getIwNS_19istreambuf_iteratorIwNS_11char_traitsIwEEEEED0B6v15007Ev CODE
 0001:000507d0 0000001aH .text$_ZNSt3__19money_putIcNS_19ostreambuf_iteratorIcNS_11char_traitsIcEEEEED0B6v15007Ev CODE
 0001:000507f0 0000001aH .text$_ZNSt3__19money_putIwNS_19ostreambuf_iteratorIwNS_11char_traitsIwEEEEED0B6v15007Ev CODE
 0001:00050810 0000001aH .text$_ZNSt3__18messagesIcED0B6v15007Ev CODE
 0001:00050830 0000001aH .text$_ZNSt3__18messagesIwED0B6v15007Ev CODE
 0001:00050850 0000001aH .text$_ZNSt3__115messages_bynameIcED0B6v15007Ev CODE
 0001:00050870 0000001aH .text$_ZNSt3__115messages_bynameIwED0B6v15007Ev CODE
 0001:00050890 0000002cH .text$_ZNSt3__113__transactionINS_6vectorIPNS_6locale5facetENS_15__sso_allocatorIS4_Ly30EEEE16__destroy_vectorEED2B6v15007Ev CODE
 0001:000508c0 00000011H .text$_ZNKSt3__16vectorIPNS_6locale5facetENS_15__sso_allocatorIS3_Ly30EEEE20__throw_length_errorB6v15007Ev CODE
 0001:000508e0 00000331H .text$_ZNSt3__16vectorIPNS_6locale5facetENS_15__sso_allocatorIS3_Ly30EEEE6assignIPS3_EENS_9enable_ifIXaasr27__is_cpp17_forward_iteratorIT_EE5valuesr16is_constructibleIS3_NS_15iterator_traitsISA_E9referenceEEE5valueEvE4typeESA_SA_ CODE
 0001:00050c20 00000154H .text$_ZNSt3__16vectorIPNS_6locale5facetENS_15__sso_allocatorIS3_Ly30EEEE8__appendEy CODE
 0001:00050d80 00000214H .text$__dtor__ZZNSt3__1L10init_weeksEvE5weeks CODE
 0001:00050fa0 00000214H .text$__dtor__ZZNSt3__1L11init_wweeksEvE5weeks CODE
 0001:000511c0 00000390H .text$__dtor__ZZNSt3__1L11init_monthsEvE6months CODE
 0001:00051550 00000390H .text$__dtor__ZZNSt3__1L12init_wmonthsEvE6months CODE
 0001:000518e0 00000037H .text$__dtor__ZZNSt3__1L10init_am_pmEvE5am_pm CODE
 0001:00051920 00000037H .text$__dtor__ZZNSt3__1L11init_wam_pmEvE5am_pm CODE
 0001:00051960 00000020H .text$_ZNSt3__117__call_once_proxyB6v15007INS_5tupleIJONS_12_GLOBAL__N_111__fake_bindEEEEEEvPv CODE
 0001:00051980 00000072H .text$_ZNSt3__115__time_get_tempIcED0Ev CODE
 0001:00051a00 00000054H .text$_ZNSt3__115__time_get_tempIwED0Ev CODE
 0001:00051a60 0000008aH .text$_ZNSt3__112basic_stringIcNS_11char_traitsIcEENS_9allocatorIcEEE5eraseB6v15007ENS_11__wrap_iterIPKcEE CODE
 0001:00051af0 00000090H .text$_ZNSt3__112basic_stringIwNS_11char_traitsIwEENS_9allocatorIwEEE5eraseB6v15007ENS_11__wrap_iterIPKwEE CODE
 0001:00051b80 0000010dH .text$_ZNSt3__125__num_get_signed_integralIlEET_PKcS3_Rji CODE
 0001:00051c90 000000ddH .text$_ZNSt3__125__num_get_signed_integralIxEET_PKcS3_Rji CODE
 0001:00051d70 00000103H .text$_ZNSt3__127__num_get_unsigned_integralItEET_PKcS3_Rji CODE
 0001:00051e80 000000f9H .text$_ZNSt3__127__num_get_unsigned_integralIjEET_PKcS3_Rji CODE
 0001:00051f80 000000f9H .text$_ZNSt3__127__num_get_unsigned_integralImEET_PKcS3_Rji CODE
 0001:00052080 000000f7H .text$_ZNSt3__127__num_get_unsigned_integralIyEET_PKcS3_Rji CODE
 0001:00052180 000000d8H .text$_ZNSt3__115__num_get_floatIfEET_PKcS3_Rj CODE
 0001:00052260 000000d1H .text$_ZNSt3__115__num_get_floatIdEET_PKcS3_Rj CODE
 0001:00052340 000000d8H .text$_ZNSt3__115__num_get_floatIeEET_PKcS3_Rj CODE
 0001:00052420 00000693H .text$_ZNSt3__118__time_get_storageIcED2B6v15007Ev CODE
 0001:00052ac0 00000693H .text$_ZNSt3__118__time_get_storageIwED2B6v15007Ev CODE
 0001:00053154 00000000H .text                   CODE
 0001:00053160 00000710H .text$_GCC_specific_handler CODE
 0001:00053870 00000092H .text$__libunwind_seh_personality CODE
 0001:00053910 0000006cH .text$_Unwind_RaiseException CODE
 0001:00053980 00000314H .text$_Unwind_Resume    CODE
 0001:00053ca0 000002bdH .text$_ZL20unwind_phase2_forcedP13unw_context_tP17_Unwind_ExceptionPF19_Unwind_Reason_Codei14_Unwind_ActionyS2_P15_Unwind_ContextPvES7_ CODE
 0001:00053f60 00000075H .text$_Unwind_ForcedUnwind CODE
 0001:00053fe0 00000042H .text$_Unwind_GetLanguageSpecificData CODE
 0001:00054030 00000045H .text$_Unwind_GetRegionStart CODE
 0001:00054080 00000001H .text$_ZN9libunwind20AbstractUnwindCursorD2Ev CODE
 0001:00054090 00000001H .text$_ZN9libunwind12UnwindCursorINS_17LocalAddressSpaceENS_16Registers_x86_64EED0Ev CODE
 0001:000540a0 0000000aH .text$_ZN9libunwind12UnwindCursorINS_17LocalAddressSpaceENS_16Registers_x86_64EE8validRegEi CODE
 0001:000540b0 000001a8H .text$_ZN9libunwind12UnwindCursorINS_17LocalAddressSpaceENS_16Registers_x86_64EE6getRegEi CODE
 0001:00054260 00000174H .text$_ZN9libunwind12UnwindCursorINS_17LocalAddressSpaceENS_16Registers_x86_64EE6setRegEiy CODE
 0001:000543e0 00000003H .text$_ZN9libunwind12UnwindCursorINS_17LocalAddressSpaceENS_16Registers_x86_64EE13validFloatRegEi CODE
 0001:000543f0 00000043H .text$_ZN9libunwind12UnwindCursorINS_17LocalAddressSpaceENS_16Registers_x86_64EE11getFloatRegEi CODE
 0001:00054440 00000043H .text$_ZN9libunwind12UnwindCursorINS_17LocalAddressSpaceENS_16Registers_x86_64EE11setFloatRegEid CODE
 0001:00054490 00000099H .text$_ZN9libunwind12UnwindCursorINS_17LocalAddressSpaceENS_16Registers_x86_64EE4stepEv CODE
 0001:00054530 0000004cH .text$_ZN9libunwind12UnwindCursorINS_17LocalAddressSpaceENS_16Registers_x86_64EE7getInfoEP15unw_proc_info_t CODE
 0001:00054580 0000000eH .text$_ZN9libunwind12UnwindCursorINS_17LocalAddressSpaceENS_16Registers_x86_64EE6jumptoEv CODE
 0001:00054590 00000003H .text$_ZN9libunwind12UnwindCursorINS_17LocalAddressSpaceENS_16Registers_x86_64EE13isSignalFrameEv CODE
 0001:000545a0 00000016H .text$_ZN9libunwind12UnwindCursorINS_17LocalAddressSpaceENS_16Registers_x86_64EE15getFunctionNameEPcyPy CODE
 0001:000545c0 0000003eH .text$_ZN9libunwind12UnwindCursorINS_17LocalAddressSpaceENS_16Registers_x86_64EE24setInfoBasedOnIPRegisterEb CODE
 0001:00054600 00000022H .text$_ZN9libunwind12UnwindCursorINS_17LocalAddressSpaceENS_16Registers_x86_64EE15getRegisterNameEi CODE
 0001:00054630 000000e9H .text$_ZN9libunwind12UnwindCursorINS_17LocalAddressSpaceENS_16Registers_x86_64EE14getInfoFromSEHEy CODE
 0001:00054720 00000adcH .text                   CODE
 0001:00055200 00000086H .text$__cxa_get_globals CODE
 0001:00055290 00000037H .text$__cxa_get_globals_fast CODE
 0001:000552d0 0000002dH .text$_ZN10__cxxabiv112_GLOBAL__N_110construct_Ev CODE
 0001:00055300 0000002cH .text$_ZN10__cxxabiv112_GLOBAL__N_19destruct_EPv CODE
 0001:0005532c 00000000H .text                   CODE
 0001:00055330 0000007cH .text$abort_message     CODE
 0001:000553ac 00000000H .text                   CODE
 0001:000553b0 00000127H .text$_ZL28demangling_terminate_handlerv CODE
 0001:000554e0 00000018H .text$_ZL29demangling_unexpected_handlerv CODE
 0001:00055500 00000016H .text$_ZSt14set_unexpectedPFvvE CODE
 0001:00055520 00000016H .text$_ZSt13set_terminatePFvvE CODE
 0001:00055540 0000000bH .text$_ZSt15set_new_handlerPFvvE CODE
 0001:00055550 00000005H .text$_ZZL8demanglePKcEN3$_08__invokeES0_ CODE
 0001:00055560 00000001H .text$_ZZL8demanglePKcEN3$_18__invokeES0_ CODE
 0001:00055564 00000000H .text                   CODE
 0001:00055570 0000010aH .text$_ZN10__cxxabiv130__aligned_malloc_with_fallbackEy CODE
 0001:00055680 00000123H .text$_ZN10__cxxabiv122__calloc_with_fallbackEyy CODE
 0001:000557b0 0000010aH .text$_ZN10__cxxabiv128__aligned_free_with_fallbackEPv CODE
 0001:000558c0 0000010aH .text$_ZN10__cxxabiv120__free_with_fallbackEPv CODE
 0001:000559cc 00000000H .text                   CODE
 0001:000559d0 00000010H .text$_Z27delphi_exception_destructorPv CODE
 0001:000559e0 0000000fH .text$_Z27get_delphi_type_from_objectPv CODE
 0001:000559f0 0000002eH .text$_Z24is_delphi_type_inheritedPKvS0_ CODE
 0001:00055a20 00000016H .text$__delphi_init_eh  CODE
 0001:00055a40 0000000bH .text$_Z14is_delphi_typePKv CODE
 0001:00055a50 0000000aH .text$__throw_as_delphi CODE
 0001:00055a60 00000001H .text$_CPPDbgExcNotify  CODE
 0001:00055a70 00000040H .text$_ZN6System14_RaiseAtExceptEPNS_7TObjectEPv CODE
 0001:00055ab0 00000000H .text                   CODE
 0001:00055ab0 00000049H .text$_Z13__notifyThrowPvPSt9type_infoS_ CODE
 0001:00055afc 00000000H .text                   CODE
 0001:00055b00 0000004dH .text$_Unwind_DeleteException CODE
 0001:00055b50 00000053H .text$_Unwind_GetGR     CODE
 0001:00055bb0 00000050H .text$_Unwind_SetGR     CODE
 0001:00055c00 0000004cH .text$_Unwind_GetIP     CODE
 0001:00055c50 0000004aH .text$_Unwind_SetIP     CODE
 0001:00055ca0 00000004H .text                   CODE
 0001:00055cb0 00000001H .text$_ZNSt9exceptionD2Ev CODE
 0001:00055cc0 00000005H .text$_ZNSt9exceptionD0Ev CODE
 0001:00055cd0 00000008H .text$_ZNKSt9exception4whatEv CODE
 0001:00055ce0 00000005H .text$_ZNSt13bad_exceptionD0Ev CODE
 0001:00055cf0 00000008H .text$_ZNKSt13bad_exception4whatEv CODE
 0001:00055d00 0000000bH .text$_ZNSt9bad_allocC2Ev CODE
 0001:00055d10 00000005H .text$_ZNSt9bad_allocD0Ev CODE
 0001:00055d20 00000008H .text$_ZNKSt9bad_alloc4whatEv CODE
 0001:00055d30 0000000bH .text$_ZNSt20bad_array_new_lengthC2Ev CODE
 0001:00055d40 00000005H .text$_ZNSt20bad_array_new_lengthD0Ev CODE
 0001:00055d50 00000008H .text$_ZNKSt20bad_array_new_length4whatEv CODE
 0001:00055d58 00000000H .text                   CODE
 0001:00055d60 00000005H .text$_ZN10__cxxabiv116__shim_type_infoD2Ev CODE
 0001:00055d70 00000002H .text$_ZN10__cxxabiv116__shim_type_infoD0Ev CODE
 0001:00055d80 00000001H .text$_ZNK10__cxxabiv116__shim_type_info5noop1Ev CODE
 0001:00055d90 00000001H .text$_ZNK10__cxxabiv116__shim_type_info5noop2Ev CODE
 0001:00055da0 0000001aH .text$_ZN10__cxxabiv123__fundamental_type_infoD0Ev CODE
 0001:00055dc0 0000001aH .text$_ZN10__cxxabiv117__array_type_infoD0Ev CODE
 0001:00055de0 0000001aH .text$_ZN10__cxxabiv120__function_type_infoD0Ev CODE
 0001:00055e00 0000001aH .text$_ZN10__cxxabiv116__enum_type_infoD0Ev CODE
 0001:00055e20 0000001aH .text$_ZN10__cxxabiv117__class_type_infoD0Ev CODE
 0001:00055e40 0000001aH .text$_ZN10__cxxabiv120__si_class_type_infoD0Ev CODE
 0001:00055e60 0000001aH .text$_ZN10__cxxabiv121__vmi_class_type_infoD0Ev CODE
 0001:00055e80 0000001aH .text$_ZN10__cxxabiv117__pbase_type_infoD0Ev CODE
 0001:00055ea0 0000001aH .text$_ZN10__cxxabiv119__pointer_type_infoD0Ev CODE
 0001:00055ec0 0000001aH .text$_ZN10__cxxabiv129__pointer_to_member_type_infoD0Ev CODE
 0001:00055ee0 00000027H .text$_ZNK10__cxxabiv123__fundamental_type_info9can_catchEPKNS_16__shim_type_infoERPv CODE
 0001:00055f10 00000003H .text$_ZNK10__cxxabiv117__array_type_info9can_catchEPKNS_16__shim_type_infoERPv CODE
 0001:00055f20 00000003H .text$_ZNK10__cxxabiv120__function_type_info9can_catchEPKNS_16__shim_type_infoERPv CODE
 0001:00055f30 00000027H .text$_ZNK10__cxxabiv116__enum_type_info9can_catchEPKNS_16__shim_type_infoERPv CODE
 0001:00055f60 000000bfH .text$_ZNK10__cxxabiv117__class_type_info9can_catchEPKNS_16__shim_type_infoERPv CODE
 0001:00056020 00000108H .text$__dynamic_cast    CODE
 0001:00056130 00000038H .text$_ZNK10__cxxabiv117__class_type_info24process_found_base_classEPNS_19__dynamic_cast_infoEPvi CODE
 0001:00056170 00000069H .text$_ZNK10__cxxabiv117__class_type_info27has_unambiguous_public_baseEPNS_19__dynamic_cast_infoEPvi CODE
 0001:000561e0 0000008dH .text$_ZNK10__cxxabiv120__si_class_type_info27has_unambiguous_public_baseEPNS_19__dynamic_cast_infoEPvi CODE
 0001:00056270 00000041H .text$_ZNK10__cxxabiv122__base_class_type_info27has_unambiguous_public_baseEPNS_19__dynamic_cast_infoEPvi CODE
 0001:000562c0 0000017aH .text$_ZNK10__cxxabiv121__vmi_class_type_info27has_unambiguous_public_baseEPNS_19__dynamic_cast_infoEPvi CODE
 0001:00056440 00000074H .text$_ZNK10__cxxabiv117__pbase_type_info9can_catchEPKNS_16__shim_type_infoERPv CODE
 0001:000564c0 000002b0H .text$_ZNK10__cxxabiv119__pointer_type_info9can_catchEPKNS_16__shim_type_infoERPv CODE
 0001:00056770 000000eeH .text$_ZNK10__cxxabiv119__pointer_type_info16can_catch_nestedEPKNS_16__shim_type_infoE CODE
 0001:00056860 00000090H .text$_ZNK10__cxxabiv129__pointer_to_member_type_info16can_catch_nestedEPKNS_16__shim_type_infoE CODE
 0001:000568f0 00000164H .text$_ZNK10__cxxabiv129__pointer_to_member_type_info9can_catchEPKNS_16__shim_type_infoERPv CODE
 0001:00056a60 0000005eH .text$_ZNK10__cxxabiv117__class_type_info29process_static_type_above_dstEPNS_19__dynamic_cast_infoEPKvS4_i CODE
 0001:00056ac0 00000012H .text$_ZNK10__cxxabiv117__class_type_info29process_static_type_below_dstEPNS_19__dynamic_cast_infoEPKvi CODE
 0001:00056ae0 00000367H .text$_ZNK10__cxxabiv121__vmi_class_type_info16search_below_dstEPNS_19__dynamic_cast_infoEPKvib CODE
 0001:00056e50 00000050H .text$_ZNK10__cxxabiv122__base_class_type_info16search_above_dstEPNS_19__dynamic_cast_infoEPKvS4_ib CODE
 0001:00056ea0 00000037H .text$_ZNK10__cxxabiv122__base_class_type_info16search_below_dstEPNS_19__dynamic_cast_infoEPKvib CODE
 0001:00056ee0 0000014aH .text$_ZNK10__cxxabiv120__si_class_type_info16search_below_dstEPNS_19__dynamic_cast_infoEPKvib CODE
 0001:00057030 000000e7H .text$_ZNK10__cxxabiv117__class_type_info16search_below_dstEPNS_19__dynamic_cast_infoEPKvib CODE
 0001:00057120 000001f9H .text$_ZNK10__cxxabiv121__vmi_class_type_info16search_above_dstEPNS_19__dynamic_cast_infoEPKvS4_ib CODE
 0001:00057320 000000ceH .text$_ZNK10__cxxabiv120__si_class_type_info16search_above_dstEPNS_19__dynamic_cast_infoEPKvS4_ib CODE
 0001:000573f0 000000a4H .text$_ZNK10__cxxabiv117__class_type_info16search_above_dstEPNS_19__dynamic_cast_infoEPKvS4_ib CODE
 0001:00057494 00000000H .text                   CODE
 0001:000574a0 0000006bH .text$_Znwy             CODE
 0001:00057510 0000002cH .text$_ZnwyRKSt9nothrow_t CODE
 0001:00057540 00000005H .text$_Znay             CODE
 0001:00057550 0000002cH .text$_ZnayRKSt9nothrow_t CODE
 0001:00057580 00000005H .text$_ZdlPv            CODE
 0001:00057590 00000005H .text$_ZdlPvRKSt9nothrow_t CODE
 0001:000575a0 00000005H .text$_ZdlPvy           CODE
 0001:000575b0 00000005H .text$_ZdaPv            CODE
 0001:000575c0 00000005H .text$_ZdaPvRKSt9nothrow_t CODE
 0001:000575d0 00000005H .text$_ZdaPvy           CODE
 0001:000575e0 00000071H .text$_ZnwySt11align_val_t CODE
 0001:00057660 0000002cH .text$_ZnwySt11align_val_tRKSt9nothrow_t CODE
 0001:00057690 00000005H .text$_ZnaySt11align_val_t CODE
 0001:000576a0 0000002cH .text$_ZnaySt11align_val_tRKSt9nothrow_t CODE
 0001:000576d0 00000018H .text$_ZdlPvSt11align_val_t CODE
 0001:000576f0 00000005H .text$_ZdlPvSt11align_val_tRKSt9nothrow_t CODE
 0001:00057700 00000008H .text$_ZdlPvySt11align_val_t CODE
 0001:00057710 00000005H .text$_ZdaPvSt11align_val_t CODE
 0001:00057720 00000005H .text$_ZdaPvSt11align_val_tRKSt9nothrow_t CODE
 0001:00057730 00000008H .text$_ZdaPvySt11align_val_t CODE
 0001:00057738 00000000H .text                   CODE
 0001:00057740 0000003aH .text$_ZNSt11logic_errorD2Ev CODE
 0001:00057780 00000042H .text$_ZNSt11logic_errorD0Ev CODE
 0001:000577d0 00000005H .text$_ZNKSt11logic_error4whatEv CODE
 0001:000577e0 0000003aH .text$_ZNSt13runtime_errorD2Ev CODE
 0001:00057820 00000042H .text$_ZNSt13runtime_errorD0Ev CODE
 0001:00057870 00000005H .text$_ZNKSt13runtime_error4whatEv CODE
 0001:00057880 00000042H .text$_ZNSt12domain_errorD0Ev CODE
 0001:000578d0 00000042H .text$_ZNSt16invalid_argumentD0Ev CODE
 0001:00057920 00000042H .text$_ZNSt12length_errorD0Ev CODE
 0001:00057970 00000042H .text$_ZNSt12out_of_rangeD0Ev CODE
 0001:000579c0 00000042H .text$_ZNSt11range_errorD0Ev CODE
 0001:00057a10 00000042H .text$_ZNSt14overflow_errorD0Ev CODE
 0001:00057a60 00000042H .text$_ZNSt15underflow_errorD0Ev CODE
 0001:00057ab0 0000031cH .text                   CODE
 0001:00057dd0 00000087H .text$_ZNSt11logic_errorC2ERKNSt3__112basic_stringIcNS0_11char_traitsIcEENS0_9allocatorIcEEEE CODE
 0001:00057e60 00000079H .text$_ZNSt11logic_errorC2EPKc CODE
 0001:00057ee0 0000001bH .text$_ZNSt11logic_errorC2ERKS_ CODE
 0001:00057f00 00000038H .text$_ZNSt11logic_erroraSERKS_ CODE
 0001:00057f40 00000087H .text$_ZNSt13runtime_errorC2ERKNSt3__112basic_stringIcNS0_11char_traitsIcEENS0_9allocatorIcEEEE CODE
 0001:00057fd0 00000079H .text$_ZNSt13runtime_errorC2EPKc CODE
 0001:00058050 0000001bH .text$_ZNSt13runtime_errorC2ERKS_ CODE
 0001:00058070 00000038H .text$_ZNSt13runtime_erroraSERKS_ CODE
 0001:000580a8 00000000H .text                   CODE
 0001:000580b0 00000002H .text$_ZNSt3__114error_categoryD0Ev CODE
 0001:000580c0 0000000bH .text$_ZNKSt3__114error_category23default_error_conditionEi CODE
 0001:000580d0 00000033H .text$_ZNKSt3__114error_category10equivalentEiRKNS_15error_conditionE CODE
 0001:00058110 00000010H .text$_ZNKSt3__114error_category10equivalentERKNS_10error_codeEi CODE
 0001:00058120 000000d0H .text$_ZNKSt3__112__do_message7messageEi CODE
 0001:000581f0 00000008H .text$_ZNKSt3__124__generic_error_category4nameEv CODE
 0001:00058200 00000063H .text$_ZNKSt3__124__generic_error_category7messageEi CODE
 0001:00058270 0000004fH .text$_ZNSt3__116generic_categoryEv CODE
 0001:000582c0 00000001H .text$__dtor__ZZNSt3__116generic_categoryEvE1s CODE
 0001:000582d0 00000008H .text$_ZNKSt3__123__system_error_category4nameEv CODE
 0001:000582e0 0000005fH .text$_ZNKSt3__123__system_error_category7messageEi CODE
 0001:00058340 000000adH .text$_ZNKSt3__123__system_error_category23default_error_conditionEi CODE
 0001:000583f0 0000004fH .text$_ZNSt3__115system_categoryEv CODE
 0001:00058440 00000001H .text$__dtor__ZZNSt3__115system_categoryEvE1s CODE
 0001:00058450 00000022H .text$_ZNKSt3__115error_condition7messageEv CODE
 0001:00058480 00000022H .text$_ZNKSt3__110error_code7messageEv CODE
 0001:000584b0 000000d6H .text$_ZNSt3__112system_error6__initERKNS_10error_codeENS_12basic_stringIcNS_11char_traitsIcEENS_9allocatorIcEEEE CODE
 0001:00058590 00000137H .text$_ZNSt3__112system_errorC2ENS_10error_codeERKNS_12basic_stringIcNS_11char_traitsIcEENS_9allocatorIcEEEE CODE
 0001:000586d0 00000137H .text$_ZNSt3__112system_errorC2ENS_10error_codeEPKc CODE
 0001:00058810 000000b2H .text$_ZNSt3__112system_errorC2ENS_10error_codeE CODE
 0001:000588d0 00000145H .text$_ZNSt3__112system_errorC2EiRKNS_14error_categoryERKNS_12basic_stringIcNS_11char_traitsIcEENS_9allocatorIcEEEE CODE
 0001:00058a20 00000147H .text$_ZNSt3__112system_errorC2EiRKNS_14error_categoryEPKc CODE
 0001:00058b70 000000c4H .text$_ZNSt3__112system_errorC2EiRKNS_14error_categoryE CODE
 0001:00058c40 00000005H .text$_ZNSt3__112system_errorD2Ev CODE
 0001:00058c50 0000001aH .text$_ZNSt3__112system_errorD0Ev CODE
 0001:00058c70 00000098H .text$_ZNSt3__120__throw_system_errorEiPKc CODE
 0001:00058d10 00000001H .text$_ZNSt3__114error_categoryD2Ev CODE
 0001:00058d20 00000002H .text$_ZNSt3__112__do_messageD0Ev CODE
 0001:00058d30 00000005H .text$_ZNSt3__124__generic_error_categoryD0Ev CODE
 0001:00058d40 00000005H .text$_ZNSt3__123__system_error_categoryD0Ev CODE
 0001:00058d48 00000000H .text                   CODE
 0001:00058d48 000000d7H .text$unlikely$__cxa_guard_acquire CODE
 0001:00058e1f 00000087H .text$unlikely$__cxa_guard_release CODE
 0001:00058ea6 00000084H .text$unlikely$__cxa_guard_abort CODE
 0001:00058f2c 00000000H .text                   CODE
 0001:00058f30 00000031H .text$_ZSt17__throw_bad_allocv CODE
 0001:00058f64 00000000H .text                   CODE
 0001:00058f70 00000001H .text$_ZNSt9type_infoD2Ev CODE
 0001:00058f80 00000005H .text$_ZNSt9type_infoD0Ev CODE
 0001:00058f90 0000000bH .text$_ZNSt8bad_castC2Ev CODE
 0001:00058fa0 00000005H .text$_ZNSt8bad_castD2Ev CODE
 0001:00058fb0 0000001aH .text$_ZNSt8bad_castD0Ev CODE
 0001:00058fd0 00000008H .text$_ZNKSt8bad_cast4whatEv CODE
 0001:00058fe0 0000000bH .text$_ZNSt10bad_typeidC2Ev CODE
 0001:00058ff0 00000005H .text$_ZNSt10bad_typeidD2Ev CODE
 0001:00059000 0000001aH .text$_ZNSt10bad_typeidD0Ev CODE
 0001:00059020 00000008H .text$_ZNKSt10bad_typeid4whatEv CODE
 0001:00059028 00000000H .text                   CODE
 0001:00059030 0000002fH .text$_Z9newlocaleiPKc8locale_t CODE
 0001:00059060 000000afH .text$_Z12MB_CUR_MAX_L8locale_t CODE
 0001:00059110 00000042H .text$_ZNSt3__121__libcpp_locale_guardD2Ev CODE
 0001:00059160 0000010dH .text$_Z12localeconv_lR8locale_t CODE
 0001:00059270 000000ccH .text$_Z8mbrlen_lPKcyP9_Mbstatet8locale_t CODE
 0001:00059340 000000ddH .text$_Z11mbsrtowcs_lPwPPKcyP9_Mbstatet8locale_t CODE
 0001:00059420 000000caH .text$_Z9wcrtomb_lPcwP9_Mbstatet8locale_t CODE
 0001:000594f0 000000ddH .text$_Z9mbrtowc_lPwPKcyP9_Mbstatet8locale_t CODE
 0001:000595d0 000000eeH .text$_Z12mbsnrtowcs_lPwPPKcyyP9_Mbstatet8locale_t CODE
 0001:000596c0 000000eeH .text$_Z12wcsnrtombs_lPcPPKwyyP9_Mbstatet8locale_t CODE
 0001:000597b0 000000b5H .text$_Z7btowc_li8locale_t CODE
 0001:00059870 000000b5H .text$_Z7wctob_lt8locale_t CODE
 0001:00059930 000000c7H .text$_Z10snprintf_lPcy8locale_tPKcz CODE
 0001:00059a00 0000004cH .text$_Z10asprintf_lPPc8locale_tPKcz CODE
 0001:00059a50 000000c9H .text$_Z11vasprintf_lPPc8locale_tPKcS_ CODE
 0001:00059b20 000000b7H .text$_Z8strtof_lPKcPPc8locale_t CODE
 0001:00059be0 000000b7H .text$_Z9strtold_lPKcPPc8locale_t CODE
 0001:00059ca0 00000559H .text$_ZN15__lconv_storageC2EPK5lconv CODE
 0001:0005a1fc 00000000H .text                   CODE
 0001:0005a200 00000005H .text$_ZNSt3__112bad_weak_ptrD2Ev CODE
 0001:0005a210 0000001aH .text$_ZNSt3__112bad_weak_ptrD0Ev CODE
 0001:0005a230 00000008H .text$_ZNKSt3__112bad_weak_ptr4whatEv CODE
 0001:0005a240 00000001H .text$_ZNSt3__114__shared_countD2Ev CODE
 0001:0005a250 00000002H .text$_ZNSt3__114__shared_countD0Ev CODE
 0001:0005a260 00000002H .text$_ZNSt3__119__shared_weak_countD0Ev CODE
 0001:0005a270 0000001dH .text$_ZNSt3__119__shared_weak_count14__release_weakEv CODE
 0001:0005a290 00000029H .text$_ZNSt3__119__shared_weak_count4lockEv CODE
 0001:0005a2c0 00000003H .text$_ZNKSt3__119__shared_weak_count13__get_deleterERKSt9type_info CODE
 0001:0005a2d0 0000001bH .text$_ZNSt3__18__sp_mut4lockEv CODE
 0001:0005a2f0 0000001bH .text$_ZNSt3__18__sp_mut6unlockEv CODE
 0001:0005a310 0000004bH .text$_ZNSt3__112__get_sp_mutEPKv CODE
 0001:0005a360 00000039H .text$_ZNSt3__15alignEyyRPvRy CODE
 0001:0005a39c 00000000H .text                   CODE
 0001:0005a3a0 00000021H .text$_ZNSt3__15mutex4lockEv CODE
 0001:0005a3d0 00000018H .text$_ZNSt3__15mutex8try_lockEv CODE
 0001:0005a3f0 00000018H .text$_ZNSt3__15mutex6unlockEv CODE
 0001:0005a410 00000021H .text$_ZNSt3__115recursive_mutexC2Ev CODE
 0001:0005a440 00000018H .text$_ZNSt3__115recursive_mutexD2Ev CODE
 0001:0005a460 00000021H .text$_ZNSt3__115recursive_mutex4lockEv CODE
 0001:0005a490 00000018H .text$_ZNSt3__115recursive_mutex6unlockEv CODE
 0001:0005a4b0 00000018H .text$_ZNSt3__115recursive_mutex8try_lockEv CODE
 0001:0005a4d0 0000000bH .text$_ZNSt3__111timed_mutexC2Ev CODE
 0001:0005a4e0 0000003fH .text$_ZNSt3__111timed_mutexD2Ev CODE
 0001:0005a520 0000007cH .text$_ZNSt3__111timed_mutex4lockEv CODE
 0001:0005a5a0 00000021H .text$_ZNSt3__111unique_lockINS_5mutexEED2B6v15007Ev CODE
 0001:0005a5d0 00000046H .text$_ZNSt3__111timed_mutex8try_lockEv CODE
 0001:0005a620 0000004cH .text$_ZNSt3__111timed_mutex6unlockEv CODE
 0001:0005a670 0000000bH .text$_ZNSt3__121recursive_timed_mutexC2Ev CODE
 0001:0005a680 0000003fH .text$_ZNSt3__121recursive_timed_mutexD2Ev CODE
 0001:0005a6c0 00000102H .text$_ZNSt3__121recursive_timed_mutex4lockEv CODE
 0001:0005a7d0 00000096H .text$_ZNSt3__121recursive_timed_mutex8try_lockEv CODE
 0001:0005a870 0000006dH .text$_ZNSt3__121recursive_timed_mutex6unlockEv CODE
 0001:0005a8e0 0000010dH .text$_ZNSt3__111__call_onceERVmPvPFvS2_E CODE
 0001:0005a9f0 00000060H .text                   CODE
 0001:0005aa50 00000224H .text$__unw_init_local  CODE
 0001:0005ac80 0000003eH .text$logAPIs           CODE
 0001:0005acc0 0000009bH .text$__unw_get_reg     CODE
 0001:0005ad60 000000e9H .text$__unw_set_reg     CODE
 0001:0005ae50 0000009cH .text$__unw_get_fpreg   CODE
 0001:0005aef0 000000a4H .text$__unw_set_fpreg   CODE
 0001:0005afa0 0000006dH .text$__unw_step        CODE
 0001:0005b010 00000087H .text$__unw_get_proc_info CODE
 0001:0005b0a0 00000072H .text$__unw_resume      CODE
 0001:0005b120 0000009aH .text$__unw_get_proc_name CODE
 0001:0005b1c0 00000079H .text$__unw_is_fpreg    CODE
 0001:0005b240 00000079H .text$__unw_regname     CODE
 0001:0005b2c0 00000070H .text$__unw_is_signal_frame CODE
 0001:0005b330 0000003eH .text$logUnwinding      CODE
 0001:0005b370 0000003eH .text$logDWARF          CODE
 0001:0005b3b0 000000dcH .text                   CODE
 0001:0005b490 00000010H .text$_ZNSt3__129__libcpp_recursive_mutex_initEPA5_Pv CODE
 0001:0005b4a0 00000010H .text$_ZNSt3__129__libcpp_recursive_mutex_lockEPA5_Pv CODE
 0001:0005b4b0 00000013H .text$_ZNSt3__132__libcpp_recursive_mutex_trylockEPA5_Pv CODE
 0001:0005b4d0 00000010H .text$_ZNSt3__131__libcpp_recursive_mutex_unlockEPA5_Pv CODE
 0001:0005b4e0 00000010H .text$_ZNSt3__132__libcpp_recursive_mutex_destroyEPA5_Pv CODE
 0001:0005b4f0 00000010H .text$_ZNSt3__119__libcpp_mutex_lockEPPv CODE
 0001:0005b500 00000013H .text$_ZNSt3__122__libcpp_mutex_trylockEPPv CODE
 0001:0005b520 00000010H .text$_ZNSt3__121__libcpp_mutex_unlockEPPv CODE
 0001:0005b530 00000003H .text$_ZNSt3__122__libcpp_mutex_destroyEPPv CODE
 0001:0005b540 00000010H .text$_ZNSt3__123__libcpp_condvar_signalEPPv CODE
 0001:0005b550 00000010H .text$_ZNSt3__126__libcpp_condvar_broadcastEPPv CODE
 0001:0005b560 00000019H .text$_ZNSt3__121__libcpp_condvar_waitEPPvS1_ CODE
 0001:0005b580 00000094H .text$_ZNSt3__126__libcpp_condvar_timedwaitEPPvS1_P8timespec CODE
 0001:0005b620 00000003H .text$_ZNSt3__124__libcpp_condvar_destroyEPPv CODE
 0001:0005b630 0000002aH .text$_ZNSt3__121__libcpp_execute_onceEPPvPFvvE CODE
 0001:0005b660 00000010H .text$_ZNSt3__1L37__libcpp_init_once_execute_once_thunkB6v15007EP13_RTL_RUN_ONCEPvPS2_ CODE
 0001:0005b670 00000006H .text$_ZNSt3__124__libcpp_thread_id_equalEll CODE
 0001:0005b680 00000006H .text$_ZNSt3__123__libcpp_thread_id_lessEll CODE
 0001:0005b690 00000008H .text$_ZNSt3__122__libcpp_thread_isnullEPKPv CODE
 0001:0005b6a0 00000063H .text$_ZNSt3__122__libcpp_thread_createEPPvPFS0_S0_ES0_ CODE
 0001:0005b710 00000021H .text$_ZNSt3__1L28__libcpp_beginthreadex_thunkB6v15007EPv CODE
 0001:0005b740 00000005H .text$_ZNSt3__130__libcpp_thread_get_current_idEv CODE
 0001:0005b750 00000008H .text$_ZNSt3__122__libcpp_thread_get_idEPKPv CODE
 0001:0005b760 0000003bH .text$_ZNSt3__120__libcpp_thread_joinEPPv CODE
 0001:0005b7a0 00000020H .text$_ZNSt3__122__libcpp_thread_detachEPPv CODE
 0001:0005b7c0 00000005H .text$_ZNSt3__121__libcpp_thread_yieldEv CODE
 0001:0005b7d0 00000037H .text$_ZNSt3__125__libcpp_thread_sleep_forERKNS_6chrono8durationIxNS_5ratioILx1ELx1000000000EEEEE CODE
 0001:0005b810 00000029H .text$_ZNSt3__119__libcpp_tls_createEPlPFvPvE CODE
 0001:0005b840 00000005H .text$_ZNSt3__116__libcpp_tls_getEl CODE
 0001:0005b850 0000001dH .text$_ZNSt3__116__libcpp_tls_setElPv CODE
 0001:0005b870 00000000H .text                   CODE
 0001:0005b870 00000065H .text$_ZNK12_GLOBAL__N_116itanium_demangle4Node4dumpEv CODE
 0001:0005b8e0 00000838H .text$_ZNK12_GLOBAL__N_116itanium_demangle4Node5visitINSt3__117reference_wrapperINS_11DumpVisitorEEEEEvT_ CODE
 0001:0005c120 000007b0H .text$__cxa_demangle    CODE
 0001:0005c8d0 000000e0H .text$_ZN12_GLOBAL__N_116itanium_demangle22AbstractManglingParserINS0_14ManglingParserINS_16DefaultAllocatorEEES3_ED2Ev CODE
 0001:0005c9b0 0000007aH .text$_ZNKSt3__117reference_wrapperIN12_GLOBAL__N_111DumpVisitorEEclB6v15007IJPKNS1_16itanium_demangle8NameTypeEEEENS_11__invoke_ofIRS2_JDpT_EE4typeEDpOSB_ CODE
 0001:0005ca30 0000015bH .text$_ZNKSt3__117reference_wrapperIN12_GLOBAL__N_111DumpVisitorEEclB6v15007IJPKNS1_16itanium_demangle26SyntheticTemplateParamNameEEEENS_11__invoke_ofIRS2_JDpT_EE4typeEDpOSB_ CODE
 0001:0005cb90 0000005bH .text$_ZNKSt3__117reference_wrapperIN12_GLOBAL__N_111DumpVisitorEEclB6v15007IJPKNS1_16itanium_demangle27ExpandedSpecialSubstitutionEEEENS_11__invoke_ofIRS2_JDpT_EE4typeEDpOSB_ CODE
 0001:0005cbf0 0000005bH .text$_ZNKSt3__117reference_wrapperIN12_GLOBAL__N_111DumpVisitorEEclB6v15007IJPKNS1_16itanium_demangle19SpecialSubstitutionEEEENS_11__invoke_ofIRS2_JDpT_EE4typeEDpOSB_ CODE
 0001:0005cc50 0000007aH .text$_ZNKSt3__117reference_wrapperIN12_GLOBAL__N_111DumpVisitorEEclB6v15007IJPKNS1_16itanium_demangle15UnnamedTypeNameEEEENS_11__invoke_ofIRS2_JDpT_EE4typeEDpOSB_ CODE
 0001:0005ccd0 0000007aH .text$_ZNKSt3__117reference_wrapperIN12_GLOBAL__N_111DumpVisitorEEclB6v15007IJPKNS1_16itanium_demangle13FunctionParamEEEENS_11__invoke_ofIRS2_JDpT_EE4typeEDpOSB_ CODE
 0001:0005cd50 0000007bH .text$_ZNKSt3__117reference_wrapperIN12_GLOBAL__N_111DumpVisitorEEclB6v15007IJPKNS1_16itanium_demangle8BoolExprEEEENS_11__invoke_ofIRS2_JDpT_EE4typeEDpOSB_ CODE
 0001:0005cdd0 0000009cH .text$_ZNKSt3__117reference_wrapperIN12_GLOBAL__N_111DumpVisitorEEclB6v15007IJPKNS1_16itanium_demangle14IntegerLiteralEEEENS_11__invoke_ofIRS2_JDpT_EE4typeEDpOSB_ CODE
 0001:0005ce70 0000007aH .text$_ZNKSt3__117reference_wrapperIN12_GLOBAL__N_111DumpVisitorEEclB6v15007IJPKNS1_16itanium_demangle16FloatLiteralImplIfEEEEENS_11__invoke_ofIRS2_JDpT_EE4typeEDpOSC_ CODE
 0001:0005cef0 0000007aH .text$_ZNKSt3__117reference_wrapperIN12_GLOBAL__N_111DumpVisitorEEclB6v15007IJPKNS1_16itanium_demangle16FloatLiteralImplIdEEEEENS_11__invoke_ofIRS2_JDpT_EE4typeEDpOSC_ CODE
 0001:0005cf70 0000007aH .text$_ZNKSt3__117reference_wrapperIN12_GLOBAL__N_111DumpVisitorEEclB6v15007IJPKNS1_16itanium_demangle16FloatLiteralImplIeEEEEENS_11__invoke_ofIRS2_JDpT_EE4typeEDpOSC_ CODE
 0001:0005cff0 000000bbH .text$_ZNSt3__18__invokeB6v15007IRN12_GLOBAL__N_111DumpVisitorEJPKNS1_16itanium_demangle13NodeArrayNodeEEEEDTclclsr3stdE7declvalIT_EEspclsr3stdE7declvalIT0_EEEEOS8_DpOS9_ CODE
 0001:0005d0b0 000000d5H .text$_ZN12_GLOBAL__N_111DumpVisitor23printWithPendingNewlineINS_16itanium_demangle9NodeArrayEEEvT_ CODE
 0001:0005d190 000000b3H .text$_ZN12_GLOBAL__N_111DumpVisitor14printWithCommaIPKNS_16itanium_demangle4NodeEEEvT_ CODE
 0001:0005d250 000000f4H .text$_ZNSt3__18__invokeB6v15007IRN12_GLOBAL__N_111DumpVisitorEJPKNS1_16itanium_demangle9DotSuffixEEEEDTclclsr3stdE7declvalIT_EEspclsr3stdE7declvalIT0_EEEEOS8_DpOS9_ CODE
 0001:0005d350 000000bdH .text$_ZN12_GLOBAL__N_111DumpVisitor14printWithCommaINS_16itanium_demangle10StringViewEEEvT_ CODE
 0001:0005d410 00000100H .text$_ZNSt3__18__invokeB6v15007IRN12_GLOBAL__N_111DumpVisitorEJPKNS1_16itanium_demangle17VendorExtQualTypeEEEEDTclclsr3stdE7declvalIT_EEspclsr3stdE7declvalIT0_EEEEOS8_DpOS9_ CODE
 0001:0005d510 000000e8H .text$_ZNSt3__18__invokeB6v15007IRN12_GLOBAL__N_111DumpVisitorEJPKNS1_16itanium_demangle8QualTypeEEEEDTclclsr3stdE7declvalIT_EEspclsr3stdE7declvalIT0_EEEEOS8_DpOS9_ CODE
 0001:0005d600 000001c2H .text$_ZN12_GLOBAL__N_111DumpVisitor14printWithCommaINS_16itanium_demangle10QualifiersEEEvT_ CODE
 0001:0005d7d0 000000ddH .text$_ZNSt3__18__invokeB6v15007IRN12_GLOBAL__N_111DumpVisitorEJPKNS1_16itanium_demangle22ConversionOperatorTypeEEEEDTclclsr3stdE7declvalIT_EEspclsr3stdE7declvalIT0_EEEEOS8_DpOS9_ CODE
 0001:0005d8b0 000000f4H .text$_ZNSt3__18__invokeB6v15007IRN12_GLOBAL__N_111DumpVisitorEJPKNS1_16itanium_demangle20PostfixQualifiedTypeEEEEDTclclsr3stdE7declvalIT_EEspclsr3stdE7declvalIT0_EEEEOS8_DpOS9_ CODE
 0001:0005d9b0 000000d2H .text$_ZNSt3__18__invokeB6v15007IRN12_GLOBAL__N_111DumpVisitorEJPKNS1_16itanium_demangle22ElaboratedTypeSpefTypeEEEEDTclclsr3stdE7declvalIT_EEspclsr3stdE7declvalIT0_EEEEOS8_DpOS9_ CODE
 0001:0005da90 000000b3H .text$_ZN12_GLOBAL__N_111DumpVisitor14printWithCommaIPNS_16itanium_demangle4NodeEEEvT_ CODE
 0001:0005db50 000000f4H .text$_ZNSt3__18__invokeB6v15007IRN12_GLOBAL__N_111DumpVisitorEJPKNS1_16itanium_demangle10AbiTagAttrEEEEDTclclsr3stdE7declvalIT_EEspclsr3stdE7declvalIT0_EEEEOS8_DpOS9_ CODE
 0001:0005dc50 000000bbH .text$_ZNSt3__18__invokeB6v15007IRN12_GLOBAL__N_111DumpVisitorEJPKNS1_16itanium_demangle12EnableIfAttrEEEEDTclclsr3stdE7declvalIT_EEspclsr3stdE7declvalIT0_EEEEOS8_DpOS9_ CODE
 0001:0005dd10 000000f4H .text$_ZNSt3__18__invokeB6v15007IRN12_GLOBAL__N_111DumpVisitorEJPKNS1_16itanium_demangle13ObjCProtoNameEEEEDTclclsr3stdE7declvalIT_EEspclsr3stdE7declvalIT0_EEEEOS8_DpOS9_ CODE
 0001:0005de10 000000ddH .text$_ZNSt3__18__invokeB6v15007IRN12_GLOBAL__N_111DumpVisitorEJPKNS1_16itanium_demangle11PointerTypeEEEEDTclclsr3stdE7declvalIT_EEspclsr3stdE7declvalIT0_EEEEOS8_DpOS9_ CODE
 0001:0005def0 0000016dH .text$_ZNSt3__18__invokeB6v15007IRN12_GLOBAL__N_111DumpVisitorEJPKNS1_16itanium_demangle13ReferenceTypeEEEEDTclclsr3stdE7declvalIT_EEspclsr3stdE7declvalIT0_EEEEOS8_DpOS9_ CODE
 0001:0005e060 000000e9H .text$_ZNSt3__18__invokeB6v15007IRN12_GLOBAL__N_111DumpVisitorEJPKNS1_16itanium_demangle19PointerToMemberTypeEEEEDTclclsr3stdE7declvalIT_EEspclsr3stdE7declvalIT0_EEEEOS8_DpOS9_ CODE
 0001:0005e150 000000e9H .text$_ZNSt3__18__invokeB6v15007IRN12_GLOBAL__N_111DumpVisitorEJPKNS1_16itanium_demangle9ArrayTypeEEEEDTclclsr3stdE7declvalIT_EEspclsr3stdE7declvalIT0_EEEEOS8_DpOS9_ CODE
 0001:0005e240 00000129H .text$_ZNSt3__18__invokeB6v15007IRN12_GLOBAL__N_111DumpVisitorEJPKNS1_16itanium_demangle12FunctionTypeEEEEDTclclsr3stdE7declvalIT_EEspclsr3stdE7declvalIT0_EEEEOS8_DpOS9_ CODE
 0001:0005e370 0000022bH .text$_ZN12_GLOBAL__N_111DumpVisitor14printWithCommaINS_16itanium_demangle9NodeArrayEEEvT_ CODE
 0001:0005e5a0 00000105H .text$_ZN12_GLOBAL__N_111DumpVisitor14printWithCommaINS_16itanium_demangle15FunctionRefQualEEEvT_ CODE
 0001:0005e6b0 000000ddH .text$_ZNSt3__18__invokeB6v15007IRN12_GLOBAL__N_111DumpVisitorEJPKNS1_16itanium_demangle12NoexceptSpecEEEEDTclclsr3stdE7declvalIT_EEspclsr3stdE7declvalIT0_EEEEOS8_DpOS9_ CODE
 0001:0005e790 000000bbH .text$_ZNSt3__18__invokeB6v15007IRN12_GLOBAL__N_111DumpVisitorEJPKNS1_16itanium_demangle20DynamicExceptionSpecEEEEDTclclsr3stdE7declvalIT_EEspclsr3stdE7declvalIT0_EEEEOS8_DpOS9_ CODE
 0001:0005e850 00000147H .text$_ZNSt3__18__invokeB6v15007IRN12_GLOBAL__N_111DumpVisitorEJPKNS1_16itanium_demangle16FunctionEncodingEEEEDTclclsr3stdE7declvalIT_EEspclsr3stdE7declvalIT0_EEEEOS8_DpOS9_ CODE
 0001:0005e9a0 000000ddH .text$_ZNSt3__18__invokeB6v15007IRN12_GLOBAL__N_111DumpVisitorEJPKNS1_16itanium_demangle15LiteralOperatorEEEEDTclclsr3stdE7declvalIT_EEspclsr3stdE7declvalIT0_EEEEOS8_DpOS9_ CODE
 0001:0005ea80 000000d2H .text$_ZNSt3__18__invokeB6v15007IRN12_GLOBAL__N_111DumpVisitorEJPKNS1_16itanium_demangle11SpecialNameEEEEDTclclsr3stdE7declvalIT_EEspclsr3stdE7declvalIT0_EEEEOS8_DpOS9_ CODE
 0001:0005eb60 000000e9H .text$_ZNSt3__18__invokeB6v15007IRN12_GLOBAL__N_111DumpVisitorEJPKNS1_16itanium_demangle21CtorVtableSpecialNameEEEEDTclclsr3stdE7declvalIT_EEspclsr3stdE7declvalIT0_EEEEOS8_DpOS9_ CODE
 0001:0005ec50 000000e9H .text$_ZNSt3__18__invokeB6v15007IRN12_GLOBAL__N_111DumpVisitorEJPKNS1_16itanium_demangle13QualifiedNameEEEEDTclclsr3stdE7declvalIT_EEspclsr3stdE7declvalIT0_EEEEOS8_DpOS9_ CODE
 0001:0005ed40 000000e9H .text$_ZNSt3__18__invokeB6v15007IRN12_GLOBAL__N_111DumpVisitorEJPKNS1_16itanium_demangle10NestedNameEEEEDTclclsr3stdE7declvalIT_EEspclsr3stdE7declvalIT0_EEEEOS8_DpOS9_ CODE
 0001:0005ee30 000000e9H .text$_ZNSt3__18__invokeB6v15007IRN12_GLOBAL__N_111DumpVisitorEJPKNS1_16itanium_demangle9LocalNameEEEEDTclclsr3stdE7declvalIT_EEspclsr3stdE7declvalIT0_EEEEOS8_DpOS9_ CODE
 0001:0005ef20 000000f6H .text$_ZNSt3__18__invokeB6v15007IRN12_GLOBAL__N_111DumpVisitorEJPKNS1_16itanium_demangle10ModuleNameEEEEDTclclsr3stdE7declvalIT_EEspclsr3stdE7declvalIT0_EEEEOS8_DpOS9_ CODE
 0001:0005f020 000000bfH .text$_ZN12_GLOBAL__N_111DumpVisitor14printWithCommaIbEEvT_ CODE
 0001:0005f0e0 000000e9H .text$_ZNSt3__18__invokeB6v15007IRN12_GLOBAL__N_111DumpVisitorEJPKNS1_16itanium_demangle12ModuleEntityEEEEDTclclsr3stdE7declvalIT_EEspclsr3stdE7declvalIT0_EEEEOS8_DpOS9_ CODE
 0001:0005f1d0 000000e9H .text$_ZNSt3__18__invokeB6v15007IRN12_GLOBAL__N_111DumpVisitorEJPKNS1_16itanium_demangle10VectorTypeEEEEDTclclsr3stdE7declvalIT_EEspclsr3stdE7declvalIT0_EEEEOS8_DpOS9_ CODE
 0001:0005f2c0 000000ddH .text$_ZNSt3__18__invokeB6v15007IRN12_GLOBAL__N_111DumpVisitorEJPKNS1_16itanium_demangle15PixelVectorTypeEEEEDTclclsr3stdE7declvalIT_EEspclsr3stdE7declvalIT0_EEEEOS8_DpOS9_ CODE
 0001:0005f3a0 000000ddH .text$_ZNSt3__18__invokeB6v15007IRN12_GLOBAL__N_111DumpVisitorEJPKNS1_16itanium_demangle12BinaryFPTypeEEEEDTclclsr3stdE7declvalIT_EEspclsr3stdE7declvalIT0_EEEEOS8_DpOS9_ CODE
 0001:0005f480 000000e8H .text$_ZNSt3__18__invokeB6v15007IRN12_GLOBAL__N_111DumpVisitorEJPKNS1_16itanium_demangle10BitIntTypeEEEEDTclclsr3stdE7declvalIT_EEspclsr3stdE7declvalIT0_EEEEOS8_DpOS9_ CODE
 0001:0005f570 000000ddH .text$_ZNSt3__18__invokeB6v15007IRN12_GLOBAL__N_111DumpVisitorEJPKNS1_16itanium_demangle21TypeTemplateParamDeclEEEEDTclclsr3stdE7declvalIT_EEspclsr3stdE7declvalIT0_EEEEOS8_DpOS9_ CODE
 0001:0005f650 000000e9H .text$_ZNSt3__18__invokeB6v15007IRN12_GLOBAL__N_111DumpVisitorEJPKNS1_16itanium_demangle24NonTypeTemplateParamDeclEEEEDTclclsr3stdE7declvalIT_EEspclsr3stdE7declvalIT0_EEEEOS8_DpOS9_ CODE
 0001:0005f740 000000f4H .text$_ZNSt3__18__invokeB6v15007IRN12_GLOBAL__N_111DumpVisitorEJPKNS1_16itanium_demangle25TemplateTemplateParamDeclEEEEDTclclsr3stdE7declvalIT_EEspclsr3stdE7declvalIT0_EEEEOS8_DpOS9_ CODE
 0001:0005f840 000000ddH .text$_ZNSt3__18__invokeB6v15007IRN12_GLOBAL__N_111DumpVisitorEJPKNS1_16itanium_demangle21TemplateParamPackDeclEEEEDTclclsr3stdE7declvalIT_EEspclsr3stdE7declvalIT0_EEEEOS8_DpOS9_ CODE
 0001:0005f920 000000bbH .text$_ZNSt3__18__invokeB6v15007IRN12_GLOBAL__N_111DumpVisitorEJPKNS1_16itanium_demangle13ParameterPackEEEEDTclclsr3stdE7declvalIT_EEspclsr3stdE7declvalIT0_EEEEOS8_DpOS9_ CODE
 0001:0005f9e0 000000bbH .text$_ZNSt3__18__invokeB6v15007IRN12_GLOBAL__N_111DumpVisitorEJPKNS1_16itanium_demangle20TemplateArgumentPackEEEEDTclclsr3stdE7declvalIT_EEspclsr3stdE7declvalIT0_EEEEOS8_DpOS9_ CODE
 0001:0005faa0 000000ddH .text$_ZNSt3__18__invokeB6v15007IRN12_GLOBAL__N_111DumpVisitorEJPKNS1_16itanium_demangle22ParameterPackExpansionEEEEDTclclsr3stdE7declvalIT_EEspclsr3stdE7declvalIT0_EEEEOS8_DpOS9_ CODE
 0001:0005fb80 000000bbH .text$_ZNSt3__18__invokeB6v15007IRN12_GLOBAL__N_111DumpVisitorEJPKNS1_16itanium_demangle12TemplateArgsEEEEDTclclsr3stdE7declvalIT_EEspclsr3stdE7declvalIT0_EEEEOS8_DpOS9_ CODE
 0001:0005fc40 000000e7H .text$_ZNSt3__18__invokeB6v15007IRN12_GLOBAL__N_111DumpVisitorEJPKNS1_16itanium_demangle24ForwardTemplateReferenceEEEEDTclclsr3stdE7declvalIT_EEspclsr3stdE7declvalIT0_EEEEOS8_DpOS9_ CODE
 0001:0005fd30 000000e9H .text$_ZNSt3__18__invokeB6v15007IRN12_GLOBAL__N_111DumpVisitorEJPKNS1_16itanium_demangle20NameWithTemplateArgsEEEEDTclclsr3stdE7declvalIT_EEspclsr3stdE7declvalIT0_EEEEOS8_DpOS9_ CODE
 0001:0005fe20 000000ddH .text$_ZNSt3__18__invokeB6v15007IRN12_GLOBAL__N_111DumpVisitorEJPKNS1_16itanium_demangle19GlobalQualifiedNameEEEEDTclclsr3stdE7declvalIT_EEspclsr3stdE7declvalIT0_EEEEOS8_DpOS9_ CODE
 0001:0005ff00 000000d4H .text$_ZN12_GLOBAL__N_111DumpVisitor14CtorArgPrinterclINS_16itanium_demangle14SpecialSubKindEJEEEvT_DpT0_ CODE
 0001:0005ffe0 0000018eH .text$_ZNSt3__18__invokeB6v15007IRN12_GLOBAL__N_111DumpVisitorEJPKNS1_16itanium_demangle12CtorDtorNameEEEEDTclclsr3stdE7declvalIT_EEspclsr3stdE7declvalIT0_EEEEOS8_DpOS9_ CODE
 0001:00060170 000000ddH .text$_ZNSt3__18__invokeB6v15007IRN12_GLOBAL__N_111DumpVisitorEJPKNS1_16itanium_demangle8DtorNameEEEEDTclclsr3stdE7declvalIT_EEspclsr3stdE7declvalIT0_EEEEOS8_DpOS9_ CODE
 0001:00060250 0000010dH .text$_ZNSt3__18__invokeB6v15007IRN12_GLOBAL__N_111DumpVisitorEJPKNS1_16itanium_demangle15ClosureTypeNameEEEEDTclclsr3stdE7declvalIT_EEspclsr3stdE7declvalIT0_EEEEOS8_DpOS9_ CODE
 0001:00060360 000000bbH .text$_ZNSt3__18__invokeB6v15007IRN12_GLOBAL__N_111DumpVisitorEJPKNS1_16itanium_demangle21StructuredBindingNameEEEEDTclclsr3stdE7declvalIT_EEspclsr3stdE7declvalIT0_EEEEOS8_DpOS9_ CODE
 0001:00060420 00000122H .text$_ZNSt3__18__invokeB6v15007IRN12_GLOBAL__N_111DumpVisitorEJPKNS1_16itanium_demangle10BinaryExprEEEEDTclclsr3stdE7declvalIT_EEspclsr3stdE7declvalIT0_EEEEOS8_DpOS9_ CODE
 0001:00060550 00000314H .text$_ZN12_GLOBAL__N_111DumpVisitor14printWithCommaINS_16itanium_demangle4Node4PrecEEEvT_ CODE
 0001:00060870 000000fbH .text$_ZNSt3__18__invokeB6v15007IRN12_GLOBAL__N_111DumpVisitorEJPKNS1_16itanium_demangle18ArraySubscriptExprEEEEDTclclsr3stdE7declvalIT_EEspclsr3stdE7declvalIT0_EEEEOS8_DpOS9_ CODE
 0001:00060970 00000105H .text$_ZNSt3__18__invokeB6v15007IRN12_GLOBAL__N_111DumpVisitorEJPKNS1_16itanium_demangle11PostfixExprEEEEDTclclsr3stdE7declvalIT_EEspclsr3stdE7declvalIT0_EEEEOS8_DpOS9_ CODE
 0001:00060a80 00000118H .text$_ZNSt3__18__invokeB6v15007IRN12_GLOBAL__N_111DumpVisitorEJPKNS1_16itanium_demangle15ConditionalExprEEEEDTclclsr3stdE7declvalIT_EEspclsr3stdE7declvalIT0_EEEEOS8_DpOS9_ CODE
 0001:00060ba0 00000122H .text$_ZNSt3__18__invokeB6v15007IRN12_GLOBAL__N_111DumpVisitorEJPKNS1_16itanium_demangle10MemberExprEEEEDTclclsr3stdE7declvalIT_EEspclsr3stdE7declvalIT0_EEEEOS8_DpOS9_ CODE
 0001:00060cd0 00000134H .text$_ZNSt3__18__invokeB6v15007IRN12_GLOBAL__N_111DumpVisitorEJPKNS1_16itanium_demangle13SubobjectExprEEEEDTclclsr3stdE7declvalIT_EEspclsr3stdE7declvalIT0_EEEEOS8_DpOS9_ CODE
 0001:00060e10 000000f5H .text$_ZNSt3__18__invokeB6v15007IRN12_GLOBAL__N_111DumpVisitorEJPKNS1_16itanium_demangle13EnclosingExprEEEEDTclclsr3stdE7declvalIT_EEspclsr3stdE7declvalIT0_EEEEOS8_DpOS9_ CODE
 0001:00060f10 00000102H .text$_ZNSt3__18__invokeB6v15007IRN12_GLOBAL__N_111DumpVisitorEJPKNS1_16itanium_demangle8CastExprEEEEDTclclsr3stdE7declvalIT_EEspclsr3stdE7declvalIT0_EEEEOS8_DpOS9_ CODE
 0001:00061020 000000ddH .text$_ZNSt3__18__invokeB6v15007IRN12_GLOBAL__N_111DumpVisitorEJPKNS1_16itanium_demangle19SizeofParamPackExprEEEEDTclclsr3stdE7declvalIT_EEspclsr3stdE7declvalIT0_EEEEOS8_DpOS9_ CODE
 0001:00061100 00000105H .text$_ZNSt3__18__invokeB6v15007IRN12_GLOBAL__N_111DumpVisitorEJPKNS1_16itanium_demangle8CallExprEEEEDTclclsr3stdE7declvalIT_EEspclsr3stdE7declvalIT0_EEEEOS8_DpOS9_ CODE
 0001:00061210 00000127H .text$_ZNSt3__18__invokeB6v15007IRN12_GLOBAL__N_111DumpVisitorEJPKNS1_16itanium_demangle7NewExprEEEEDTclclsr3stdE7declvalIT_EEspclsr3stdE7declvalIT0_EEEEOS8_DpOS9_ CODE
 0001:00061340 00000118H .text$_ZNSt3__18__invokeB6v15007IRN12_GLOBAL__N_111DumpVisitorEJPKNS1_16itanium_demangle10DeleteExprEEEEDTclclsr3stdE7declvalIT_EEspclsr3stdE7declvalIT0_EEEEOS8_DpOS9_ CODE
 0001:00061460 000000f5H .text$_ZNSt3__18__invokeB6v15007IRN12_GLOBAL__N_111DumpVisitorEJPKNS1_16itanium_demangle10PrefixExprEEEEDTclclsr3stdE7declvalIT_EEspclsr3stdE7declvalIT0_EEEEOS8_DpOS9_ CODE
 0001:00061560 00000105H .text$_ZNSt3__18__invokeB6v15007IRN12_GLOBAL__N_111DumpVisitorEJPKNS1_16itanium_demangle14ConversionExprEEEEDTclclsr3stdE7declvalIT_EEspclsr3stdE7declvalIT0_EEEEOS8_DpOS9_ CODE
 0001:00061670 00000122H .text$_ZNSt3__18__invokeB6v15007IRN12_GLOBAL__N_111DumpVisitorEJPKNS1_16itanium_demangle29PointerToMemberConversionExprEEEEDTclclsr3stdE7declvalIT_EEspclsr3stdE7declvalIT0_EEEEOS8_DpOS9_ CODE
 0001:000617a0 000000f4H .text$_ZNSt3__18__invokeB6v15007IRN12_GLOBAL__N_111DumpVisitorEJPKNS1_16itanium_demangle12InitListExprEEEEDTclclsr3stdE7declvalIT_EEspclsr3stdE7declvalIT0_EEEEOS8_DpOS9_ CODE
 0001:000618a0 0000010dH .text$_ZNSt3__18__invokeB6v15007IRN12_GLOBAL__N_111DumpVisitorEJPKNS1_16itanium_demangle8FoldExprEEEEDTclclsr3stdE7declvalIT_EEspclsr3stdE7declvalIT0_EEEEOS8_DpOS9_ CODE
 0001:000619b0 000000ddH .text$_ZNSt3__18__invokeB6v15007IRN12_GLOBAL__N_111DumpVisitorEJPKNS1_16itanium_demangle9ThrowExprEEEEDTclclsr3stdE7declvalIT_EEspclsr3stdE7declvalIT0_EEEEOS8_DpOS9_ CODE
 0001:00061a90 000000ddH .text$_ZNSt3__18__invokeB6v15007IRN12_GLOBAL__N_111DumpVisitorEJPKNS1_16itanium_demangle13StringLiteralEEEEDTclclsr3stdE7declvalIT_EEspclsr3stdE7declvalIT0_EEEEOS8_DpOS9_ CODE
 0001:00061b70 000000ddH .text$_ZNSt3__18__invokeB6v15007IRN12_GLOBAL__N_111DumpVisitorEJPKNS1_16itanium_demangle10LambdaExprEEEEDTclclsr3stdE7declvalIT_EEspclsr3stdE7declvalIT0_EEEEOS8_DpOS9_ CODE
 0001:00061c50 000000f4H .text$_ZNSt3__18__invokeB6v15007IRN12_GLOBAL__N_111DumpVisitorEJPKNS1_16itanium_demangle11EnumLiteralEEEEDTclclsr3stdE7declvalIT_EEspclsr3stdE7declvalIT0_EEEEOS8_DpOS9_ CODE
 0001:00061d50 000000f6H .text$_ZNSt3__18__invokeB6v15007IRN12_GLOBAL__N_111DumpVisitorEJPKNS1_16itanium_demangle10BracedExprEEEEDTclclsr3stdE7declvalIT_EEspclsr3stdE7declvalIT0_EEEEOS8_DpOS9_ CODE
 0001:00061e50 000000f6H .text$_ZNSt3__18__invokeB6v15007IRN12_GLOBAL__N_111DumpVisitorEJPKNS1_16itanium_demangle15BracedRangeExprEEEEDTclclsr3stdE7declvalIT_EEspclsr3stdE7declvalIT0_EEEEOS8_DpOS9_ CODE
 0001:00061f50 00000046H .text$_ZN12_GLOBAL__N_116itanium_demangle22AbstractManglingParserINS0_14ManglingParserINS_16DefaultAllocatorEEES3_E9consumeIfENS0_10StringViewE CODE
 0001:00061fa0 00000c9cH .text$_ZN12_GLOBAL__N_116itanium_demangle22AbstractManglingParserINS0_14ManglingParserINS_16DefaultAllocatorEEES3_E13parseEncodingEv CODE
 0001:00062c40 00000069H .text$_ZN12_GLOBAL__N_116itanium_demangle22AbstractManglingParserINS0_14ManglingParserINS_16DefaultAllocatorEEES3_E11parseNumberEb CODE
 0001:00062cb0 000000bbH .text$_ZN12_GLOBAL__N_116itanium_demangle22AbstractManglingParserINS0_14ManglingParserINS_16DefaultAllocatorEEES3_E4makeINS0_11SpecialNameEJRA34_KcRPNS0_4NodeEEEESC_DpOT0_ CODE
 0001:00062d70 000016d8H .text$_ZN12_GLOBAL__N_116itanium_demangle22AbstractManglingParserINS0_14ManglingParserINS_16DefaultAllocatorEEES3_E9parseTypeEv CODE
 0001:00064450 0000075cH .text$_ZN12_GLOBAL__N_116itanium_demangle22AbstractManglingParserINS0_14ManglingParserINS_16DefaultAllocatorEEES3_E9parseNameEPNS5_9NameStateE CODE
 0001:00064bb0 0000026cH .text$_ZN12_GLOBAL__N_116itanium_demangle22AbstractManglingParserINS0_14ManglingParserINS_16DefaultAllocatorEEES3_E16parseTemplateArgEv CODE
 0001:00064e20 000000abH .text$_ZN12_GLOBAL__N_116itanium_demangle14PODSmallVectorIPNS0_4NodeELy32EE9push_backERKS3_ CODE
 0001:00064ed0 000000a2H .text$_ZN12_GLOBAL__N_116itanium_demangle22AbstractManglingParserINS0_14ManglingParserINS_16DefaultAllocatorEEES3_E4makeINS0_12EnableIfAttrEJNS0_9NodeArrayEEEEPNS0_4NodeEDpOT0_ CODE
 0001:00064f80 00000177H .text$_ZN12_GLOBAL__N_116itanium_demangle22AbstractManglingParserINS0_14ManglingParserINS_16DefaultAllocatorEEES3_E20popTrailingNodeArrayEy CODE
 0001:00065100 000000f6H .text$_ZN12_GLOBAL__N_116itanium_demangle22AbstractManglingParserINS0_14ManglingParserINS_16DefaultAllocatorEEES3_E4makeINS0_16FunctionEncodingEJRPNS0_4NodeESA_NS0_9NodeArrayESA_RNS0_10QualifiersERNS0_15FunctionRefQualEEEES9_DpOT0_ CODE
 0001:00065200 00000201H .text$_ZZN12_GLOBAL__N_116itanium_demangle22AbstractManglingParserINS0_14ManglingParserINS_16DefaultAllocatorEEES3_E13parseEncodingEvEN18SaveTemplateParamsD2Ev CODE
 0001:00065410 000000b0H .text$_ZN12_GLOBAL__N_116itanium_demangle22AbstractManglingParserINS0_14ManglingParserINS_16DefaultAllocatorEEES3_E4makeINS0_11SpecialNameEJRA31_KcRPNS0_4NodeEEEESC_DpOT0_ CODE
 0001:000654c0 000000b0H .text$_ZN12_GLOBAL__N_116itanium_demangle22AbstractManglingParserINS0_14ManglingParserINS_16DefaultAllocatorEEES3_E4makeINS0_11SpecialNameEJRA12_KcRPNS0_4NodeEEEESC_DpOT0_ CODE
 0001:00065570 000000b0H .text$_ZN12_GLOBAL__N_116itanium_demangle22AbstractManglingParserINS0_14ManglingParserINS_16DefaultAllocatorEEES3_E4makeINS0_11SpecialNameEJRA9_KcRPNS0_4NodeEEEESC_DpOT0_ CODE
 0001:00065620 000000b0H .text$_ZN12_GLOBAL__N_116itanium_demangle22AbstractManglingParserINS0_14ManglingParserINS_16DefaultAllocatorEEES3_E4makeINS0_11SpecialNameEJRA14_KcRPNS0_4NodeEEEESC_DpOT0_ CODE
 0001:000656d0 000000b0H .text$_ZN12_GLOBAL__N_116itanium_demangle22AbstractManglingParserINS0_14ManglingParserINS_16DefaultAllocatorEEES3_E4makeINS0_11SpecialNameEJRA19_KcRPNS0_4NodeEEEESC_DpOT0_ CODE
 0001:00065780 0000016eH .text$_ZN12_GLOBAL__N_116itanium_demangle22AbstractManglingParserINS0_14ManglingParserINS_16DefaultAllocatorEEES3_E15parseCallOffsetEv CODE
 0001:000658f0 000000b0H .text$_ZN12_GLOBAL__N_116itanium_demangle22AbstractManglingParserINS0_14ManglingParserINS_16DefaultAllocatorEEES3_E4makeINS0_11SpecialNameEJRA27_KcRPNS0_4NodeEEEESC_DpOT0_ CODE
 0001:000659a0 000000a7H .text$_ZN12_GLOBAL__N_116itanium_demangle22AbstractManglingParserINS0_14ManglingParserINS_16DefaultAllocatorEEES3_E4makeINS0_21CtorVtableSpecialNameEJRPNS0_4NodeESA_EEES9_DpOT0_ CODE
 0001:00065a50 000000b0H .text$_ZN12_GLOBAL__N_116itanium_demangle22AbstractManglingParserINS0_14ManglingParserINS_16DefaultAllocatorEEES3_E4makeINS0_11SpecialNameEJRA41_KcRPNS0_4NodeEEEESC_DpOT0_ CODE
 0001:00065b00 000000b0H .text$_ZN12_GLOBAL__N_116itanium_demangle22AbstractManglingParserINS0_14ManglingParserINS_16DefaultAllocatorEEES3_E4makeINS0_11SpecialNameEJRA18_KcRPNS0_4NodeEEEESC_DpOT0_ CODE
 0001:00065bb0 000000b0H .text$_ZN12_GLOBAL__N_116itanium_demangle22AbstractManglingParserINS0_14ManglingParserINS_16DefaultAllocatorEEES3_E4makeINS0_11SpecialNameEJRA22_KcRPNS0_4NodeEEEESC_DpOT0_ CODE
 0001:00065c60 000000b0H .text$_ZN12_GLOBAL__N_116itanium_demangle22AbstractManglingParserINS0_14ManglingParserINS_16DefaultAllocatorEEES3_E4makeINS0_11SpecialNameEJRA25_KcRPNS0_4NodeEEEESC_DpOT0_ CODE
 0001:00065d10 000001f2H .text$_ZN12_GLOBAL__N_116itanium_demangle22AbstractManglingParserINS0_14ManglingParserINS_16DefaultAllocatorEEES3_E18parseModuleNameOptERPNS0_10ModuleNameE CODE
 0001:00065f10 00000003H .text$_ZNK12_GLOBAL__N_116itanium_demangle4Node19hasRHSComponentSlowERNS0_12OutputBufferE CODE
 0001:00065f20 00000003H .text$_ZNK12_GLOBAL__N_116itanium_demangle4Node12hasArraySlowERNS0_12OutputBufferE CODE
 0001:00065f30 00000003H .text$_ZNK12_GLOBAL__N_116itanium_demangle4Node15hasFunctionSlowERNS0_12OutputBufferE CODE
 0001:00065f40 00000004H .text$_ZNK12_GLOBAL__N_116itanium_demangle4Node13getSyntaxNodeERNS0_12OutputBufferE CODE
 0001:00065f50 000000afH .text$_ZNK12_GLOBAL__N_116itanium_demangle11SpecialName9printLeftERNS0_12OutputBufferE CODE
 0001:00066000 00000001H .text$_ZNK12_GLOBAL__N_116itanium_demangle4Node10printRightERNS0_12OutputBufferE CODE
 0001:00066010 0000000aH .text$_ZNK12_GLOBAL__N_116itanium_demangle4Node11getBaseNameEv CODE
 0001:00066020 00000005H .text$_ZN12_GLOBAL__N_116itanium_demangle11SpecialNameD0Ev CODE
 0001:00066030 0000011fH .text$_ZNK12_GLOBAL__N_116itanium_demangle21CtorVtableSpecialName9printLeftERNS0_12OutputBufferE CODE
 0001:00066150 00000005H .text$_ZN12_GLOBAL__N_116itanium_demangle21CtorVtableSpecialNameD0Ev CODE
 0001:00066160 000001adH .text$_ZN12_GLOBAL__N_116itanium_demangle22AbstractManglingParserINS0_14ManglingParserINS_16DefaultAllocatorEEES3_E15parseSourceNameEPNS5_9NameStateE CODE
 0001:00066310 000000a2H .text$_ZN12_GLOBAL__N_116itanium_demangle22AbstractManglingParserINS0_14ManglingParserINS_16DefaultAllocatorEEES3_E4makeINS0_8NameTypeEJRNS0_10StringViewEEEEPNS0_4NodeEDpOT0_ CODE
 0001:000663c0 00000075H .text$_ZNK12_GLOBAL__N_116itanium_demangle8NameType9printLeftERNS0_12OutputBufferE CODE
 0001:00066440 0000000bH .text$_ZNK12_GLOBAL__N_116itanium_demangle8NameType11getBaseNameEv CODE
 0001:00066450 00000005H .text$_ZN12_GLOBAL__N_116itanium_demangle8NameTypeD0Ev CODE
 0001:00066460 000000e3H .text$_ZNK12_GLOBAL__N_116itanium_demangle10ModuleName9printLeftERNS0_12OutputBufferE CODE
 0001:00066550 00000005H .text$_ZN12_GLOBAL__N_116itanium_demangle10ModuleNameD0Ev CODE
 0001:00066560 0000016fH .text$_ZN12_GLOBAL__N_116itanium_demangle22AbstractManglingParserINS0_14ManglingParserINS_16DefaultAllocatorEEES3_E17parseUnscopedNameEPNS5_9NameStateEPb CODE
 0001:000666d0 00000764H .text$_ZN12_GLOBAL__N_116itanium_demangle22AbstractManglingParserINS0_14ManglingParserINS_16DefaultAllocatorEEES3_E17parseTemplateArgsEb CODE
 0001:00066e40 000000a7H .text$_ZN12_GLOBAL__N_116itanium_demangle22AbstractManglingParserINS0_14ManglingParserINS_16DefaultAllocatorEEES3_E4makeINS0_20NameWithTemplateArgsEJRPNS0_4NodeESA_EEES9_DpOT0_ CODE
 0001:00066ef0 000003b3H .text$_ZN12_GLOBAL__N_116itanium_demangle22AbstractManglingParserINS0_14ManglingParserINS_16DefaultAllocatorEEES3_E18parseTemplateParamEv CODE
 0001:000672b0 00000124H .text$_ZN12_GLOBAL__N_116itanium_demangle22AbstractManglingParserINS0_14ManglingParserINS_16DefaultAllocatorEEES3_E13parseDecltypeEv CODE
 0001:000673e0 000002e8H .text$_ZN12_GLOBAL__N_116itanium_demangle22AbstractManglingParserINS0_14ManglingParserINS_16DefaultAllocatorEEES3_E17parseSubstitutionEv CODE
 0001:000676d0 000005aaH .text$_ZN12_GLOBAL__N_116itanium_demangle22AbstractManglingParserINS0_14ManglingParserINS_16DefaultAllocatorEEES3_E20parseUnqualifiedNameEPNS5_9NameStateEPNS0_4NodeEPNS0_10ModuleNameE CODE
 0001:00067c80 000000abH .text$_ZN12_GLOBAL__N_116itanium_demangle14PODSmallVectorIPNS1_IPNS0_4NodeELy8EEELy4EE9push_backERKS5_ CODE
 0001:00067d30 000000acH .text$_ZN12_GLOBAL__N_116itanium_demangle22AbstractManglingParserINS0_14ManglingParserINS_16DefaultAllocatorEEES3_E4makeINS0_8NameTypeEJRA5_KcEEEPNS0_4NodeEDpOT0_ CODE
 0001:00067de0 0000004bH .text$_ZNK12_GLOBAL__N_116itanium_demangle24ForwardTemplateReference19hasRHSComponentSlowERNS0_12OutputBufferE CODE
 0001:00067e30 0000004fH .text$_ZNK12_GLOBAL__N_116itanium_demangle24ForwardTemplateReference12hasArraySlowERNS0_12OutputBufferE CODE
 0001:00067e80 0000004fH .text$_ZNK12_GLOBAL__N_116itanium_demangle24ForwardTemplateReference15hasFunctionSlowERNS0_12OutputBufferE CODE
 0001:00067ed0 00000039H .text$_ZNK12_GLOBAL__N_116itanium_demangle24ForwardTemplateReference13getSyntaxNodeERNS0_12OutputBufferE CODE
 0001:00067f10 00000039H .text$_ZNK12_GLOBAL__N_116itanium_demangle24ForwardTemplateReference9printLeftERNS0_12OutputBufferE CODE
 0001:00067f50 00000039H .text$_ZNK12_GLOBAL__N_116itanium_demangle24ForwardTemplateReference10printRightERNS0_12OutputBufferE CODE
 0001:00067f90 00000005H .text$_ZN12_GLOBAL__N_116itanium_demangle24ForwardTemplateReferenceD0Ev CODE
 0001:00067fa0 000014f8H .text$_ZN12_GLOBAL__N_116itanium_demangle22AbstractManglingParserINS0_14ManglingParserINS_16DefaultAllocatorEEES3_E9parseExprEv CODE
 0001:000694a0 000000cbH .text$_ZN12_GLOBAL__N_116itanium_demangle22AbstractManglingParserINS0_14ManglingParserINS_16DefaultAllocatorEEES3_E4makeINS0_11PostfixExprEJRPNS0_4NodeERNS0_10StringViewENS8_4PrecEEEES9_DpOT0_ CODE
 0001:00069570 000000bcH .text$_ZN12_GLOBAL__N_116itanium_demangle22AbstractManglingParserINS0_14ManglingParserINS_16DefaultAllocatorEEES3_E4makeINS0_18ArraySubscriptExprEJRPNS0_4NodeESA_NS8_4PrecEEEES9_DpOT0_ CODE
 0001:00069630 000000daH .text$_ZN12_GLOBAL__N_116itanium_demangle22AbstractManglingParserINS0_14ManglingParserINS_16DefaultAllocatorEEES3_E4makeINS0_10MemberExprEJRPNS0_4NodeERNS0_10StringViewESA_NS8_4PrecEEEES9_DpOT0_ CODE
 0001:00069710 00000100H .text$_ZN12_GLOBAL__N_116itanium_demangle22AbstractManglingParserINS0_14ManglingParserINS_16DefaultAllocatorEEES3_E4makeINS0_7NewExprEJRNS0_9NodeArrayERPNS0_4NodeES9_RbbNSA_4PrecEEEESB_DpOT0_ CODE
 0001:00069810 000000cbH .text$_ZN12_GLOBAL__N_116itanium_demangle22AbstractManglingParserINS0_14ManglingParserINS_16DefaultAllocatorEEES3_E4makeINS0_8CallExprEJRPNS0_4NodeENS0_9NodeArrayENS8_4PrecEEEES9_DpOT0_ CODE
 0001:000698e0 000000cbH .text$_ZN12_GLOBAL__N_116itanium_demangle22AbstractManglingParserINS0_14ManglingParserINS_16DefaultAllocatorEEES3_E4makeINS0_14ConversionExprEJRPNS0_4NodeERNS0_9NodeArrayENS8_4PrecEEEES9_DpOT0_ CODE
 0001:000699b0 000000cdH .text$_ZN12_GLOBAL__N_116itanium_demangle22AbstractManglingParserINS0_14ManglingParserINS_16DefaultAllocatorEEES3_E4makeINS0_15ConditionalExprEJRPNS0_4NodeESA_SA_NS8_4PrecEEEES9_DpOT0_ CODE
 0001:00069a80 000000d9H .text$_ZN12_GLOBAL__N_116itanium_demangle22AbstractManglingParserINS0_14ManglingParserINS_16DefaultAllocatorEEES3_E4makeINS0_8CastExprEJRNS0_10StringViewERPNS0_4NodeESC_NSA_4PrecEEEESB_DpOT0_ CODE
 0001:00069b60 00000bd0H .text$_ZN12_GLOBAL__N_116itanium_demangle22AbstractManglingParserINS0_14ManglingParserINS_16DefaultAllocatorEEES3_E16parseExprPrimaryEv CODE
 0001:0006a730 00000382H .text$_ZN12_GLOBAL__N_116itanium_demangle22AbstractManglingParserINS0_14ManglingParserINS_16DefaultAllocatorEEES3_E18parseFunctionParamEv CODE
 0001:0006aac0 000002d1H .text$_ZN12_GLOBAL__N_116itanium_demangle22AbstractManglingParserINS0_14ManglingParserINS_16DefaultAllocatorEEES3_E13parseFoldExprEv CODE
 0001:0006ada0 000002b8H .text$_ZN12_GLOBAL__N_116itanium_demangle22AbstractManglingParserINS0_14ManglingParserINS_16DefaultAllocatorEEES3_E15parseBracedExprEv CODE
 0001:0006b060 000000abH .text$_ZN12_GLOBAL__N_116itanium_demangle22AbstractManglingParserINS0_14ManglingParserINS_16DefaultAllocatorEEES3_E4makeINS0_12InitListExprEJDnNS0_9NodeArrayEEEEPNS0_4NodeEDpOT0_ CODE
 0001:0006b110 0000016cH .text$_ZN12_GLOBAL__N_116itanium_demangle22AbstractManglingParserINS0_14ManglingParserINS_16DefaultAllocatorEEES3_E34parsePointerToMemberConversionExprENS0_4Node4PrecE CODE
 0001:0006b280 000000d1H .text$_ZN12_GLOBAL__N_116itanium_demangle22AbstractManglingParserINS0_14ManglingParserINS_16DefaultAllocatorEEES3_E4makeINS0_13EnclosingExprEJRA10_KcRPNS0_4NodeENSB_4PrecEEEESC_DpOT0_ CODE
 0001:0006b360 00000395H .text$_ZN12_GLOBAL__N_116itanium_demangle22AbstractManglingParserINS0_14ManglingParserINS_16DefaultAllocatorEEES3_E18parseSubobjectExprEv CODE
 0001:0006b700 00000098H .text$_ZN12_GLOBAL__N_116itanium_demangle22AbstractManglingParserINS0_14ManglingParserINS_16DefaultAllocatorEEES3_E4makeINS0_22ParameterPackExpansionEJRPNS0_4NodeEEEES9_DpOT0_ CODE
 0001:0006b7a0 00000098H .text$_ZN12_GLOBAL__N_116itanium_demangle22AbstractManglingParserINS0_14ManglingParserINS_16DefaultAllocatorEEES3_E4makeINS0_19SizeofParamPackExprEJRPNS0_4NodeEEEES9_DpOT0_ CODE
 0001:0006b840 000000b8H .text$_ZN12_GLOBAL__N_116itanium_demangle22AbstractManglingParserINS0_14ManglingParserINS_16DefaultAllocatorEEES3_E4makeINS0_13EnclosingExprEJRA11_KcRPNS0_4NodeEEEESC_DpOT0_ CODE
 0001:0006b900 000000a2H .text$_ZN12_GLOBAL__N_116itanium_demangle22AbstractManglingParserINS0_14ManglingParserINS_16DefaultAllocatorEEES3_E4makeINS0_13NodeArrayNodeEJNS0_9NodeArrayEEEEPNS0_4NodeEDpOT0_ CODE
 0001:0006b9b0 000000b2H .text$_ZN12_GLOBAL__N_116itanium_demangle22AbstractManglingParserINS0_14ManglingParserINS_16DefaultAllocatorEEES3_E4makeINS0_12InitListExprEJRPNS0_4NodeENS0_9NodeArrayEEEES9_DpOT0_ CODE
 0001:0006ba70 000000acH .text$_ZN12_GLOBAL__N_116itanium_demangle22AbstractManglingParserINS0_14ManglingParserINS_16DefaultAllocatorEEES3_E4makeINS0_8NameTypeEJRA6_KcEEEPNS0_4NodeEDpOT0_ CODE
 0001:0006bb20 00000098H .text$_ZN12_GLOBAL__N_116itanium_demangle22AbstractManglingParserINS0_14ManglingParserINS_16DefaultAllocatorEEES3_E4makeINS0_9ThrowExprEJRPNS0_4NodeEEEES9_DpOT0_ CODE
 0001:0006bbc0 000006f8H .text$_ZN12_GLOBAL__N_116itanium_demangle22AbstractManglingParserINS0_14ManglingParserINS_16DefaultAllocatorEEES3_E19parseUnresolvedNameEb CODE
 0001:0006c2c0 000000daH .text$_ZN12_GLOBAL__N_116itanium_demangle22AbstractManglingParserINS0_14ManglingParserINS_16DefaultAllocatorEEES3_E4makeINS0_10BinaryExprEJRPNS0_4NodeERNS0_10StringViewESA_RNS8_4PrecEEEES9_DpOT0_ CODE
 0001:0006c3a0 00000294H .text$_ZNK12_GLOBAL__N_116itanium_demangle10BinaryExpr9printLeftERNS0_12OutputBufferE CODE
 0001:0006c640 00000005H .text$_ZN12_GLOBAL__N_116itanium_demangle10BinaryExprD0Ev CODE
 0001:0006c650 0000011fH .text$_ZNK12_GLOBAL__N_116itanium_demangle4Node14printAsOperandERNS0_12OutputBufferENS1_4PrecEb CODE
 0001:0006c770 000000caH .text$_ZN12_GLOBAL__N_116itanium_demangle22AbstractManglingParserINS0_14ManglingParserINS_16DefaultAllocatorEEES3_E4makeINS0_10PrefixExprEJRNS0_10StringViewERPNS0_4NodeERNSA_4PrecEEEESB_DpOT0_ CODE
 0001:0006c840 00000096H .text$_ZNK12_GLOBAL__N_116itanium_demangle10PrefixExpr9printLeftERNS0_12OutputBufferE CODE
 0001:0006c8e0 00000005H .text$_ZN12_GLOBAL__N_116itanium_demangle10PrefixExprD0Ev CODE
 0001:0006c8f0 00000090H .text$_ZNK12_GLOBAL__N_116itanium_demangle11PostfixExpr9printLeftERNS0_12OutputBufferE CODE
 0001:0006c980 00000005H .text$_ZN12_GLOBAL__N_116itanium_demangle11PostfixExprD0Ev CODE
 0001:0006c990 000000e8H .text$_ZNK12_GLOBAL__N_116itanium_demangle18ArraySubscriptExpr9printLeftERNS0_12OutputBufferE CODE
 0001:0006ca80 00000005H .text$_ZN12_GLOBAL__N_116itanium_demangle18ArraySubscriptExprD0Ev CODE
 0001:0006ca90 000000aeH .text$_ZNK12_GLOBAL__N_116itanium_demangle10MemberExpr9printLeftERNS0_12OutputBufferE CODE
 0001:0006cb40 00000005H .text$_ZN12_GLOBAL__N_116itanium_demangle10MemberExprD0Ev CODE
 0001:0006cb50 00000305H .text$_ZNK12_GLOBAL__N_116itanium_demangle7NewExpr9printLeftERNS0_12OutputBufferE CODE
 0001:0006ce60 00000005H .text$_ZN12_GLOBAL__N_116itanium_demangle7NewExprD0Ev CODE
 0001:0006ce70 000000f8H .text$_ZNK12_GLOBAL__N_116itanium_demangle9NodeArray14printWithCommaERNS0_12OutputBufferE CODE
 0001:0006cf70 0000019dH .text$_ZNK12_GLOBAL__N_116itanium_demangle10DeleteExpr9printLeftERNS0_12OutputBufferE CODE
 0001:0006d110 00000005H .text$_ZN12_GLOBAL__N_116itanium_demangle10DeleteExprD0Ev CODE
 0001:0006d120 000000e9H .text$_ZNK12_GLOBAL__N_116itanium_demangle8CallExpr9printLeftERNS0_12OutputBufferE CODE
 0001:0006d210 00000005H .text$_ZN12_GLOBAL__N_116itanium_demangle8CallExprD0Ev CODE
 0001:0006d220 00000190H .text$_ZNK12_GLOBAL__N_116itanium_demangle14ConversionExpr9printLeftERNS0_12OutputBufferE CODE
 0001:0006d3b0 00000005H .text$_ZN12_GLOBAL__N_116itanium_demangle14ConversionExprD0Ev CODE
 0001:0006d3c0 000000fcH .text$_ZNK12_GLOBAL__N_116itanium_demangle15ConditionalExpr9printLeftERNS0_12OutputBufferE CODE
 0001:0006d4c0 00000005H .text$_ZN12_GLOBAL__N_116itanium_demangle15ConditionalExprD0Ev CODE
 0001:0006d4d0 000001f5H .text$_ZNK12_GLOBAL__N_116itanium_demangle8CastExpr9printLeftERNS0_12OutputBufferE CODE
 0001:0006d6d0 00000005H .text$_ZN12_GLOBAL__N_116itanium_demangle8CastExprD0Ev CODE
 0001:0006d6e0 000001a6H .text$_ZNK12_GLOBAL__N_116itanium_demangle13EnclosingExpr9printLeftERNS0_12OutputBufferE CODE
 0001:0006d890 00000005H .text$_ZN12_GLOBAL__N_116itanium_demangle13EnclosingExprD0Ev CODE
 0001:0006d8a0 0000013aH .text$_ZN12_GLOBAL__N_116itanium_demangle22AbstractManglingParserINS0_14ManglingParserINS_16DefaultAllocatorEEES3_E19parseIntegerLiteralENS0_10StringViewE CODE
 0001:0006d9e0 00000096H .text$_ZN12_GLOBAL__N_116itanium_demangle22AbstractManglingParserINS0_14ManglingParserINS_16DefaultAllocatorEEES3_E4makeINS0_8BoolExprEJiEEEPNS0_4NodeEDpOT0_ CODE
 0001:0006da80 00000098H .text$_ZN12_GLOBAL__N_116itanium_demangle22AbstractManglingParserINS0_14ManglingParserINS_16DefaultAllocatorEEES3_E4makeINS0_13StringLiteralEJRPNS0_4NodeEEEES9_DpOT0_ CODE
 0001:0006db20 000000acH .text$_ZN12_GLOBAL__N_116itanium_demangle22AbstractManglingParserINS0_14ManglingParserINS_16DefaultAllocatorEEES3_E4makeINS0_8NameTypeEJRA8_KcEEEPNS0_4NodeEDpOT0_ CODE
 0001:0006dbd0 00000838H .text$_ZN12_GLOBAL__N_116itanium_demangle22AbstractManglingParserINS0_14ManglingParserINS_16DefaultAllocatorEEES3_E20parseUnnamedTypeNameEPNS5_9NameStateE CODE
 0001:0006e410 00000098H .text$_ZN12_GLOBAL__N_116itanium_demangle22AbstractManglingParserINS0_14ManglingParserINS_16DefaultAllocatorEEES3_E4makeINS0_10LambdaExprEJRPNS0_4NodeEEEES9_DpOT0_ CODE
 0001:0006e4b0 000000b2H .text$_ZN12_GLOBAL__N_116itanium_demangle22AbstractManglingParserINS0_14ManglingParserINS_16DefaultAllocatorEEES3_E4makeINS0_11EnumLiteralEJRPNS0_4NodeERNS0_10StringViewEEEES9_DpOT0_ CODE
 0001:0006e570 0000027aH .text$_ZNK12_GLOBAL__N_116itanium_demangle14IntegerLiteral9printLeftERNS0_12OutputBufferE CODE
 0001:0006e7f0 00000005H .text$_ZN12_GLOBAL__N_116itanium_demangle14IntegerLiteralD0Ev CODE
 0001:0006e800 00000095H .text$_ZNK12_GLOBAL__N_116itanium_demangle8BoolExpr9printLeftERNS0_12OutputBufferE CODE
 0001:0006e8a0 00000005H .text$_ZN12_GLOBAL__N_116itanium_demangle8BoolExprD0Ev CODE
 0001:0006e8b0 000001cfH .text$_ZNK12_GLOBAL__N_116itanium_demangle16FloatLiteralImplIfE9printLeftERNS0_12OutputBufferE CODE
 0001:0006ea80 00000005H .text$_ZN12_GLOBAL__N_116itanium_demangle16FloatLiteralImplIfED0Ev CODE
 0001:0006ea90 0000029fH .text$_ZNK12_GLOBAL__N_116itanium_demangle16FloatLiteralImplIdE9printLeftERNS0_12OutputBufferE CODE
 0001:0006ed30 00000005H .text$_ZN12_GLOBAL__N_116itanium_demangle16FloatLiteralImplIdED0Ev CODE
 0001:0006ed40 00000318H .text$_ZNK12_GLOBAL__N_116itanium_demangle16FloatLiteralImplIeE9printLeftERNS0_12OutputBufferE CODE
 0001:0006f060 00000005H .text$_ZN12_GLOBAL__N_116itanium_demangle16FloatLiteralImplIeED0Ev CODE
 0001:0006f070 000000d7H .text$_ZNK12_GLOBAL__N_116itanium_demangle13StringLiteral9printLeftERNS0_12OutputBufferE CODE
 0001:0006f150 00000005H .text$_ZN12_GLOBAL__N_116itanium_demangle13StringLiteralD0Ev CODE
 0001:0006f160 000005adH .text$_ZN12_GLOBAL__N_116itanium_demangle22AbstractManglingParserINS0_14ManglingParserINS_16DefaultAllocatorEEES3_E22parseTemplateParamDeclEv CODE
 0001:0006f710 00000071H .text$_ZN12_GLOBAL__N_116itanium_demangle22AbstractManglingParserINS0_14ManglingParserINS_16DefaultAllocatorEEES3_E23ScopedTemplateParamListD2Ev CODE
 0001:0006f790 0000011bH .text$_ZNK12_GLOBAL__N_116itanium_demangle15UnnamedTypeName9printLeftERNS0_12OutputBufferE CODE
 0001:0006f8b0 00000005H .text$_ZN12_GLOBAL__N_116itanium_demangle15UnnamedTypeNameD0Ev CODE
 0001:0006f8c0 00000172H .text$_ZZN12_GLOBAL__N_116itanium_demangle22AbstractManglingParserINS0_14ManglingParserINS_16DefaultAllocatorEEES3_E22parseTemplateParamDeclEvENKUlNS0_17TemplateParamKindEE_clES6_ CODE
 0001:0006fa40 000001e8H .text$_ZNK12_GLOBAL__N_116itanium_demangle26SyntheticTemplateParamName9printLeftERNS0_12OutputBufferE CODE
 0001:0006fc30 00000005H .text$_ZN12_GLOBAL__N_116itanium_demangle26SyntheticTemplateParamNameD0Ev CODE
 0001:0006fc40 0000006bH .text$_ZNK12_GLOBAL__N_116itanium_demangle21TypeTemplateParamDecl9printLeftERNS0_12OutputBufferE CODE
 0001:0006fcb0 0000003dH .text$_ZNK12_GLOBAL__N_116itanium_demangle21TypeTemplateParamDecl10printRightERNS0_12OutputBufferE CODE
 0001:0006fcf0 00000005H .text$_ZN12_GLOBAL__N_116itanium_demangle21TypeTemplateParamDeclD0Ev CODE
 0001:0006fd00 00000088H .text$_ZNK12_GLOBAL__N_116itanium_demangle24NonTypeTemplateParamDecl9printLeftERNS0_12OutputBufferE CODE
 0001:0006fd90 00000048H .text$_ZNK12_GLOBAL__N_116itanium_demangle24NonTypeTemplateParamDecl10printRightERNS0_12OutputBufferE CODE
 0001:0006fde0 00000005H .text$_ZN12_GLOBAL__N_116itanium_demangle24NonTypeTemplateParamDeclD0Ev CODE
 0001:0006fdf0 000000f7H .text$_ZNK12_GLOBAL__N_116itanium_demangle25TemplateTemplateParamDecl9printLeftERNS0_12OutputBufferE CODE
 0001:0006fef0 0000003dH .text$_ZNK12_GLOBAL__N_116itanium_demangle25TemplateTemplateParamDecl10printRightERNS0_12OutputBufferE CODE
 0001:0006ff30 00000005H .text$_ZN12_GLOBAL__N_116itanium_demangle25TemplateTemplateParamDeclD0Ev CODE
 0001:0006ff40 0000006dH .text$_ZNK12_GLOBAL__N_116itanium_demangle21TemplateParamPackDecl9printLeftERNS0_12OutputBufferE CODE
 0001:0006ffb0 0000000eH .text$_ZNK12_GLOBAL__N_116itanium_demangle21TemplateParamPackDecl10printRightERNS0_12OutputBufferE CODE
 0001:0006ffc0 00000005H .text$_ZN12_GLOBAL__N_116itanium_demangle21TemplateParamPackDeclD0Ev CODE
 0001:0006ffd0 0000012aH .text$_ZNK12_GLOBAL__N_116itanium_demangle15ClosureTypeName9printLeftERNS0_12OutputBufferE CODE
 0001:00070100 00000005H .text$_ZN12_GLOBAL__N_116itanium_demangle15ClosureTypeNameD0Ev CODE
 0001:00070110 00000196H .text$_ZNK12_GLOBAL__N_116itanium_demangle15ClosureTypeName15printDeclaratorERNS0_12OutputBufferE CODE
 0001:000702b0 000000d2H .text$_ZNK12_GLOBAL__N_116itanium_demangle10LambdaExpr9printLeftERNS0_12OutputBufferE CODE
 0001:00070390 00000005H .text$_ZN12_GLOBAL__N_116itanium_demangle10LambdaExprD0Ev CODE
 0001:000703a0 000001c2H .text$_ZNK12_GLOBAL__N_116itanium_demangle11EnumLiteral9printLeftERNS0_12OutputBufferE CODE
 0001:00070570 00000005H .text$_ZN12_GLOBAL__N_116itanium_demangle11EnumLiteralD0Ev CODE
 0001:00070580 000000a2H .text$_ZN12_GLOBAL__N_116itanium_demangle22AbstractManglingParserINS0_14ManglingParserINS_16DefaultAllocatorEEES3_E4makeINS0_13FunctionParamEJRNS0_10StringViewEEEEPNS0_4NodeEDpOT0_ CODE
 0001:00070630 000000c5H .text$_ZNK12_GLOBAL__N_116itanium_demangle13FunctionParam9printLeftERNS0_12OutputBufferE CODE
 0001:00070700 00000001H .text$_ZN12_GLOBAL__N_116itanium_demangle4NodeD2Ev CODE
 0001:00070710 00000005H .text$_ZN12_GLOBAL__N_116itanium_demangle13FunctionParamD0Ev CODE
 0001:00070720 0000039fH .text$_ZNK12_GLOBAL__N_116itanium_demangle8FoldExpr9printLeftERNS0_12OutputBufferE CODE
 0001:00070ac0 00000005H .text$_ZN12_GLOBAL__N_116itanium_demangle8FoldExprD0Ev CODE
 0001:00070ad0 00000106H .text$_ZZNK12_GLOBAL__N_116itanium_demangle8FoldExpr9printLeftERNS0_12OutputBufferEENKUlvE_clEv CODE
 0001:00070be0 00000182H .text$_ZNK12_GLOBAL__N_116itanium_demangle22ParameterPackExpansion9printLeftERNS0_12OutputBufferE CODE
 0001:00070d70 00000005H .text$_ZN12_GLOBAL__N_116itanium_demangle22ParameterPackExpansionD0Ev CODE
 0001:00070d80 000001e5H .text$_ZNK12_GLOBAL__N_116itanium_demangle10BracedExpr9printLeftERNS0_12OutputBufferE CODE
 0001:00070f70 00000005H .text$_ZN12_GLOBAL__N_116itanium_demangle10BracedExprD0Ev CODE
 0001:00070f80 000001e7H .text$_ZNK12_GLOBAL__N_116itanium_demangle15BracedRangeExpr9printLeftERNS0_12OutputBufferE CODE
 0001:00071170 00000005H .text$_ZN12_GLOBAL__N_116itanium_demangle15BracedRangeExprD0Ev CODE
 0001:00071180 000000ebH .text$_ZNK12_GLOBAL__N_116itanium_demangle12InitListExpr9printLeftERNS0_12OutputBufferE CODE
 0001:00071270 00000005H .text$_ZN12_GLOBAL__N_116itanium_demangle12InitListExprD0Ev CODE
 0001:00071280 000001abH .text$_ZNK12_GLOBAL__N_116itanium_demangle29PointerToMemberConversionExpr9printLeftERNS0_12OutputBufferE CODE
 0001:00071430 00000005H .text$_ZN12_GLOBAL__N_116itanium_demangle29PointerToMemberConversionExprD0Ev CODE
 0001:00071440 000000a2H .text$_ZN12_GLOBAL__N_116itanium_demangle22AbstractManglingParserINS0_14ManglingParserINS_16DefaultAllocatorEEES3_E4makeINS0_8NameTypeEJNS0_10StringViewEEEEPNS0_4NodeEDpOT0_ CODE
 0001:000714f0 0000028dH .text$_ZNK12_GLOBAL__N_116itanium_demangle13SubobjectExpr9printLeftERNS0_12OutputBufferE CODE
 0001:00071780 00000005H .text$_ZN12_GLOBAL__N_116itanium_demangle13SubobjectExprD0Ev CODE
 0001:00071790 0000014cH .text$_ZNK12_GLOBAL__N_116itanium_demangle19SizeofParamPackExpr9printLeftERNS0_12OutputBufferE CODE
 0001:000718e0 00000005H .text$_ZN12_GLOBAL__N_116itanium_demangle19SizeofParamPackExprD0Ev CODE
 0001:000718f0 00000009H .text$_ZNK12_GLOBAL__N_116itanium_demangle13NodeArrayNode9printLeftERNS0_12OutputBufferE CODE
 0001:00071900 00000005H .text$_ZN12_GLOBAL__N_116itanium_demangle13NodeArrayNodeD0Ev CODE
 0001:00071910 0000009bH .text$_ZNK12_GLOBAL__N_116itanium_demangle9ThrowExpr9printLeftERNS0_12OutputBufferE CODE
 0001:000719b0 00000005H .text$_ZN12_GLOBAL__N_116itanium_demangle9ThrowExprD0Ev CODE
 0001:000719c0 0000017fH .text$_ZN12_GLOBAL__N_116itanium_demangle22AbstractManglingParserINS0_14ManglingParserINS_16DefaultAllocatorEEES3_E19parseUnresolvedTypeEv CODE
 0001:00071b40 000000ddH .text$_ZN12_GLOBAL__N_116itanium_demangle22AbstractManglingParserINS0_14ManglingParserINS_16DefaultAllocatorEEES3_E13parseSimpleIdEv CODE
 0001:00071c20 00000221H .text$_ZN12_GLOBAL__N_116itanium_demangle22AbstractManglingParserINS0_14ManglingParserINS_16DefaultAllocatorEEES3_E23parseBaseUnresolvedNameEv CODE
 0001:00071e50 000000b9H .text$_ZNK12_GLOBAL__N_116itanium_demangle13QualifiedName9printLeftERNS0_12OutputBufferE CODE
 0001:00071f10 0000001bH .text$_ZNK12_GLOBAL__N_116itanium_demangle13QualifiedName11getBaseNameEv CODE
 0001:00071f30 00000005H .text$_ZN12_GLOBAL__N_116itanium_demangle13QualifiedNameD0Ev CODE
 0001:00071f40 000003eeH .text$_ZN12_GLOBAL__N_116itanium_demangle22AbstractManglingParserINS0_14ManglingParserINS_16DefaultAllocatorEEES3_E17parseOperatorNameEPNS5_9NameStateE CODE
 0001:00072330 00000070H .text$_ZNK12_GLOBAL__N_116itanium_demangle8DtorName9printLeftERNS0_12OutputBufferE CODE
 0001:000723a0 00000005H .text$_ZN12_GLOBAL__N_116itanium_demangle8DtorNameD0Ev CODE
 0001:000723b0 000000a0H .text$_ZNK12_GLOBAL__N_116itanium_demangle22ConversionOperatorType9printLeftERNS0_12OutputBufferE CODE
 0001:00072450 00000005H .text$_ZN12_GLOBAL__N_116itanium_demangle22ConversionOperatorTypeD0Ev CODE
 0001:00072460 000000a3H .text$_ZNK12_GLOBAL__N_116itanium_demangle15LiteralOperator9printLeftERNS0_12OutputBufferE CODE
 0001:00072510 00000005H .text$_ZN12_GLOBAL__N_116itanium_demangle15LiteralOperatorD0Ev CODE
 0001:00072520 00000093H .text$_ZNK12_GLOBAL__N_116itanium_demangle19GlobalQualifiedName9printLeftERNS0_12OutputBufferE CODE
 0001:000725c0 0000001bH .text$_ZNK12_GLOBAL__N_116itanium_demangle19GlobalQualifiedName11getBaseNameEv CODE
 0001:000725e0 00000005H .text$_ZN12_GLOBAL__N_116itanium_demangle19GlobalQualifiedNameD0Ev CODE
 0001:000725f0 00000186H .text$_ZN12_GLOBAL__N_116itanium_demangle22AbstractManglingParserINS0_14ManglingParserINS_16DefaultAllocatorEEES3_E12parseAbiTagsEPNS0_4NodeE CODE
 0001:00072780 00000208H .text$_ZNK12_GLOBAL__N_116itanium_demangle19SpecialSubstitution9printLeftERNS0_12OutputBufferE CODE
 0001:00072990 000000fcH .text$_ZNK12_GLOBAL__N_116itanium_demangle19SpecialSubstitution11getBaseNameEv CODE
 0001:00072a90 00000005H .text$_ZN12_GLOBAL__N_116itanium_demangle19SpecialSubstitutionD0Ev CODE
 0001:00072aa0 000001ffH .text$_ZNK12_GLOBAL__N_116itanium_demangle27ExpandedSpecialSubstitution9printLeftERNS0_12OutputBufferE CODE
 0001:00072ca0 0000002bH .text$_ZNK12_GLOBAL__N_116itanium_demangle27ExpandedSpecialSubstitution11getBaseNameEv CODE
 0001:00072cd0 00000005H .text$_ZN12_GLOBAL__N_116itanium_demangle27ExpandedSpecialSubstitutionD0Ev CODE
 0001:00072ce0 00000123H .text$_ZNK12_GLOBAL__N_116itanium_demangle10AbiTagAttr9printLeftERNS0_12OutputBufferE CODE
 0001:00072e10 00000005H .text$_ZN12_GLOBAL__N_116itanium_demangle10AbiTagAttrD0Ev CODE
 0001:00072e20 000000c6H .text$_ZNK12_GLOBAL__N_116itanium_demangle21StructuredBindingName9printLeftERNS0_12OutputBufferE CODE
 0001:00072ef0 00000005H .text$_ZN12_GLOBAL__N_116itanium_demangle21StructuredBindingNameD0Ev CODE
 0001:00072f00 000000b0H .text$_ZN12_GLOBAL__N_116itanium_demangle22AbstractManglingParserINS0_14ManglingParserINS_16DefaultAllocatorEEES3_E4makeINS0_12CtorDtorNameEJRPNS0_4NodeEbRiEEES9_DpOT0_ CODE
 0001:00072fb0 000000e0H .text$_ZNK12_GLOBAL__N_116itanium_demangle12CtorDtorName9printLeftERNS0_12OutputBufferE CODE
 0001:00073090 00000005H .text$_ZN12_GLOBAL__N_116itanium_demangle12CtorDtorNameD0Ev CODE
 0001:000730a0 000000baH .text$_ZNK12_GLOBAL__N_116itanium_demangle12ModuleEntity9printLeftERNS0_12OutputBufferE CODE
 0001:00073160 0000001bH .text$_ZNK12_GLOBAL__N_116itanium_demangle12ModuleEntity11getBaseNameEv CODE
 0001:00073180 00000005H .text$_ZN12_GLOBAL__N_116itanium_demangle12ModuleEntityD0Ev CODE
 0001:00073190 000000b9H .text$_ZNK12_GLOBAL__N_116itanium_demangle10NestedName9printLeftERNS0_12OutputBufferE CODE
 0001:00073250 0000001bH .text$_ZNK12_GLOBAL__N_116itanium_demangle10NestedName11getBaseNameEv CODE
 0001:00073270 00000005H .text$_ZN12_GLOBAL__N_116itanium_demangle10NestedNameD0Ev CODE
 0001:00073280 00000092H .text$_ZN12_GLOBAL__N_116itanium_demangle19parse_discriminatorEPKcS2_ CODE
 0001:00073320 000000acH .text$_ZN12_GLOBAL__N_116itanium_demangle22AbstractManglingParserINS0_14ManglingParserINS_16DefaultAllocatorEEES3_E4makeINS0_8NameTypeEJRA15_KcEEEPNS0_4NodeEDpOT0_ CODE
 0001:000733d0 000000a7H .text$_ZN12_GLOBAL__N_116itanium_demangle22AbstractManglingParserINS0_14ManglingParserINS_16DefaultAllocatorEEES3_E4makeINS0_9LocalNameEJRPNS0_4NodeESA_EEES9_DpOT0_ CODE
 0001:00073480 000000b9H .text$_ZNK12_GLOBAL__N_116itanium_demangle9LocalName9printLeftERNS0_12OutputBufferE CODE
 0001:00073540 00000005H .text$_ZN12_GLOBAL__N_116itanium_demangle9LocalNameD0Ev CODE
 0001:00073550 0000004cH .text$_ZNK12_GLOBAL__N_116itanium_demangle13ParameterPack19hasRHSComponentSlowERNS0_12OutputBufferE CODE
 0001:000735a0 00000050H .text$_ZNK12_GLOBAL__N_116itanium_demangle13ParameterPack12hasArraySlowERNS0_12OutputBufferE CODE
 0001:000735f0 00000050H .text$_ZNK12_GLOBAL__N_116itanium_demangle13ParameterPack15hasFunctionSlowERNS0_12OutputBufferE CODE
 0001:00073640 0000003fH .text$_ZNK12_GLOBAL__N_116itanium_demangle13ParameterPack13getSyntaxNodeERNS0_12OutputBufferE CODE
 0001:00073680 0000003cH .text$_ZNK12_GLOBAL__N_116itanium_demangle13ParameterPack9printLeftERNS0_12OutputBufferE CODE
 0001:000736c0 0000003cH .text$_ZNK12_GLOBAL__N_116itanium_demangle13ParameterPack10printRightERNS0_12OutputBufferE CODE
 0001:00073700 00000005H .text$_ZN12_GLOBAL__N_116itanium_demangle13ParameterPackD0Ev CODE
 0001:00073710 000000d0H .text$_ZNK12_GLOBAL__N_116itanium_demangle12TemplateArgs9printLeftERNS0_12OutputBufferE CODE
 0001:000737e0 00000005H .text$_ZN12_GLOBAL__N_116itanium_demangle12TemplateArgsD0Ev CODE
 0001:000737f0 00000069H .text$_ZNK12_GLOBAL__N_116itanium_demangle20NameWithTemplateArgs9printLeftERNS0_12OutputBufferE CODE
 0001:00073860 0000001bH .text$_ZNK12_GLOBAL__N_116itanium_demangle20NameWithTemplateArgs11getBaseNameEv CODE
 0001:00073880 00000005H .text$_ZN12_GLOBAL__N_116itanium_demangle20NameWithTemplateArgsD0Ev CODE
 0001:00073890 00000009H .text$_ZNK12_GLOBAL__N_116itanium_demangle20TemplateArgumentPack9printLeftERNS0_12OutputBufferE CODE
 0001:000738a0 00000005H .text$_ZN12_GLOBAL__N_116itanium_demangle20TemplateArgumentPackD0Ev CODE
 0001:000738b0 000000d1H .text$_ZNK12_GLOBAL__N_116itanium_demangle12EnableIfAttr9printLeftERNS0_12OutputBufferE CODE
 0001:00073990 00000005H .text$_ZN12_GLOBAL__N_116itanium_demangle12EnableIfAttrD0Ev CODE
 0001:000739a0 00000003H .text$_ZNK12_GLOBAL__N_116itanium_demangle16FunctionEncoding19hasRHSComponentSlowERNS0_12OutputBufferE CODE
 0001:000739b0 00000003H .text$_ZNK12_GLOBAL__N_116itanium_demangle16FunctionEncoding15hasFunctionSlowERNS0_12OutputBufferE CODE
 0001:000739c0 000000c0H .text$_ZNK12_GLOBAL__N_116itanium_demangle16FunctionEncoding9printLeftERNS0_12OutputBufferE CODE
 0001:00073a80 000002e9H .text$_ZNK12_GLOBAL__N_116itanium_demangle16FunctionEncoding10printRightERNS0_12OutputBufferE CODE
 0001:00073d70 00000005H .text$_ZN12_GLOBAL__N_116itanium_demangle16FunctionEncodingD0Ev CODE
 0001:00073d80 00000136H .text$_ZNK12_GLOBAL__N_116itanium_demangle9DotSuffix9printLeftERNS0_12OutputBufferE CODE
 0001:00073ec0 00000005H .text$_ZN12_GLOBAL__N_116itanium_demangle9DotSuffixD0Ev CODE
 0001:00073ed0 0000068aH .text$_ZN12_GLOBAL__N_116itanium_demangle22AbstractManglingParserINS0_14ManglingParserINS_16DefaultAllocatorEEES3_E17parseFunctionTypeEv CODE
 0001:00074560 00000408H .text$_ZN12_GLOBAL__N_116itanium_demangle22AbstractManglingParserINS0_14ManglingParserINS_16DefaultAllocatorEEES3_E18parseQualifiedTypeEv CODE
 0001:00074970 000000acH .text$_ZN12_GLOBAL__N_116itanium_demangle22AbstractManglingParserINS0_14ManglingParserINS_16DefaultAllocatorEEES3_E4makeINS0_8NameTypeEJRA10_KcEEEPNS0_4NodeEDpOT0_ CODE
 0001:00074a20 000000acH .text$_ZN12_GLOBAL__N_116itanium_demangle22AbstractManglingParserINS0_14ManglingParserINS_16DefaultAllocatorEEES3_E4makeINS0_8NameTypeEJRA9_KcEEEPNS0_4NodeEDpOT0_ CODE
 0001:00074ad0 000000acH .text$_ZN12_GLOBAL__N_116itanium_demangle22AbstractManglingParserINS0_14ManglingParserINS_16DefaultAllocatorEEES3_E4makeINS0_8NameTypeEJRA11_KcEEEPNS0_4NodeEDpOT0_ CODE
 0001:00074b80 00000098H .text$_ZN12_GLOBAL__N_116itanium_demangle22AbstractManglingParserINS0_14ManglingParserINS_16DefaultAllocatorEEES3_E4makeINS0_12BinaryFPTypeEJRPNS0_4NodeEEEES9_DpOT0_ CODE
 0001:00074c20 000000a5H .text$_ZN12_GLOBAL__N_116itanium_demangle22AbstractManglingParserINS0_14ManglingParserINS_16DefaultAllocatorEEES3_E4makeINS0_10BitIntTypeEJRPNS0_4NodeERbEEES9_DpOT0_ CODE
 0001:00074cd0 0000030aH .text$_ZN12_GLOBAL__N_116itanium_demangle22AbstractManglingParserINS0_14ManglingParserINS_16DefaultAllocatorEEES3_E15parseVectorTypeEv CODE
 0001:00074fe0 00000176H .text$_ZN12_GLOBAL__N_116itanium_demangle22AbstractManglingParserINS0_14ManglingParserINS_16DefaultAllocatorEEES3_E18parseClassEnumTypeEv CODE
 0001:00075160 000000a4H .text$_ZN12_GLOBAL__N_116itanium_demangle22AbstractManglingParserINS0_14ManglingParserINS_16DefaultAllocatorEEES3_E4makeINS0_11PointerTypeEJRPNS0_4NodeEEEES9_DpOT0_ CODE
 0001:00075210 000000b5H .text$_ZN12_GLOBAL__N_116itanium_demangle22AbstractManglingParserINS0_14ManglingParserINS_16DefaultAllocatorEEES3_E4makeINS0_13ReferenceTypeEJRPNS0_4NodeENS0_13ReferenceKindEEEES9_DpOT0_ CODE
 0001:000752d0 000000b0H .text$_ZN12_GLOBAL__N_116itanium_demangle22AbstractManglingParserINS0_14ManglingParserINS_16DefaultAllocatorEEES3_E4makeINS0_20PostfixQualifiedTypeEJRPNS0_4NodeERA9_KcEEES9_DpOT0_ CODE
 0001:00075380 000000b0H .text$_ZN12_GLOBAL__N_116itanium_demangle22AbstractManglingParserINS0_14ManglingParserINS_16DefaultAllocatorEEES3_E4makeINS0_20PostfixQualifiedTypeEJRPNS0_4NodeERA11_KcEEES9_DpOT0_ CODE
 0001:00075430 00000128H .text$_ZNK12_GLOBAL__N_116itanium_demangle12NoexceptSpec9printLeftERNS0_12OutputBufferE CODE
 0001:00075560 00000005H .text$_ZN12_GLOBAL__N_116itanium_demangle12NoexceptSpecD0Ev CODE
 0001:00075570 0000011cH .text$_ZNK12_GLOBAL__N_116itanium_demangle20DynamicExceptionSpec9printLeftERNS0_12OutputBufferE CODE
 0001:00075690 00000005H .text$_ZN12_GLOBAL__N_116itanium_demangle20DynamicExceptionSpecD0Ev CODE
 0001:000756a0 00000003H .text$_ZNK12_GLOBAL__N_116itanium_demangle12FunctionType19hasRHSComponentSlowERNS0_12OutputBufferE CODE
 0001:000756b0 00000003H .text$_ZNK12_GLOBAL__N_116itanium_demangle12FunctionType15hasFunctionSlowERNS0_12OutputBufferE CODE
 0001:000756c0 00000065H .text$_ZNK12_GLOBAL__N_116itanium_demangle12FunctionType9printLeftERNS0_12OutputBufferE CODE
 0001:00075730 00000335H .text$_ZNK12_GLOBAL__N_116itanium_demangle12FunctionType10printRightERNS0_12OutputBufferE CODE
 0001:00075a70 00000005H .text$_ZN12_GLOBAL__N_116itanium_demangle12FunctionTypeD0Ev CODE
 0001:00075a80 00000133H .text$_ZNK12_GLOBAL__N_116itanium_demangle13ObjCProtoName9printLeftERNS0_12OutputBufferE CODE
 0001:00075bc0 00000005H .text$_ZN12_GLOBAL__N_116itanium_demangle13ObjCProtoNameD0Ev CODE
 0001:00075bd0 00000125H .text$_ZNK12_GLOBAL__N_116itanium_demangle17VendorExtQualType9printLeftERNS0_12OutputBufferE CODE
 0001:00075d00 00000005H .text$_ZN12_GLOBAL__N_116itanium_demangle17VendorExtQualTypeD0Ev CODE
 0001:00075d10 0000001dH .text$_ZNK12_GLOBAL__N_116itanium_demangle8QualType19hasRHSComponentSlowERNS0_12OutputBufferE CODE
 0001:00075d30 00000021H .text$_ZNK12_GLOBAL__N_116itanium_demangle8QualType12hasArraySlowERNS0_12OutputBufferE CODE
 0001:00075d60 00000021H .text$_ZNK12_GLOBAL__N_116itanium_demangle8QualType15hasFunctionSlowERNS0_12OutputBufferE CODE
 0001:00075d90 00000140H .text$_ZNK12_GLOBAL__N_116itanium_demangle8QualType9printLeftERNS0_12OutputBufferE CODE
 0001:00075ed0 0000000eH .text$_ZNK12_GLOBAL__N_116itanium_demangle8QualType10printRightERNS0_12OutputBufferE CODE
 0001:00075ee0 00000005H .text$_ZN12_GLOBAL__N_116itanium_demangle8QualTypeD0Ev CODE
 0001:00075ef0 0000009bH .text$_ZNK12_GLOBAL__N_116itanium_demangle12BinaryFPType9printLeftERNS0_12OutputBufferE CODE
 0001:00075f90 00000005H .text$_ZN12_GLOBAL__N_116itanium_demangle12BinaryFPTypeD0Ev CODE
 0001:00075fa0 000001a2H .text$_ZNK12_GLOBAL__N_116itanium_demangle10BitIntType9printLeftERNS0_12OutputBufferE CODE
 0001:00076150 00000005H .text$_ZN12_GLOBAL__N_116itanium_demangle10BitIntTypeD0Ev CODE
 0001:00076160 00000098H .text$_ZN12_GLOBAL__N_116itanium_demangle22AbstractManglingParserINS0_14ManglingParserINS_16DefaultAllocatorEEES3_E4makeINS0_15PixelVectorTypeEJRPNS0_4NodeEEEES9_DpOT0_ CODE
 0001:00076200 000000a7H .text$_ZN12_GLOBAL__N_116itanium_demangle22AbstractManglingParserINS0_14ManglingParserINS_16DefaultAllocatorEEES3_E4makeINS0_10VectorTypeEJRPNS0_4NodeESA_EEES9_DpOT0_ CODE
 0001:000762b0 000000ebH .text$_ZNK12_GLOBAL__N_116itanium_demangle15PixelVectorType9printLeftERNS0_12OutputBufferE CODE
 0001:000763a0 00000005H .text$_ZN12_GLOBAL__N_116itanium_demangle15PixelVectorTypeD0Ev CODE
 0001:000763b0 00000106H .text$_ZNK12_GLOBAL__N_116itanium_demangle10VectorType9printLeftERNS0_12OutputBufferE CODE
 0001:000764c0 00000005H .text$_ZN12_GLOBAL__N_116itanium_demangle10VectorTypeD0Ev CODE
 0001:000764d0 000000a7H .text$_ZN12_GLOBAL__N_116itanium_demangle22AbstractManglingParserINS0_14ManglingParserINS_16DefaultAllocatorEEES3_E4makeINS0_9ArrayTypeEJRPNS0_4NodeESA_EEES9_DpOT0_ CODE
 0001:00076580 00000003H .text$_ZNK12_GLOBAL__N_116itanium_demangle9ArrayType19hasRHSComponentSlowERNS0_12OutputBufferE CODE
 0001:00076590 00000003H .text$_ZNK12_GLOBAL__N_116itanium_demangle9ArrayType12hasArraySlowERNS0_12OutputBufferE CODE
 0001:000765a0 0000000eH .text$_ZNK12_GLOBAL__N_116itanium_demangle9ArrayType9printLeftERNS0_12OutputBufferE CODE
 0001:000765b0 0000015dH .text$_ZNK12_GLOBAL__N_116itanium_demangle9ArrayType10printRightERNS0_12OutputBufferE CODE
 0001:00076710 00000005H .text$_ZN12_GLOBAL__N_116itanium_demangle9ArrayTypeD0Ev CODE
 0001:00076720 000000b0H .text$_ZN12_GLOBAL__N_116itanium_demangle22AbstractManglingParserINS0_14ManglingParserINS_16DefaultAllocatorEEES3_E4makeINS0_19PointerToMemberTypeEJRPNS0_4NodeESA_EEES9_DpOT0_ CODE
 0001:000767d0 0000001dH .text$_ZNK12_GLOBAL__N_116itanium_demangle19PointerToMemberType19hasRHSComponentSlowERNS0_12OutputBufferE CODE
 0001:000767f0 00000176H .text$_ZNK12_GLOBAL__N_116itanium_demangle19PointerToMemberType9printLeftERNS0_12OutputBufferE CODE
 0001:00076970 000000b7H .text$_ZNK12_GLOBAL__N_116itanium_demangle19PointerToMemberType10printRightERNS0_12OutputBufferE CODE
 0001:00076a30 00000005H .text$_ZN12_GLOBAL__N_116itanium_demangle19PointerToMemberTypeD0Ev CODE
 0001:00076a40 00000101H .text$_ZNK12_GLOBAL__N_116itanium_demangle22ElaboratedTypeSpefType9printLeftERNS0_12OutputBufferE CODE
 0001:00076b50 00000005H .text$_ZN12_GLOBAL__N_116itanium_demangle22ElaboratedTypeSpefTypeD0Ev CODE
 0001:00076b60 0000001dH .text$_ZNK12_GLOBAL__N_116itanium_demangle11PointerType19hasRHSComponentSlowERNS0_12OutputBufferE CODE
 0001:00076b80 000002b3H .text$_ZNK12_GLOBAL__N_116itanium_demangle11PointerType9printLeftERNS0_12OutputBufferE CODE
 0001:00076e40 00000103H .text$_ZNK12_GLOBAL__N_116itanium_demangle11PointerType10printRightERNS0_12OutputBufferE CODE
 0001:00076f50 00000005H .text$_ZN12_GLOBAL__N_116itanium_demangle11PointerTypeD0Ev CODE
 0001:00076f60 0000001dH .text$_ZNK12_GLOBAL__N_116itanium_demangle13ReferenceType19hasRHSComponentSlowERNS0_12OutputBufferE CODE
 0001:00076f80 000001ddH .text$_ZNK12_GLOBAL__N_116itanium_demangle13ReferenceType9printLeftERNS0_12OutputBufferE CODE
 0001:00077160 000000f4H .text$_ZNK12_GLOBAL__N_116itanium_demangle13ReferenceType10printRightERNS0_12OutputBufferE CODE
 0001:00077260 00000005H .text$_ZN12_GLOBAL__N_116itanium_demangle13ReferenceTypeD0Ev CODE
 0001:00077270 000001b3H .text$_ZNK12_GLOBAL__N_116itanium_demangle13ReferenceType8collapseERNS0_12OutputBufferE CODE
 0001:00077430 00000082H .text$_ZNK12_GLOBAL__N_116itanium_demangle20PostfixQualifiedType9printLeftERNS0_12OutputBufferE CODE
 0001:000774c0 00000005H .text$_ZN12_GLOBAL__N_116itanium_demangle20PostfixQualifiedTypeD0Ev CODE
 0001:000774c8 00000000H .text                   CODE
 0001:000774d0 00000011H .text$__cxa_pure_virtual CODE
 0001:000774f0 00000011H .text$__cxa_deleted_virtual CODE
 0001:00077510 000038c4H .text                   CODE
 0001:0007ade0 00000089H .text$_Z18__libcpp_vasprintfPPcPKcS_ CODE
 0001:0007ae70 000000cfH .text$mbsnrtowcs        CODE
 0001:0007af40 000001a3H .text$wcsnrtombs        CODE
 0001:0007b0f0 00000050H .text                   CODE
 0001:0007b140 00000018H .text$_ZNSt3__118condition_variable10notify_oneEv CODE
 0001:0007b160 00000018H .text$_ZNSt3__118condition_variable10notify_allEv CODE
 0001:0007b180 00000040H .text$_ZNSt3__118condition_variable4waitERNS_11unique_lockINS_5mutexEEE CODE
 0001:0007b1c0 00000091H .text$_ZNSt3__118condition_variable15__do_timed_waitERNS_11unique_lockINS_5mutexEEENS_6chrono10time_pointINS5_12system_clockENS5_8durationIxNS_5ratioILx1ELx1000000000EEEEEEE CODE
 0001:0007b260 00000084H .text$_ZNSt3__125notify_all_at_thread_exitERNS_18condition_variableENS_11unique_lockINS_5mutexEEE CODE
 0001:0007b2e4 00000000H .text                   CODE
 0001:0007b2f0 00000047H .text$_ZNSt3__16chrono12system_clock3nowEv CODE
 0001:0007b340 0000001cH .text$_ZNSt3__16chrono12system_clock9to_time_tERKNS0_10time_pointIS1_NS0_8durationIxNS_5ratioILx1ELx1000000EEEEEEE CODE
 0001:0007b360 00000008H .text$_ZNSt3__16chrono12system_clock11from_time_tEx CODE
 0001:0007b370 000000c2H .text$_ZNSt3__16chrono12steady_clock3nowEv CODE
 0001:0007b440 00000039H .text$_GLOBAL__I_000100 CODE
 0001:0007b480 00003800H .text                   CODE
 0001:0007ec80 00000020H .text$_ZNSt3__16threadD2Ev CODE
 0001:0007eca0 0000003eH .text$_ZNSt3__16thread4joinEv CODE
 0001:0007ece0 0000003eH .text$_ZNSt3__16thread6detachEv CODE
 0001:0007ed20 00000020H .text$_ZNSt3__16thread20hardware_concurrencyEv CODE
 0001:0007ed40 0000000cH .text$_ZNSt3__111this_thread9sleep_forERKNS_6chrono8durationIxNS_5ratioILx1ELx1000000000EEEEE CODE
 0001:0007ed50 00000069H .text$_ZNSt3__119__thread_local_dataEv CODE
 0001:0007edc0 00000028H .text$_ZNSt3__121__thread_specific_ptrINS_15__thread_structEEC2Ev CODE
 0001:0007edf0 000000b6H .text$_ZNSt3__119__thread_struct_impD2Ev CODE
 0001:0007eeb0 00000127H .text$_ZNSt3__119__thread_struct_imp25notify_all_at_thread_exitEPNS_18condition_variableEPNS_5mutexE CODE
 0001:0007efe0 000000fdH .text$_ZNSt3__119__thread_struct_imp27__make_ready_at_thread_exitEPNS_17__assoc_sub_stateE CODE
 0001:0007f0e0 00000029H .text$_ZNSt3__115__thread_structC2Ev CODE
 0001:0007f110 00000029H .text$_ZNSt3__115__thread_structD2Ev CODE
 0001:0007f140 00000008H .text$_ZNSt3__115__thread_struct25notify_all_at_thread_exitEPNS_18condition_variableEPNS_5mutexE CODE
 0001:0007f150 000000fdH .text$_ZNSt3__115__thread_struct27__make_ready_at_thread_exitEPNS_17__assoc_sub_stateE CODE
 0001:0007f250 00000011H .text$_ZNKSt3__16vectorINS_4pairIPNS_18condition_variableEPNS_5mutexEEENS_18__hidden_allocatorIS6_EEE20__throw_length_errorB6v15007Ev CODE
 0001:0007f270 00000011H .text$_ZNKSt3__16vectorIPNS_17__assoc_sub_stateENS_18__hidden_allocatorIS2_EEE20__throw_length_errorB6v15007Ev CODE
 0001:0007f290 0000003cH .text$_ZNSt3__121__thread_specific_ptrINS_15__thread_structEE16__at_thread_exitEPv CODE
 0001:0007f2d0 00000124H .text                   CODE
 0001:0007f400 00000008H .text$_ZNKSt3__123__future_error_category4nameEv CODE
 0001:0007f410 000001b4H .text$_ZNKSt3__123__future_error_category7messageEi CODE
 0001:0007f5d0 0000004fH .text$_ZNSt3__115future_categoryEv CODE
 0001:0007f620 0000000cH .text$__dtor__ZZNSt3__115future_categoryEvE3__f CODE
 0001:0007f630 0000006fH .text$_ZNSt3__112future_errorC2ENS_10error_codeE CODE
 0001:0007f6a0 00000005H .text$_ZNSt3__112future_errorD2Ev CODE
 0001:0007f6b0 0000001aH .text$_ZNSt3__112future_errorD0Ev CODE
 0001:0007f6d0 00000007H .text$_ZNSt3__117__assoc_sub_state16__on_zero_sharedEv CODE
 0001:0007f6e0 00000077H .text$_ZNSt3__117__assoc_sub_state9set_valueEv CODE
 0001:0007f760 00000091H .text$_ZNSt3__120__throw_future_errorB6v15007ENS_11future_errcE CODE
 0001:0007f800 00000082H .text$_ZNSt3__117__assoc_sub_state24set_value_at_thread_exitEv CODE
 0001:0007f890 0000008aH .text$_ZNSt3__117__assoc_sub_state13set_exceptionESt13exception_ptr CODE
 0001:0007f920 00000091H .text$_ZNSt3__117__assoc_sub_state28set_exception_at_thread_exitESt13exception_ptr CODE
 0001:0007f9c0 00000033H .text$_ZNSt3__117__assoc_sub_state12__make_readyEv CODE
 0001:0007fa00 000000e8H .text$_ZNSt3__117__assoc_sub_state4copyEv CODE
 0001:0007faf0 00000074H .text$_ZNSt3__117__assoc_sub_state10__sub_waitERNS_11unique_lockINS_5mutexEEE CODE
 0001:0007fb70 0000008aH .text$_ZNSt3__117__assoc_sub_state4waitEv CODE
 0001:0007fc00 0000000fH .text$_ZNSt3__117__assoc_sub_state9__executeEv CODE
 0001:0007fc10 00000055H .text$_ZNSt3__16futureIvEC2EPNS_17__assoc_sub_stateE CODE
 0001:0007fc70 0000001eH .text$_ZNSt3__16futureIvED2Ev CODE
 0001:0007fc90 00000065H .text$_ZNSt3__16futureIvE3getEv CODE
 0001:0007fd00 00000037H .text$_ZNSt3__17promiseIvEC2Ev CODE
 0001:0007fd40 000001a4H .text$_ZNSt3__17promiseIvED2Ev CODE
 0001:0007fef0 0000006dH .text$_ZNSt3__17promiseIvE10get_futureEv CODE
 0001:0007ff60 00000086H .text$_ZNSt3__17promiseIvE9set_valueEv CODE
 0001:0007fff0 00000058H .text$_ZNSt3__17promiseIvE13set_exceptionESt13exception_ptr CODE
 0001:00080050 00000020H .text$_ZNSt3__17promiseIvE24set_value_at_thread_exitEv CODE
 0001:00080070 00000058H .text$_ZNSt3__17promiseIvE28set_exception_at_thread_exitESt13exception_ptr CODE
 0001:000800d0 0000001eH .text$_ZNSt3__113shared_futureIvED2Ev CODE
 0001:000800f0 00000044H .text$_ZNSt3__113shared_futureIvEaSERKS1_ CODE
 0001:00080140 00000028H .text$_ZNSt3__117__assoc_sub_stateD2Ev CODE
 0001:00080170 00000030H .text$_ZNSt3__117__assoc_sub_stateD0Ev CODE
 0001:000801a0 0000001aH .text$_ZNSt3__123__future_error_categoryD0Ev CODE
 0001:000801bc 00000000H .text                   CODE
 0002:00000000 00000008H .rdata$.refptr.__dyn_tls_init_callback DATA
 0002:00000008 00000008H .rdata$.refptr.__mingw_app_type DATA
 0002:00000010 00000008H .rdata$.refptr.__native_dllmain_reason DATA
 0002:00000018 00000008H .rdata$.refptr.__native_startup_lock DATA
 0002:00000020 00000008H .rdata$.refptr.__native_startup_state DATA
 0002:00000028 00000008H .rdata$.refptr.__xc_a   DATA
 0002:00000030 00000008H .rdata$.refptr.__xc_z   DATA
 0002:00000038 00000008H .rdata$.refptr.__xi_a   DATA
 0002:00000040 00000008H .rdata$.refptr.__xi_z   DATA
 0002:00000048 00000193H .rdata                  DATA
 0002:000001e0 00000008H .rdata$.refptr._ZNSt3__14cerrE DATA
 0002:000001e8 00000008H .rdata$.refptr._ZNSt3__15ctypeIcE2idE DATA
 0002:000001f0 00000012H .rdata                  DATA
 0002:00000208 00000008H .rdata$.refptr.__imp__tzset DATA
 0002:00000210 00000008H .rdata$.refptr.__mingw_module_is_dll DATA
 0002:00000218 00000008H .rdata$.refptr.__CTOR_LIST__ DATA
 0002:00000220 00000030H .rdata                  DATA
 0002:00000250 00000008H .rdata$.refptr._CRT_MT  DATA
 0002:00000258 00000143H .rdata                  DATA
 0002:000003a0 00000008H .rdata$.refptr.__RUNTIME_PSEUDO_RELOC_LIST_END__ DATA
 0002:000003a8 00000008H .rdata$.refptr.__RUNTIME_PSEUDO_RELOC_LIST__ DATA
 0002:000003b0 00000008H .rdata$.refptr.__image_base__ DATA
 0002:000003b8 00000083H .rdata                  DATA
 0002:00000440 00000008H .rdata$.refptr.__cxa_new_handler DATA
 0002:00000448 00000008H .rdata$.refptr.__cxa_terminate_handler DATA
 0002:00000450 00000008H .rdata$.refptr.__cxa_unexpected_handler DATA
 0002:00000458 00000008H .rdata$.refptr.pop_frame_proc DATA
 0002:00000460 00000008H .rdata$.refptr.push_frame_proc DATA
 0002:00000468 00000012H .rdata$_ZTSSt13bad_exception DATA
 0002:0000047a 0000000dH .rdata$_ZTSSt9exception DATA
 0002:00000488 00000010H .rdata$_ZTISt9exception DATA
 0002:00000498 00000018H .rdata$_ZTISt13bad_exception DATA
 0002:000004b0 000001d0H .rdata                  DATA
 0002:00000680 00000008H .rdata$.refptr._ZTVSt13bad_exception DATA
 0002:00000688 00000008H .rdata$.refptr.get_except_obj_proc DATA
 0002:00000690 00000020H .rdata$_ZTVSt16nested_exception DATA
 0002:000006b0 00000015H .rdata$_ZTSSt16nested_exception DATA
 0002:000006c8 00000010H .rdata$_ZTISt16nested_exception DATA
 0002:000006e0 00000030H .rdata                  DATA
 0002:00000710 00000008H .rdata$_ZNSt3__112basic_stringIcNS_11char_traitsIcEENS_9allocatorIcEEE4nposE DATA
 0002:00000718 00000008H .rdata$_ZNSt3__112basic_stringIwNS_11char_traitsIwEENS_9allocatorIwEEE4nposE DATA
 0002:00000720 00000050H .rdata                  DATA
 0002:00000770 00000019H .rdata$_ZTSSt20bad_array_new_length DATA
 0002:00000789 0000000dH .rdata$_ZTSSt9bad_alloc DATA
 0002:00000798 00000018H .rdata$_ZTISt9bad_alloc DATA
 0002:000007b0 00000018H .rdata$_ZTISt20bad_array_new_length DATA
 0002:000007c8 00000014H .rdata                  DATA
 0002:000007dc 00000011H .rdata$_ZTSSt12length_error DATA
 0002:000007ed 00000010H .rdata$_ZTSSt11logic_error DATA
 0002:00000800 00000018H .rdata$_ZTISt11logic_error DATA
 0002:00000818 00000018H .rdata$_ZTISt12length_error DATA
 0002:00000830 00000011H .rdata$_ZTSSt12out_of_range DATA
 0002:00000848 00000018H .rdata$_ZTISt12out_of_range DATA
 0002:00000860 00000010H .rdata                  DATA
 0002:00000870 00000015H .rdata$_ZTSSt16invalid_argument DATA
 0002:00000888 00000018H .rdata$_ZTISt16invalid_argument DATA
 0002:000008a0 0000000fH .rdata                  DATA
 0002:000008b0 00000028H .rdata$_ZNSt3__16__itoa7__tableIvE10__pow10_32E DATA
 0002:000008e0 000000c8H .rdata$_ZNSt3__16__itoa7__tableIvE16__digits_base_10E DATA
 0002:000009b0 000000a0H .rdata$_ZNSt3__16__itoa7__tableIvE10__pow10_64E DATA
 0002:00000a50 00000008H .rdata$.refptr._ZTVSt12length_error DATA
 0002:00000a58 00000008H .rdata$.refptr._ZTVSt12out_of_range DATA
 0002:00000a60 00000008H .rdata$.refptr._ZTVSt16invalid_argument DATA
 0002:00000a70 0000004dH .rdata                  DATA
 0002:00000ac0 00000048H .rdata$_ZTVNSt3__119__iostream_categoryE DATA
 0002:00000b08 00000028H .rdata$_ZTVNSt3__18ios_base7failureE DATA
 0002:00000b30 00000004H .rdata$_ZNSt3__18ios_base9boolalphaE DATA
 0002:00000b34 00000004H .rdata$_ZNSt3__18ios_base3decE DATA
 0002:00000b38 00000004H .rdata$_ZNSt3__18ios_base5fixedE DATA
 0002:00000b3c 00000004H .rdata$_ZNSt3__18ios_base3hexE DATA
 0002:00000b40 00000004H .rdata$_ZNSt3__18ios_base8internalE DATA
 0002:00000b44 00000004H .rdata$_ZNSt3__18ios_base4leftE DATA
 0002:00000b48 00000004H .rdata$_ZNSt3__18ios_base3octE DATA
 0002:00000b4c 00000004H .rdata$_ZNSt3__18ios_base5rightE DATA
 0002:00000b50 00000004H .rdata$_ZNSt3__18ios_base10scientificE DATA
 0002:00000b54 00000004H .rdata$_ZNSt3__18ios_base8showbaseE DATA
 0002:00000b58 00000004H .rdata$_ZNSt3__18ios_base9showpointE DATA
 0002:00000b5c 00000004H .rdata$_ZNSt3__18ios_base7showposE DATA
 0002:00000b60 00000004H .rdata$_ZNSt3__18ios_base6skipwsE DATA
 0002:00000b64 00000004H .rdata$_ZNSt3__18ios_base7unitbufE DATA
 0002:00000b68 00000004H .rdata$_ZNSt3__18ios_base9uppercaseE DATA
 0002:00000b6c 00000004H .rdata$_ZNSt3__18ios_base11adjustfieldE DATA
 0002:00000b70 00000004H .rdata$_ZNSt3__18ios_base9basefieldE DATA
 0002:00000b74 00000004H .rdata$_ZNSt3__18ios_base10floatfieldE DATA
 0002:00000b78 00000004H .rdata$_ZNSt3__18ios_base6badbitE DATA
 0002:00000b7c 00000004H .rdata$_ZNSt3__18ios_base6eofbitE DATA
 0002:00000b80 00000004H .rdata$_ZNSt3__18ios_base7failbitE DATA
 0002:00000b84 00000004H .rdata$_ZNSt3__18ios_base7goodbitE DATA
 0002:00000b88 00000004H .rdata$_ZNSt3__18ios_base3appE DATA
 0002:00000b8c 00000004H .rdata$_ZNSt3__18ios_base3ateE DATA
 0002:00000b90 00000004H .rdata$_ZNSt3__18ios_base6binaryE DATA
 0002:00000b94 00000004H .rdata$_ZNSt3__18ios_base2inE DATA
 0002:00000b98 00000004H .rdata$_ZNSt3__18ios_base3outE DATA
 0002:00000b9c 00000004H .rdata$_ZNSt3__18ios_base5truncE DATA
 0002:00000ba0 00000020H .rdata$_ZTVNSt3__18ios_baseE DATA
 0002:00000bc0 00000010H .rdata                  DATA
 0002:00000bd0 00000012H .rdata$_ZTSNSt3__18ios_baseE DATA
 0002:00000be8 00000010H .rdata$_ZTINSt3__18ios_baseE DATA
 0002:00000bf8 0000001aH .rdata$_ZTSNSt3__18ios_base7failureE DATA
 0002:00000c12 00000017H .rdata$_ZTSNSt3__112system_errorE DATA
 0002:00000c29 00000012H .rdata$_ZTSSt13runtime_error DATA
 0002:00000c40 00000018H .rdata$_ZTISt13runtime_error DATA
 0002:00000c58 00000018H .rdata$_ZTINSt3__112system_errorE DATA
 0002:00000c70 00000018H .rdata$_ZTINSt3__18ios_base7failureE DATA
 0002:00000c88 0000001eH .rdata$_ZTSNSt3__119__iostream_categoryE DATA
 0002:00000ca6 00000017H .rdata$_ZTSNSt3__112__do_messageE DATA
 0002:00000cbd 00000019H .rdata$_ZTSNSt3__114error_categoryE DATA
 0002:00000cd8 00000010H .rdata$_ZTINSt3__114error_categoryE DATA
 0002:00000ce8 00000018H .rdata$_ZTINSt3__112__do_messageE DATA
 0002:00000d00 00000018H .rdata$_ZTINSt3__119__iostream_categoryE DATA
 0002:00000d20 000000a0H .rdata                  DATA
 0002:00000dc0 00000080H .rdata$_ZTVNSt3__115basic_streambufIcNS_11char_traitsIcEEEE DATA
 0002:00000e40 00000050H .rdata$_ZTVNSt3__113basic_istreamIcNS_11char_traitsIcEEEE DATA
 0002:00000e90 00000010H .rdata$_ZTTNSt3__113basic_istreamIcNS_11char_traitsIcEEEE DATA
 0002:00000ea0 00000050H .rdata$_ZTVNSt3__113basic_ostreamIcNS_11char_traitsIcEEEE DATA
 0002:00000ef0 00000010H .rdata$_ZTTNSt3__113basic_ostreamIcNS_11char_traitsIcEEEE DATA
 0002:00000f00 00000078H .rdata$_ZTVNSt3__114basic_iostreamIcNS_11char_traitsIcEEEE DATA
 0002:00000f78 00000038H .rdata$_ZTTNSt3__114basic_iostreamIcNS_11char_traitsIcEEEE DATA
 0002:00000fb0 00000080H .rdata$_ZTVNSt3__115basic_streambufIwNS_11char_traitsIwEEEE DATA
 0002:00001030 00000050H .rdata$_ZTVNSt3__113basic_istreamIwNS_11char_traitsIwEEEE DATA
 0002:00001080 00000010H .rdata$_ZTTNSt3__113basic_istreamIwNS_11char_traitsIwEEEE DATA
 0002:00001090 00000050H .rdata$_ZTVNSt3__113basic_ostreamIwNS_11char_traitsIwEEEE DATA
 0002:000010e0 00000010H .rdata$_ZTTNSt3__113basic_ostreamIwNS_11char_traitsIwEEEE DATA
 0002:000010f0 00000080H .rdata$_ZTVNSt3__115basic_stringbufIcNS_11char_traitsIcEENS_9allocatorIcEEEE DATA
 0002:00001170 00000080H .rdata$_ZTVNSt3__113basic_filebufIcNS_11char_traitsIcEEEE DATA
 0002:000011f0 00000048H .rdata                  DATA
 0002:00001238 00000020H .rdata$_ZTVNSt3__19basic_iosIcNS_11char_traitsIcEEEE DATA
 0002:00001258 0000002aH .rdata$_ZTSNSt3__19basic_iosIcNS_11char_traitsIcEEEE DATA
 0002:00001288 00000018H .rdata$_ZTINSt3__19basic_iosIcNS_11char_traitsIcEEEE DATA
 0002:000012a0 00000031H .rdata$_ZTSNSt3__115basic_streambufIcNS_11char_traitsIcEEEE DATA
 0002:000012d8 00000010H .rdata$_ZTINSt3__115basic_streambufIcNS_11char_traitsIcEEEE DATA
 0002:000012e8 0000002fH .rdata$_ZTSNSt3__113basic_istreamIcNS_11char_traitsIcEEEE DATA
 0002:00001318 00000028H .rdata$_ZTINSt3__113basic_istreamIcNS_11char_traitsIcEEEE DATA
 0002:00001340 0000002fH .rdata$_ZTSNSt3__113basic_ostreamIcNS_11char_traitsIcEEEE DATA
 0002:00001370 00000028H .rdata$_ZTINSt3__113basic_ostreamIcNS_11char_traitsIcEEEE DATA
 0002:00001398 00000050H .rdata$_ZTCNSt3__114basic_iostreamIcNS_11char_traitsIcEEEE0_NS_13basic_istreamIcS2_EE DATA
 0002:000013e8 00000050H .rdata$_ZTCNSt3__114basic_iostreamIcNS_11char_traitsIcEEEE16_NS_13basic_ostreamIcS2_EE DATA
 0002:00001438 00000030H .rdata$_ZTSNSt3__114basic_iostreamIcNS_11char_traitsIcEEEE DATA
 0002:00001468 00000038H .rdata$_ZTINSt3__114basic_iostreamIcNS_11char_traitsIcEEEE DATA
 0002:000014a0 00000020H .rdata$_ZTVNSt3__19basic_iosIwNS_11char_traitsIwEEEE DATA
 0002:000014c0 0000002aH .rdata$_ZTSNSt3__19basic_iosIwNS_11char_traitsIwEEEE DATA
 0002:000014f0 00000018H .rdata$_ZTINSt3__19basic_iosIwNS_11char_traitsIwEEEE DATA
 0002:00001508 00000031H .rdata$_ZTSNSt3__115basic_streambufIwNS_11char_traitsIwEEEE DATA
 0002:00001540 00000010H .rdata$_ZTINSt3__115basic_streambufIwNS_11char_traitsIwEEEE DATA
 0002:00001550 0000002fH .rdata$_ZTSNSt3__113basic_istreamIwNS_11char_traitsIwEEEE DATA
 0002:00001580 00000028H .rdata$_ZTINSt3__113basic_istreamIwNS_11char_traitsIwEEEE DATA
 0002:000015a8 0000002fH .rdata$_ZTSNSt3__113basic_ostreamIwNS_11char_traitsIwEEEE DATA
 0002:000015d8 00000028H .rdata$_ZTINSt3__113basic_ostreamIwNS_11char_traitsIwEEEE DATA
 0002:00001600 00000042H .rdata$_ZTSNSt3__115basic_stringbufIcNS_11char_traitsIcEENS_9allocatorIcEEEE DATA
 0002:00001648 00000018H .rdata$_ZTINSt3__115basic_stringbufIcNS_11char_traitsIcEENS_9allocatorIcEEEE DATA
 0002:00001660 00000078H .rdata$_ZTVNSt3__118basic_stringstreamIcNS_11char_traitsIcEENS_9allocatorIcEEEE DATA
 0002:000016d8 00000050H .rdata$_ZTTNSt3__118basic_stringstreamIcNS_11char_traitsIcEENS_9allocatorIcEEEE DATA
 0002:00001728 00000078H .rdata$_ZTCNSt3__118basic_stringstreamIcNS_11char_traitsIcEENS_9allocatorIcEEEE0_NS_14basic_iostreamIcS2_EE DATA
 0002:000017a0 00000050H .rdata$_ZTCNSt3__118basic_stringstreamIcNS_11char_traitsIcEENS_9allocatorIcEEEE0_NS_13basic_istreamIcS2_EE DATA
 0002:000017f0 00000050H .rdata$_ZTCNSt3__118basic_stringstreamIcNS_11char_traitsIcEENS_9allocatorIcEEEE16_NS_13basic_ostreamIcS2_EE DATA
 0002:00001840 00000045H .rdata$_ZTSNSt3__118basic_stringstreamIcNS_11char_traitsIcEENS_9allocatorIcEEEE DATA
 0002:00001888 00000018H .rdata$_ZTINSt3__118basic_stringstreamIcNS_11char_traitsIcEENS_9allocatorIcEEEE DATA
 0002:000018a0 00000050H .rdata$_ZTVNSt3__119basic_ostringstreamIcNS_11char_traitsIcEENS_9allocatorIcEEEE DATA
 0002:000018f0 00000020H .rdata$_ZTTNSt3__119basic_ostringstreamIcNS_11char_traitsIcEENS_9allocatorIcEEEE DATA
 0002:00001910 00000050H .rdata$_ZTCNSt3__119basic_ostringstreamIcNS_11char_traitsIcEENS_9allocatorIcEEEE0_NS_13basic_ostreamIcS2_EE DATA
 0002:00001960 00000046H .rdata$_ZTSNSt3__119basic_ostringstreamIcNS_11char_traitsIcEENS_9allocatorIcEEEE DATA
 0002:000019a8 00000018H .rdata$_ZTINSt3__119basic_ostringstreamIcNS_11char_traitsIcEENS_9allocatorIcEEEE DATA
 0002:000019c0 00000050H .rdata$_ZTVNSt3__119basic_istringstreamIcNS_11char_traitsIcEENS_9allocatorIcEEEE DATA
 0002:00001a10 00000020H .rdata$_ZTTNSt3__119basic_istringstreamIcNS_11char_traitsIcEENS_9allocatorIcEEEE DATA
 0002:00001a30 00000050H .rdata$_ZTCNSt3__119basic_istringstreamIcNS_11char_traitsIcEENS_9allocatorIcEEEE0_NS_13basic_istreamIcS2_EE DATA
 0002:00001a80 00000046H .rdata$_ZTSNSt3__119basic_istringstreamIcNS_11char_traitsIcEENS_9allocatorIcEEEE DATA
 0002:00001ac8 00000018H .rdata$_ZTINSt3__119basic_istringstreamIcNS_11char_traitsIcEENS_9allocatorIcEEEE DATA
 0002:00001ae0 00000050H .rdata$_ZTVNSt3__114basic_ifstreamIcNS_11char_traitsIcEEEE DATA
 0002:00001b30 00000020H .rdata$_ZTTNSt3__114basic_ifstreamIcNS_11char_traitsIcEEEE DATA
 0002:00001b50 00000050H .rdata$_ZTCNSt3__114basic_ifstreamIcNS_11char_traitsIcEEEE0_NS_13basic_istreamIcS2_EE DATA
 0002:00001ba0 00000030H .rdata$_ZTSNSt3__114basic_ifstreamIcNS_11char_traitsIcEEEE DATA
 0002:00001bd0 00000018H .rdata$_ZTINSt3__114basic_ifstreamIcNS_11char_traitsIcEEEE DATA
 0002:00001be8 00000050H .rdata$_ZTVNSt3__114basic_ofstreamIcNS_11char_traitsIcEEEE DATA
 0002:00001c38 00000020H .rdata$_ZTTNSt3__114basic_ofstreamIcNS_11char_traitsIcEEEE DATA
 0002:00001c58 00000050H .rdata$_ZTCNSt3__114basic_ofstreamIcNS_11char_traitsIcEEEE0_NS_13basic_ostreamIcS2_EE DATA
 0002:00001ca8 00000030H .rdata$_ZTSNSt3__114basic_ofstreamIcNS_11char_traitsIcEEEE DATA
 0002:00001cd8 00000018H .rdata$_ZTINSt3__114basic_ofstreamIcNS_11char_traitsIcEEEE DATA
 0002:00001cf0 0000002fH .rdata$_ZTSNSt3__113basic_filebufIcNS_11char_traitsIcEEEE DATA
 0002:00001d20 00000018H .rdata$_ZTINSt3__113basic_filebufIcNS_11char_traitsIcEEEE DATA
 0002:00001d38 0000000dH .rdata                  DATA
 0002:00001d45 0000000cH .rdata$_ZTSSt8bad_cast  DATA
 0002:00001d58 00000018H .rdata$_ZTISt8bad_cast  DATA
 0002:00001d70 00000024H .rdata                  DATA
 0002:00001d98 00000008H .rdata$.refptr._ZNSt3__15ctypeIwE2idE DATA
 0002:00001da0 00000008H .rdata$.refptr._ZNSt3__17codecvtIcc9_MbstatetE2idE DATA
 0002:00001da8 00000008H .rdata$.refptr._ZNSt3__17num_getIcNS_19istreambuf_iteratorIcNS_11char_traitsIcEEEEE2idE DATA
 0002:00001db0 00000008H .rdata$.refptr._ZNSt3__17num_getIwNS_19istreambuf_iteratorIwNS_11char_traitsIwEEEEE2idE DATA
 0002:00001db8 00000008H .rdata$.refptr._ZNSt3__17num_putIcNS_19ostreambuf_iteratorIcNS_11char_traitsIcEEEEE2idE DATA
 0002:00001dc0 00000008H .rdata$.refptr._ZNSt3__17num_putIwNS_19ostreambuf_iteratorIwNS_11char_traitsIwEEEEE2idE DATA
 0002:00001dc8 00000002H .rdata                  DATA
 0002:00001dd0 00000080H .rdata$_ZTVNSt3__110__stdinbufIcEE DATA
 0002:00001e50 00000018H .rdata$_ZTSNSt3__110__stdinbufIcEE DATA
 0002:00001e68 00000018H .rdata$_ZTINSt3__110__stdinbufIcEE DATA
 0002:00001e80 00000026H .rdata                  DATA
 0002:00001ea8 00000080H .rdata$_ZTVNSt3__111__stdoutbufIcEE DATA
 0002:00001f28 00000019H .rdata$_ZTSNSt3__111__stdoutbufIcEE DATA
 0002:00001f48 00000018H .rdata$_ZTINSt3__111__stdoutbufIcEE DATA
 0002:00001f60 00000080H .rdata$_ZTVNSt3__110__stdinbufIwEE DATA
 0002:00001fe0 00000018H .rdata$_ZTSNSt3__110__stdinbufIwEE DATA
 0002:00001ff8 00000018H .rdata$_ZTINSt3__110__stdinbufIwEE DATA
 0002:00002010 00000080H .rdata$_ZTVNSt3__111__stdoutbufIwEE DATA
 0002:00002090 00000019H .rdata$_ZTSNSt3__111__stdoutbufIwEE DATA
 0002:000020b0 00000018H .rdata$_ZTINSt3__111__stdoutbufIwEE DATA
 0002:000020c8 00000008H .rdata$.refptr._ZNSt3__17codecvtIwc9_MbstatetE2idE DATA
 0002:000020d0 00000008H .rdata$.refptr._ZTVNSt3__113basic_istreamIcNS_11char_traitsIcEEEE DATA
 0002:000020d8 00000008H .rdata$.refptr._ZTVNSt3__113basic_istreamIwNS_11char_traitsIwEEEE DATA
 0002:000020e0 00000008H .rdata$.refptr._ZTVNSt3__113basic_ostreamIcNS_11char_traitsIcEEEE DATA
 0002:000020e8 00000008H .rdata$.refptr._ZTVNSt3__113basic_ostreamIwNS_11char_traitsIwEEEE DATA
 0002:000020f0 000000c0H .rdata                  DATA
 0002:000021b0 00000021H .rdata$_ZNSt3__114__num_get_base5__srcE DATA
 0002:000021d1 0000006fH .rdata                  DATA
 0002:00002240 00000001H .rdata$_ZNSt3__110moneypunctIcLb0EE4intlE DATA
 0002:00002241 00000001H .rdata$_ZNSt3__110moneypunctIcLb1EE4intlE DATA
 0002:00002242 00000001H .rdata$_ZNSt3__110moneypunctIwLb0EE4intlE DATA
 0002:00002243 00000001H .rdata$_ZNSt3__110moneypunctIwLb1EE4intlE DATA
 0002:00002244 00000027H .rdata                  DATA
 0002:0000226c 00000004H .rdata$_ZNSt3__16locale4noneE DATA
 0002:00002270 00000004H .rdata$_ZNSt3__16locale7collateE DATA
 0002:00002274 00000004H .rdata$_ZNSt3__16locale5ctypeE DATA
 0002:00002278 00000004H .rdata$_ZNSt3__16locale8monetaryE DATA
 0002:0000227c 00000004H .rdata$_ZNSt3__16locale7numericE DATA
 0002:00002280 00000004H .rdata$_ZNSt3__16locale4timeE DATA
 0002:00002284 00000004H .rdata$_ZNSt3__16locale8messagesE DATA
 0002:00002288 00000004H .rdata$_ZNSt3__16locale3allE DATA
 0002:00002290 00000028H .rdata$_ZTVNSt3__16locale5__impE DATA
 0002:000022b8 0000001fH .rdata                  DATA
 0002:000022d8 00000040H .rdata$_ZTVNSt3__114collate_bynameIcEE DATA
 0002:00002318 0000003eH .rdata                  DATA
 0002:00002358 00000040H .rdata$_ZTVNSt3__114collate_bynameIwEE DATA
 0002:00002398 0000004eH .rdata                  DATA
 0002:000023e6 00000002H .rdata$_ZNSt3__110ctype_base5spaceE DATA
 0002:000023e8 00000002H .rdata$_ZNSt3__110ctype_base5printE DATA
 0002:000023ea 00000002H .rdata$_ZNSt3__110ctype_base5cntrlE DATA
 0002:000023ec 00000002H .rdata$_ZNSt3__110ctype_base5upperE DATA
 0002:000023ee 00000002H .rdata$_ZNSt3__110ctype_base5lowerE DATA
 0002:000023f0 00000002H .rdata$_ZNSt3__110ctype_base5alphaE DATA
 0002:000023f2 00000002H .rdata$_ZNSt3__110ctype_base5digitE DATA
 0002:000023f4 00000002H .rdata$_ZNSt3__110ctype_base5punctE DATA
 0002:000023f6 00000002H .rdata$_ZNSt3__110ctype_base6xdigitE DATA
 0002:000023f8 00000002H .rdata$_ZNSt3__110ctype_base5blankE DATA
 0002:000023fa 00000002H .rdata$_ZNSt3__110ctype_base5alnumE DATA
 0002:000023fc 00000002H .rdata$_ZNSt3__110ctype_base5graphE DATA
 0002:00002400 00000008H .rdata$_ZNSt3__15ctypeIcE10table_sizeE DATA
 0002:00002408 00000068H .rdata$_ZTVNSt3__15ctypeIcEE DATA
 0002:00002470 00000068H .rdata$_ZTVNSt3__112ctype_bynameIcEE DATA
 0002:000024d8 0000003aH .rdata                  DATA
 0002:00002518 00000088H .rdata$_ZTVNSt3__112ctype_bynameIwEE DATA
 0002:000025a0 0000003dH .rdata                  DATA
 0002:000025e0 00000060H .rdata$_ZTVNSt3__17codecvtIwc9_MbstatetEE DATA
 0002:00002640 00000052H .rdata                  DATA
 0002:00002698 00000050H .rdata$_ZTVNSt3__18numpunctIcEE DATA
 0002:000026e8 00000050H .rdata$_ZTVNSt3__18numpunctIwEE DATA
 0002:00002738 00000022H .rdata                  DATA
 0002:00002760 00000050H .rdata$_ZTVNSt3__115numpunct_bynameIcEE DATA
 0002:000027b0 00000040H .rdata                  DATA
 0002:000027f0 00000050H .rdata$_ZTVNSt3__115numpunct_bynameIwEE DATA
 0002:00002840 0000017cH .rdata                  DATA
 0002:000029c0 00000028H .rdata$_ZTVNSt3__16locale5facetE DATA
 0002:000029e8 00000016H .rdata$_ZTSNSt3__16locale5facetE DATA
 0002:000029fe 00000019H .rdata$_ZTSNSt3__114__shared_countE DATA
 0002:00002a18 00000010H .rdata$_ZTINSt3__114__shared_countE DATA
 0002:00002a28 00000018H .rdata$_ZTINSt3__16locale5facetE DATA
 0002:00002a40 00000088H .rdata$_ZTVNSt3__15ctypeIwEE DATA
 0002:00002ac8 00000012H .rdata$_ZTSNSt3__15ctypeIwEE DATA
 0002:00002ada 00000015H .rdata$_ZTSNSt3__110ctype_baseE DATA
 0002:00002af0 00000010H .rdata$_ZTINSt3__110ctype_baseE DATA
 0002:00002b00 00000038H .rdata$_ZTINSt3__15ctypeIwEE DATA
 0002:00002b38 00000060H .rdata$_ZTVNSt3__17codecvtIcc9_MbstatetEE DATA
 0002:00002b98 0000001fH .rdata$_ZTSNSt3__17codecvtIcc9_MbstatetEE DATA
 0002:00002bb7 00000017H .rdata$_ZTSNSt3__112codecvt_baseE DATA
 0002:00002bd0 00000010H .rdata$_ZTINSt3__112codecvt_baseE DATA
 0002:00002be0 00000038H .rdata$_ZTINSt3__17codecvtIcc9_MbstatetEE DATA
 0002:00002c18 00000060H .rdata$_ZTVNSt3__17codecvtIDsc9_MbstatetEE DATA
 0002:00002c78 00000020H .rdata$_ZTSNSt3__17codecvtIDsc9_MbstatetEE DATA
 0002:00002c98 00000038H .rdata$_ZTINSt3__17codecvtIDsc9_MbstatetEE DATA
 0002:00002cd0 00000060H .rdata$_ZTVNSt3__17codecvtIDsDu9_MbstatetEE DATA
 0002:00002d30 00000021H .rdata$_ZTSNSt3__17codecvtIDsDu9_MbstatetEE DATA
 0002:00002d58 00000038H .rdata$_ZTINSt3__17codecvtIDsDu9_MbstatetEE DATA
 0002:00002d90 00000060H .rdata$_ZTVNSt3__17codecvtIDic9_MbstatetEE DATA
 0002:00002df0 00000020H .rdata$_ZTSNSt3__17codecvtIDic9_MbstatetEE DATA
 0002:00002e10 00000038H .rdata$_ZTINSt3__17codecvtIDic9_MbstatetEE DATA
 0002:00002e48 00000060H .rdata$_ZTVNSt3__17codecvtIDiDu9_MbstatetEE DATA
 0002:00002ea8 00000021H .rdata$_ZTSNSt3__17codecvtIDiDu9_MbstatetEE DATA
 0002:00002ed0 00000038H .rdata$_ZTINSt3__17codecvtIDiDu9_MbstatetEE DATA
 0002:00002f08 00000060H .rdata$_ZTVNSt3__116__narrow_to_utf8ILy16EEE DATA
 0002:00002f68 00000022H .rdata$_ZTSNSt3__116__narrow_to_utf8ILy16EEE DATA
 0002:00002f90 00000018H .rdata$_ZTINSt3__116__narrow_to_utf8ILy16EEE DATA
 0002:00002fa8 00000060H .rdata$_ZTVNSt3__116__narrow_to_utf8ILy32EEE DATA
 0002:00003008 00000022H .rdata$_ZTSNSt3__116__narrow_to_utf8ILy32EEE DATA
 0002:00003030 00000018H .rdata$_ZTINSt3__116__narrow_to_utf8ILy32EEE DATA
 0002:00003048 00000060H .rdata$_ZTVNSt3__117__widen_from_utf8ILy16EEE DATA
 0002:000030a8 00000023H .rdata$_ZTSNSt3__117__widen_from_utf8ILy16EEE DATA
 0002:000030d0 00000018H .rdata$_ZTINSt3__117__widen_from_utf8ILy16EEE DATA
 0002:000030e8 00000060H .rdata$_ZTVNSt3__117__widen_from_utf8ILy32EEE DATA
 0002:00003148 00000023H .rdata$_ZTSNSt3__117__widen_from_utf8ILy32EEE DATA
 0002:00003170 00000018H .rdata$_ZTINSt3__117__widen_from_utf8ILy32EEE DATA
 0002:00003188 00000060H .rdata$_ZTVNSt3__114__codecvt_utf8IwEE DATA
 0002:000031e8 0000001cH .rdata$_ZTSNSt3__114__codecvt_utf8IwEE DATA
 0002:00003204 0000001fH .rdata$_ZTSNSt3__17codecvtIwc9_MbstatetEE DATA
 0002:00003228 00000038H .rdata$_ZTINSt3__17codecvtIwc9_MbstatetEE DATA
 0002:00003260 00000018H .rdata$_ZTINSt3__114__codecvt_utf8IwEE DATA
 0002:00003278 00000060H .rdata$_ZTVNSt3__114__codecvt_utf8IDsEE DATA
 0002:000032d8 0000001dH .rdata$_ZTSNSt3__114__codecvt_utf8IDsEE DATA
 0002:000032f8 00000018H .rdata$_ZTINSt3__114__codecvt_utf8IDsEE DATA
 0002:00003310 00000060H .rdata$_ZTVNSt3__114__codecvt_utf8IDiEE DATA
 0002:00003370 0000001dH .rdata$_ZTSNSt3__114__codecvt_utf8IDiEE DATA
 0002:00003390 00000018H .rdata$_ZTINSt3__114__codecvt_utf8IDiEE DATA
 0002:000033a8 00000060H .rdata$_ZTVNSt3__115__codecvt_utf16IwLb0EEE DATA
 0002:00003408 00000021H .rdata$_ZTSNSt3__115__codecvt_utf16IwLb0EEE DATA
 0002:00003430 00000018H .rdata$_ZTINSt3__115__codecvt_utf16IwLb0EEE DATA
 0002:00003448 00000060H .rdata$_ZTVNSt3__115__codecvt_utf16IwLb1EEE DATA
 0002:000034a8 00000021H .rdata$_ZTSNSt3__115__codecvt_utf16IwLb1EEE DATA
 0002:000034d0 00000018H .rdata$_ZTINSt3__115__codecvt_utf16IwLb1EEE DATA
 0002:000034e8 00000060H .rdata$_ZTVNSt3__115__codecvt_utf16IDsLb0EEE DATA
 0002:00003548 00000022H .rdata$_ZTSNSt3__115__codecvt_utf16IDsLb0EEE DATA
 0002:00003570 00000018H .rdata$_ZTINSt3__115__codecvt_utf16IDsLb0EEE DATA
 0002:00003588 00000060H .rdata$_ZTVNSt3__115__codecvt_utf16IDsLb1EEE DATA
 0002:000035e8 00000022H .rdata$_ZTSNSt3__115__codecvt_utf16IDsLb1EEE DATA
 0002:00003610 00000018H .rdata$_ZTINSt3__115__codecvt_utf16IDsLb1EEE DATA
 0002:00003628 00000060H .rdata$_ZTVNSt3__115__codecvt_utf16IDiLb0EEE DATA
 0002:00003688 00000022H .rdata$_ZTSNSt3__115__codecvt_utf16IDiLb0EEE DATA
 0002:000036b0 00000018H .rdata$_ZTINSt3__115__codecvt_utf16IDiLb0EEE DATA
 0002:000036c8 00000060H .rdata$_ZTVNSt3__115__codecvt_utf16IDiLb1EEE DATA
 0002:00003728 00000022H .rdata$_ZTSNSt3__115__codecvt_utf16IDiLb1EEE DATA
 0002:00003750 00000018H .rdata$_ZTINSt3__115__codecvt_utf16IDiLb1EEE DATA
 0002:00003768 00000060H .rdata$_ZTVNSt3__120__codecvt_utf8_utf16IwEE DATA
 0002:000037c8 00000022H .rdata$_ZTSNSt3__120__codecvt_utf8_utf16IwEE DATA
 0002:000037f0 00000018H .rdata$_ZTINSt3__120__codecvt_utf8_utf16IwEE DATA
 0002:00003808 00000060H .rdata$_ZTVNSt3__120__codecvt_utf8_utf16IDiEE DATA
 0002:00003868 00000023H .rdata$_ZTSNSt3__120__codecvt_utf8_utf16IDiEE DATA
 0002:00003890 00000018H .rdata$_ZTINSt3__120__codecvt_utf8_utf16IDiEE DATA
 0002:000038a8 00000060H .rdata$_ZTVNSt3__120__codecvt_utf8_utf16IDsEE DATA
 0002:00003908 00000023H .rdata$_ZTSNSt3__120__codecvt_utf8_utf16IDsEE DATA
 0002:00003930 00000018H .rdata$_ZTINSt3__120__codecvt_utf8_utf16IDsEE DATA
 0002:00003948 00000016H .rdata$_ZTSNSt3__16locale5__impE DATA
 0002:00003960 00000018H .rdata$_ZTINSt3__16locale5__impE DATA
 0002:00003978 0000001cH .rdata$_ZTSNSt3__114collate_bynameIcEE DATA
 0002:00003994 00000014H .rdata$_ZTSNSt3__17collateIcEE DATA
 0002:000039a8 00000018H .rdata$_ZTINSt3__17collateIcEE DATA
 0002:000039c0 00000018H .rdata$_ZTINSt3__114collate_bynameIcEE DATA
 0002:000039d8 0000001cH .rdata$_ZTSNSt3__114collate_bynameIwEE DATA
 0002:000039f4 00000014H .rdata$_ZTSNSt3__17collateIwEE DATA
 0002:00003a08 00000018H .rdata$_ZTINSt3__17collateIwEE DATA
 0002:00003a20 00000018H .rdata$_ZTINSt3__114collate_bynameIwEE DATA
 0002:00003a38 00000012H .rdata$_ZTSNSt3__15ctypeIcEE DATA
 0002:00003a50 00000038H .rdata$_ZTINSt3__15ctypeIcEE DATA
 0002:00003a88 0000001aH .rdata$_ZTSNSt3__112ctype_bynameIcEE DATA
 0002:00003aa8 00000018H .rdata$_ZTINSt3__112ctype_bynameIcEE DATA
 0002:00003ac0 0000001aH .rdata$_ZTSNSt3__112ctype_bynameIwEE DATA
 0002:00003ae0 00000018H .rdata$_ZTINSt3__112ctype_bynameIwEE DATA
 0002:00003af8 00000015H .rdata$_ZTSNSt3__18numpunctIcEE DATA
 0002:00003b10 00000018H .rdata$_ZTINSt3__18numpunctIcEE DATA
 0002:00003b28 00000015H .rdata$_ZTSNSt3__18numpunctIwEE DATA
 0002:00003b40 00000018H .rdata$_ZTINSt3__18numpunctIwEE DATA
 0002:00003b58 0000001dH .rdata$_ZTSNSt3__115numpunct_bynameIcEE DATA
 0002:00003b78 00000018H .rdata$_ZTINSt3__115numpunct_bynameIcEE DATA
 0002:00003b90 0000001dH .rdata$_ZTSNSt3__115numpunct_bynameIwEE DATA
 0002:00003bb0 00000018H .rdata$_ZTINSt3__115numpunct_bynameIwEE DATA
 0002:00003bc8 00000040H .rdata$_ZTVNSt3__17collateIcEE DATA
 0002:00003c08 00000040H .rdata$_ZTVNSt3__17collateIwEE DATA
 0002:00003c48 00000080H .rdata$_ZTVNSt3__17num_getIcNS_19istreambuf_iteratorIcNS_11char_traitsIcEEEEEE DATA
 0002:00003cc8 00000044H .rdata$_ZTSNSt3__17num_getIcNS_19istreambuf_iteratorIcNS_11char_traitsIcEEEEEE DATA
 0002:00003d0c 00000016H .rdata$_ZTSNSt3__19__num_getIcEE DATA
 0002:00003d22 00000019H .rdata$_ZTSNSt3__114__num_get_baseE DATA
 0002:00003d40 00000010H .rdata$_ZTINSt3__114__num_get_baseE DATA
 0002:00003d50 00000028H .rdata$_ZTINSt3__19__num_getIcEE DATA
 0002:00003d78 00000038H .rdata$_ZTINSt3__17num_getIcNS_19istreambuf_iteratorIcNS_11char_traitsIcEEEEEE DATA
 0002:00003db0 00000080H .rdata$_ZTVNSt3__17num_getIwNS_19istreambuf_iteratorIwNS_11char_traitsIwEEEEEE DATA
 0002:00003e30 00000044H .rdata$_ZTSNSt3__17num_getIwNS_19istreambuf_iteratorIwNS_11char_traitsIwEEEEEE DATA
 0002:00003e74 00000016H .rdata$_ZTSNSt3__19__num_getIwEE DATA
 0002:00003e90 00000028H .rdata$_ZTINSt3__19__num_getIwEE DATA
 0002:00003eb8 00000038H .rdata$_ZTINSt3__17num_getIwNS_19istreambuf_iteratorIwNS_11char_traitsIwEEEEEE DATA
 0002:00003ef0 00000068H .rdata$_ZTVNSt3__17num_putIcNS_19ostreambuf_iteratorIcNS_11char_traitsIcEEEEEE DATA
 0002:00003f58 00000044H .rdata$_ZTSNSt3__17num_putIcNS_19ostreambuf_iteratorIcNS_11char_traitsIcEEEEEE DATA
 0002:00003f9c 00000016H .rdata$_ZTSNSt3__19__num_putIcEE DATA
 0002:00003fb2 00000019H .rdata$_ZTSNSt3__114__num_put_baseE DATA
 0002:00003fd0 00000010H .rdata$_ZTINSt3__114__num_put_baseE DATA
 0002:00003fe0 00000028H .rdata$_ZTINSt3__19__num_putIcEE DATA
 0002:00004008 00000038H .rdata$_ZTINSt3__17num_putIcNS_19ostreambuf_iteratorIcNS_11char_traitsIcEEEEEE DATA
 0002:00004040 00000068H .rdata$_ZTVNSt3__17num_putIwNS_19ostreambuf_iteratorIwNS_11char_traitsIwEEEEEE DATA
 0002:000040a8 00000044H .rdata$_ZTSNSt3__17num_putIwNS_19ostreambuf_iteratorIwNS_11char_traitsIwEEEEEE DATA
 0002:000040ec 00000016H .rdata$_ZTSNSt3__19__num_putIwEE DATA
 0002:00004108 00000028H .rdata$_ZTINSt3__19__num_putIwEE DATA
 0002:00004130 00000038H .rdata$_ZTINSt3__17num_putIwNS_19ostreambuf_iteratorIwNS_11char_traitsIwEEEEEE DATA
 0002:00004168 000000a8H .rdata$_ZTVNSt3__18time_getIcNS_19istreambuf_iteratorIcNS_11char_traitsIcEEEEEE DATA
 0002:00004210 00000045H .rdata$_ZTSNSt3__18time_getIcNS_19istreambuf_iteratorIcNS_11char_traitsIcEEEEEE DATA
 0002:00004255 00000013H .rdata$_ZTSNSt3__19time_baseE DATA
 0002:00004268 00000010H .rdata$_ZTINSt3__19time_baseE DATA
 0002:00004278 00000022H .rdata$_ZTSNSt3__120__time_get_c_storageIcEE DATA
 0002:000042a0 00000010H .rdata$_ZTINSt3__120__time_get_c_storageIcEE DATA
 0002:000042b0 00000048H .rdata$_ZTINSt3__18time_getIcNS_19istreambuf_iteratorIcNS_11char_traitsIcEEEEEE DATA
 0002:000042f8 000000a8H .rdata$_ZTVNSt3__18time_getIwNS_19istreambuf_iteratorIwNS_11char_traitsIwEEEEEE DATA
 0002:000043a0 00000045H .rdata$_ZTSNSt3__18time_getIwNS_19istreambuf_iteratorIwNS_11char_traitsIwEEEEEE DATA
 0002:000043e5 00000022H .rdata$_ZTSNSt3__120__time_get_c_storageIwEE DATA
 0002:00004408 00000010H .rdata$_ZTINSt3__120__time_get_c_storageIwEE DATA
 0002:00004418 00000048H .rdata$_ZTINSt3__18time_getIwNS_19istreambuf_iteratorIwNS_11char_traitsIwEEEEEE DATA
 0002:00004460 000000e0H .rdata$_ZTVNSt3__115time_get_bynameIcNS_19istreambuf_iteratorIcNS_11char_traitsIcEEEEEE DATA
 0002:00004540 0000004dH .rdata$_ZTSNSt3__115time_get_bynameIcNS_19istreambuf_iteratorIcNS_11char_traitsIcEEEEEE DATA
 0002:0000458d 00000020H .rdata$_ZTSNSt3__118__time_get_storageIcEE DATA
 0002:000045ad 00000015H .rdata$_ZTSNSt3__110__time_getE DATA
 0002:000045c8 00000010H .rdata$_ZTINSt3__110__time_getE DATA
 0002:000045d8 00000018H .rdata$_ZTINSt3__118__time_get_storageIcEE DATA
 0002:000045f0 00000038H .rdata$_ZTINSt3__115time_get_bynameIcNS_19istreambuf_iteratorIcNS_11char_traitsIcEEEEEE DATA
 0002:00004628 000000e0H .rdata$_ZTVNSt3__115time_get_bynameIwNS_19istreambuf_iteratorIwNS_11char_traitsIwEEEEEE DATA
 0002:00004708 0000004dH .rdata$_ZTSNSt3__115time_get_bynameIwNS_19istreambuf_iteratorIwNS_11char_traitsIwEEEEEE DATA
 0002:00004755 00000020H .rdata$_ZTSNSt3__118__time_get_storageIwEE DATA
 0002:00004778 00000018H .rdata$_ZTINSt3__118__time_get_storageIwEE DATA
 0002:00004790 00000038H .rdata$_ZTINSt3__115time_get_bynameIwNS_19istreambuf_iteratorIwNS_11char_traitsIwEEEEEE DATA
 0002:000047c8 00000030H .rdata$_ZTVNSt3__18time_putIcNS_19ostreambuf_iteratorIcNS_11char_traitsIcEEEEEE DATA
 0002:000047f8 00000045H .rdata$_ZTSNSt3__18time_putIcNS_19ostreambuf_iteratorIcNS_11char_traitsIcEEEEEE DATA
 0002:0000483d 00000015H .rdata$_ZTSNSt3__110__time_putE DATA
 0002:00004858 00000010H .rdata$_ZTINSt3__110__time_putE DATA
 0002:00004868 00000038H .rdata$_ZTINSt3__18time_putIcNS_19ostreambuf_iteratorIcNS_11char_traitsIcEEEEEE DATA
 0002:000048a0 00000030H .rdata$_ZTVNSt3__18time_putIwNS_19ostreambuf_iteratorIwNS_11char_traitsIwEEEEEE DATA
 0002:000048d0 00000045H .rdata$_ZTSNSt3__18time_putIwNS_19ostreambuf_iteratorIwNS_11char_traitsIwEEEEEE DATA
 0002:00004918 00000038H .rdata$_ZTINSt3__18time_putIwNS_19ostreambuf_iteratorIwNS_11char_traitsIwEEEEEE DATA
 0002:00004950 00000030H .rdata$_ZTVNSt3__115time_put_bynameIcNS_19ostreambuf_iteratorIcNS_11char_traitsIcEEEEEE DATA
 0002:00004980 0000004dH .rdata$_ZTSNSt3__115time_put_bynameIcNS_19ostreambuf_iteratorIcNS_11char_traitsIcEEEEEE DATA
 0002:000049d0 00000018H .rdata$_ZTINSt3__115time_put_bynameIcNS_19ostreambuf_iteratorIcNS_11char_traitsIcEEEEEE DATA
 0002:000049e8 00000030H .rdata$_ZTVNSt3__115time_put_bynameIwNS_19ostreambuf_iteratorIwNS_11char_traitsIwEEEEEE DATA
 0002:00004a18 0000004dH .rdata$_ZTSNSt3__115time_put_bynameIwNS_19ostreambuf_iteratorIwNS_11char_traitsIwEEEEEE DATA
 0002:00004a68 00000018H .rdata$_ZTINSt3__115time_put_bynameIwNS_19ostreambuf_iteratorIwNS_11char_traitsIwEEEEEE DATA
 0002:00004a80 00000070H .rdata$_ZTVNSt3__110moneypunctIcLb0EEE DATA
 0002:00004af0 0000001cH .rdata$_ZTSNSt3__110moneypunctIcLb0EEE DATA
 0002:00004b0c 00000015H .rdata$_ZTSNSt3__110money_baseE DATA
 0002:00004b28 00000010H .rdata$_ZTINSt3__110money_baseE DATA
 0002:00004b38 00000038H .rdata$_ZTINSt3__110moneypunctIcLb0EEE DATA
 0002:00004b70 00000070H .rdata$_ZTVNSt3__110moneypunctIcLb1EEE DATA
 0002:00004be0 0000001cH .rdata$_ZTSNSt3__110moneypunctIcLb1EEE DATA
 0002:00004c00 00000038H .rdata$_ZTINSt3__110moneypunctIcLb1EEE DATA
 0002:00004c38 00000070H .rdata$_ZTVNSt3__110moneypunctIwLb0EEE DATA
 0002:00004ca8 0000001cH .rdata$_ZTSNSt3__110moneypunctIwLb0EEE DATA
 0002:00004cc8 00000038H .rdata$_ZTINSt3__110moneypunctIwLb0EEE DATA
 0002:00004d00 00000070H .rdata$_ZTVNSt3__110moneypunctIwLb1EEE DATA
 0002:00004d70 0000001cH .rdata$_ZTSNSt3__110moneypunctIwLb1EEE DATA
 0002:00004d90 00000038H .rdata$_ZTINSt3__110moneypunctIwLb1EEE DATA
 0002:00004dc8 00000070H .rdata$_ZTVNSt3__117moneypunct_bynameIcLb0EEE DATA
 0002:00004e38 00000023H .rdata$_ZTSNSt3__117moneypunct_bynameIcLb0EEE DATA
 0002:00004e60 00000018H .rdata$_ZTINSt3__117moneypunct_bynameIcLb0EEE DATA
 0002:00004e78 00000070H .rdata$_ZTVNSt3__117moneypunct_bynameIcLb1EEE DATA
 0002:00004ee8 00000023H .rdata$_ZTSNSt3__117moneypunct_bynameIcLb1EEE DATA
 0002:00004f10 00000018H .rdata$_ZTINSt3__117moneypunct_bynameIcLb1EEE DATA
 0002:00004f28 00000070H .rdata$_ZTVNSt3__117moneypunct_bynameIwLb0EEE DATA
 0002:00004f98 00000023H .rdata$_ZTSNSt3__117moneypunct_bynameIwLb0EEE DATA
 0002:00004fc0 00000018H .rdata$_ZTINSt3__117moneypunct_bynameIwLb0EEE DATA
 0002:00004fd8 00000070H .rdata$_ZTVNSt3__117moneypunct_bynameIwLb1EEE DATA
 0002:00005048 00000023H .rdata$_ZTSNSt3__117moneypunct_bynameIwLb1EEE DATA
 0002:00005070 00000018H .rdata$_ZTINSt3__117moneypunct_bynameIwLb1EEE DATA
 0002:00005088 00000038H .rdata$_ZTVNSt3__19money_getIcNS_19istreambuf_iteratorIcNS_11char_traitsIcEEEEEE DATA
 0002:000050c0 00000046H .rdata$_ZTSNSt3__19money_getIcNS_19istreambuf_iteratorIcNS_11char_traitsIcEEEEEE DATA
 0002:00005106 00000019H .rdata$_ZTSNSt3__111__money_getIcEE DATA
 0002:00005120 00000010H .rdata$_ZTINSt3__111__money_getIcEE DATA
 0002:00005130 00000038H .rdata$_ZTINSt3__19money_getIcNS_19istreambuf_iteratorIcNS_11char_traitsIcEEEEEE DATA
 0002:00005168 00000038H .rdata$_ZTVNSt3__19money_getIwNS_19istreambuf_iteratorIwNS_11char_traitsIwEEEEEE DATA
 0002:000051a0 00000046H .rdata$_ZTSNSt3__19money_getIwNS_19istreambuf_iteratorIwNS_11char_traitsIwEEEEEE DATA
 0002:000051e6 00000019H .rdata$_ZTSNSt3__111__money_getIwEE DATA
 0002:00005200 00000010H .rdata$_ZTINSt3__111__money_getIwEE DATA
 0002:00005210 00000038H .rdata$_ZTINSt3__19money_getIwNS_19istreambuf_iteratorIwNS_11char_traitsIwEEEEEE DATA
 0002:00005248 00000038H .rdata$_ZTVNSt3__19money_putIcNS_19ostreambuf_iteratorIcNS_11char_traitsIcEEEEEE DATA
 0002:00005280 00000046H .rdata$_ZTSNSt3__19money_putIcNS_19ostreambuf_iteratorIcNS_11char_traitsIcEEEEEE DATA
 0002:000052c6 00000019H .rdata$_ZTSNSt3__111__money_putIcEE DATA
 0002:000052e0 00000010H .rdata$_ZTINSt3__111__money_putIcEE DATA
 0002:000052f0 00000038H .rdata$_ZTINSt3__19money_putIcNS_19ostreambuf_iteratorIcNS_11char_traitsIcEEEEEE DATA
 0002:00005328 00000038H .rdata$_ZTVNSt3__19money_putIwNS_19ostreambuf_iteratorIwNS_11char_traitsIwEEEEEE DATA
 0002:00005360 00000046H .rdata$_ZTSNSt3__19money_putIwNS_19ostreambuf_iteratorIwNS_11char_traitsIwEEEEEE DATA
 0002:000053a6 00000019H .rdata$_ZTSNSt3__111__money_putIwEE DATA
 0002:000053c0 00000010H .rdata$_ZTINSt3__111__money_putIwEE DATA
 0002:000053d0 00000038H .rdata$_ZTINSt3__19money_putIwNS_19ostreambuf_iteratorIwNS_11char_traitsIwEEEEEE DATA
 0002:00005408 00000040H .rdata$_ZTVNSt3__18messagesIcEE DATA
 0002:00005448 00000015H .rdata$_ZTSNSt3__18messagesIcEE DATA
 0002:0000545d 00000018H .rdata$_ZTSNSt3__113messages_baseE DATA
 0002:00005478 00000010H .rdata$_ZTINSt3__113messages_baseE DATA
 0002:00005488 00000038H .rdata$_ZTINSt3__18messagesIcEE DATA
 0002:000054c0 00000040H .rdata$_ZTVNSt3__18messagesIwEE DATA
 0002:00005500 00000015H .rdata$_ZTSNSt3__18messagesIwEE DATA
 0002:00005518 00000038H .rdata$_ZTINSt3__18messagesIwEE DATA
 0002:00005550 00000040H .rdata$_ZTVNSt3__115messages_bynameIcEE DATA
 0002:00005590 0000001dH .rdata$_ZTSNSt3__115messages_bynameIcEE DATA
 0002:000055b0 00000018H .rdata$_ZTINSt3__115messages_bynameIcEE DATA
 0002:000055c8 00000040H .rdata$_ZTVNSt3__115messages_bynameIwEE DATA
 0002:00005608 0000001dH .rdata$_ZTSNSt3__115messages_bynameIwEE DATA
 0002:00005628 00000018H .rdata$_ZTINSt3__115messages_bynameIwEE DATA
 0002:00005640 00000060H .rdata$_ZTVNSt3__114codecvt_bynameIcc9_MbstatetEE DATA
 0002:000056a0 00000027H .rdata$_ZTSNSt3__114codecvt_bynameIcc9_MbstatetEE DATA
 0002:000056c8 00000018H .rdata$_ZTINSt3__114codecvt_bynameIcc9_MbstatetEE DATA
 0002:000056e0 00000060H .rdata$_ZTVNSt3__114codecvt_bynameIwc9_MbstatetEE DATA
 0002:00005740 00000027H .rdata$_ZTSNSt3__114codecvt_bynameIwc9_MbstatetEE DATA
 0002:00005768 00000018H .rdata$_ZTINSt3__114codecvt_bynameIwc9_MbstatetEE DATA
 0002:00005780 00000060H .rdata$_ZTVNSt3__114codecvt_bynameIDsc9_MbstatetEE DATA
 0002:000057e0 00000028H .rdata$_ZTSNSt3__114codecvt_bynameIDsc9_MbstatetEE DATA
 0002:00005808 00000018H .rdata$_ZTINSt3__114codecvt_bynameIDsc9_MbstatetEE DATA
 0002:00005820 00000060H .rdata$_ZTVNSt3__114codecvt_bynameIDic9_MbstatetEE DATA
 0002:00005880 00000028H .rdata$_ZTSNSt3__114codecvt_bynameIDic9_MbstatetEE DATA
 0002:000058a8 00000018H .rdata$_ZTINSt3__114codecvt_bynameIDic9_MbstatetEE DATA
 0002:000058c0 00000060H .rdata$_ZTVNSt3__114codecvt_bynameIDsDu9_MbstatetEE DATA
 0002:00005920 00000029H .rdata$_ZTSNSt3__114codecvt_bynameIDsDu9_MbstatetEE DATA
 0002:00005950 00000018H .rdata$_ZTINSt3__114codecvt_bynameIDsDu9_MbstatetEE DATA
 0002:00005968 00000060H .rdata$_ZTVNSt3__114codecvt_bynameIDiDu9_MbstatetEE DATA
 0002:000059c8 00000029H .rdata$_ZTSNSt3__114codecvt_bynameIDiDu9_MbstatetEE DATA
 0002:000059f8 00000018H .rdata$_ZTINSt3__114codecvt_bynameIDiDu9_MbstatetEE DATA
 0002:00005a10 00000250H .rdata                  DATA
 0002:00005c60 00000068H .rdata$_ZTVNSt3__115__time_get_tempIcEE DATA
 0002:00005cc8 0000001dH .rdata$_ZTSNSt3__115__time_get_tempIcEE DATA
 0002:00005ce8 00000018H .rdata$_ZTINSt3__115__time_get_tempIcEE DATA
 0002:00005d00 00000088H .rdata$_ZTVNSt3__115__time_get_tempIwEE DATA
 0002:00005d88 0000001dH .rdata$_ZTSNSt3__115__time_get_tempIwEE DATA
 0002:00005da8 00000018H .rdata$_ZTINSt3__115__time_get_tempIwEE DATA
 0002:00005dc0 0000068eH .rdata                  DATA
 0002:00006450 00000088H .rdata$_ZTVN9libunwind12UnwindCursorINS_17LocalAddressSpaceENS_16Registers_x86_64EEE DATA
 0002:000064d8 000001b8H .rdata                  DATA
 0002:00006690 00000008H .rdata$.refptr._ZN9libunwind17LocalAddressSpace17sThisAddressSpaceE DATA
 0002:00006698 000001a4H .rdata                  DATA
 0002:00006840 00000008H .rdata$.refptr._ZTVN10__cxxabiv117__class_type_infoE DATA
 0002:00006848 0000012bH .rdata                  DATA
 0002:00006978 00000028H .rdata$_ZTVSt9bad_alloc DATA
 0002:000069a0 0000000fH .rdata                  DATA
 0002:000069b0 00000028H .rdata$_ZTVSt20bad_array_new_length DATA
 0002:000069d8 00000015H .rdata                  DATA
 0002:000069f0 00000028H .rdata$_ZTVSt9exception DATA
 0002:00006a18 00000028H .rdata$_ZTVSt13bad_exception DATA
 0002:00006a40 00000021H .rdata$_ZTSN10__cxxabiv116__shim_type_infoE DATA
 0002:00006a61 0000000dH .rdata$_ZTSSt9type_info DATA
 0002:00006a70 00000010H .rdata$_ZTISt9type_info DATA
 0002:00006a80 00000018H .rdata$_ZTIN10__cxxabiv116__shim_type_infoE DATA
 0002:00006a98 00000022H .rdata$_ZTSN10__cxxabiv117__class_type_infoE DATA
 0002:00006ac0 00000018H .rdata$_ZTIN10__cxxabiv117__class_type_infoE DATA
 0002:00006ad8 00000022H .rdata$_ZTSN10__cxxabiv117__pbase_type_infoE DATA
 0002:00006b00 00000018H .rdata$_ZTIN10__cxxabiv117__pbase_type_infoE DATA
 0002:00006b18 00000024H .rdata$_ZTSN10__cxxabiv119__pointer_type_infoE DATA
 0002:00006b40 00000018H .rdata$_ZTIN10__cxxabiv119__pointer_type_infoE DATA
 0002:00006b58 00000025H .rdata$_ZTSN10__cxxabiv120__function_type_infoE DATA
 0002:00006b80 00000018H .rdata$_ZTIN10__cxxabiv120__function_type_infoE DATA
 0002:00006b98 0000002eH .rdata$_ZTSN10__cxxabiv129__pointer_to_member_type_infoE DATA
 0002:00006bc8 00000018H .rdata$_ZTIN10__cxxabiv129__pointer_to_member_type_infoE DATA
 0002:00006be0 00000010H .rdata$_ZZNK10__cxxabiv129__pointer_to_member_type_info9can_catchEPKNS_16__shim_type_infoERPvE12null_ptr_rep DATA
 0002:00006bf0 00000008H .rdata$_ZZNK10__cxxabiv129__pointer_to_member_type_info9can_catchEPKNS_16__shim_type_infoERPvE12null_ptr_rep_0 DATA
 0002:00006bf8 00000038H .rdata$_ZTVN10__cxxabiv116__shim_type_infoE DATA
 0002:00006c30 00000038H .rdata$_ZTVN10__cxxabiv123__fundamental_type_infoE DATA
 0002:00006c68 00000028H .rdata$_ZTSN10__cxxabiv123__fundamental_type_infoE DATA
 0002:00006c90 00000018H .rdata$_ZTIN10__cxxabiv123__fundamental_type_infoE DATA
 0002:00006ca8 00000002H .rdata$_ZTSv            DATA
 0002:00006cb0 00000010H .rdata$_ZTIv            DATA
 0002:00006cc0 00000003H .rdata$_ZTSPv           DATA
 0002:00006cc8 00000020H .rdata$_ZTIPv           DATA
 0002:00006ce8 00000004H .rdata$_ZTSPKv          DATA
 0002:00006cf0 00000020H .rdata$_ZTIPKv          DATA
 0002:00006d10 00000003H .rdata$_ZTSDn           DATA
 0002:00006d18 00000010H .rdata$_ZTIDn           DATA
 0002:00006d28 00000004H .rdata$_ZTSPDn          DATA
 0002:00006d30 00000020H .rdata$_ZTIPDn          DATA
 0002:00006d50 00000005H .rdata$_ZTSPKDn         DATA
 0002:00006d58 00000020H .rdata$_ZTIPKDn         DATA
 0002:00006d78 00000002H .rdata$_ZTSb            DATA
 0002:00006d80 00000010H .rdata$_ZTIb            DATA
 0002:00006d90 00000003H .rdata$_ZTSPb           DATA
 0002:00006d98 00000020H .rdata$_ZTIPb           DATA
 0002:00006db8 00000004H .rdata$_ZTSPKb          DATA
 0002:00006dc0 00000020H .rdata$_ZTIPKb          DATA
 0002:00006de0 00000002H .rdata$_ZTSw            DATA
 0002:00006de8 00000010H .rdata$_ZTIw            DATA
 0002:00006df8 00000003H .rdata$_ZTSPw           DATA
 0002:00006e00 00000020H .rdata$_ZTIPw           DATA
 0002:00006e20 00000004H .rdata$_ZTSPKw          DATA
 0002:00006e28 00000020H .rdata$_ZTIPKw          DATA
 0002:00006e48 00000002H .rdata$_ZTSc            DATA
 0002:00006e50 00000010H .rdata$_ZTIc            DATA
 0002:00006e60 00000003H .rdata$_ZTSPc           DATA
 0002:00006e68 00000020H .rdata$_ZTIPc           DATA
 0002:00006e88 00000004H .rdata$_ZTSPKc          DATA
 0002:00006e90 00000020H .rdata$_ZTIPKc          DATA
 0002:00006eb0 00000002H .rdata$_ZTSh            DATA
 0002:00006eb8 00000010H .rdata$_ZTIh            DATA
 0002:00006ec8 00000003H .rdata$_ZTSPh           DATA
 0002:00006ed0 00000020H .rdata$_ZTIPh           DATA
 0002:00006ef0 00000004H .rdata$_ZTSPKh          DATA
 0002:00006ef8 00000020H .rdata$_ZTIPKh          DATA
 0002:00006f18 00000002H .rdata$_ZTSa            DATA
 0002:00006f20 00000010H .rdata$_ZTIa            DATA
 0002:00006f30 00000003H .rdata$_ZTSPa           DATA
 0002:00006f38 00000020H .rdata$_ZTIPa           DATA
 0002:00006f58 00000004H .rdata$_ZTSPKa          DATA
 0002:00006f60 00000020H .rdata$_ZTIPKa          DATA
 0002:00006f80 00000002H .rdata$_ZTSs            DATA
 0002:00006f88 00000010H .rdata$_ZTIs            DATA
 0002:00006f98 00000003H .rdata$_ZTSPs           DATA
 0002:00006fa0 00000020H .rdata$_ZTIPs           DATA
 0002:00006fc0 00000004H .rdata$_ZTSPKs          DATA
 0002:00006fc8 00000020H .rdata$_ZTIPKs          DATA
 0002:00006fe8 00000002H .rdata$_ZTSt            DATA
 0002:00006ff0 00000010H .rdata$_ZTIt            DATA
 0002:00007000 00000003H .rdata$_ZTSPt           DATA
 0002:00007008 00000020H .rdata$_ZTIPt           DATA
 0002:00007028 00000004H .rdata$_ZTSPKt          DATA
 0002:00007030 00000020H .rdata$_ZTIPKt          DATA
 0002:00007050 00000002H .rdata$_ZTSi            DATA
 0002:00007058 00000010H .rdata$_ZTIi            DATA
 0002:00007068 00000003H .rdata$_ZTSPi           DATA
 0002:00007070 00000020H .rdata$_ZTIPi           DATA
 0002:00007090 00000004H .rdata$_ZTSPKi          DATA
 0002:00007098 00000020H .rdata$_ZTIPKi          DATA
 0002:000070b8 00000002H .rdata$_ZTSj            DATA
 0002:000070c0 00000010H .rdata$_ZTIj            DATA
 0002:000070d0 00000003H .rdata$_ZTSPj           DATA
 0002:000070d8 00000020H .rdata$_ZTIPj           DATA
 0002:000070f8 00000004H .rdata$_ZTSPKj          DATA
 0002:00007100 00000020H .rdata$_ZTIPKj          DATA
 0002:00007120 00000002H .rdata$_ZTSl            DATA
 0002:00007128 00000010H .rdata$_ZTIl            DATA
 0002:00007138 00000003H .rdata$_ZTSPl           DATA
 0002:00007140 00000020H .rdata$_ZTIPl           DATA
 0002:00007160 00000004H .rdata$_ZTSPKl          DATA
 0002:00007168 00000020H .rdata$_ZTIPKl          DATA
 0002:00007188 00000002H .rdata$_ZTSm            DATA
 0002:00007190 00000010H .rdata$_ZTIm            DATA
 0002:000071a0 00000003H .rdata$_ZTSPm           DATA
 0002:000071a8 00000020H .rdata$_ZTIPm           DATA
 0002:000071c8 00000004H .rdata$_ZTSPKm          DATA
 0002:000071d0 00000020H .rdata$_ZTIPKm          DATA
 0002:000071f0 00000002H .rdata$_ZTSx            DATA
 0002:000071f8 00000010H .rdata$_ZTIx            DATA
 0002:00007208 00000003H .rdata$_ZTSPx           DATA
 0002:00007210 00000020H .rdata$_ZTIPx           DATA
 0002:00007230 00000004H .rdata$_ZTSPKx          DATA
 0002:00007238 00000020H .rdata$_ZTIPKx          DATA
 0002:00007258 00000002H .rdata$_ZTSy            DATA
 0002:00007260 00000010H .rdata$_ZTIy            DATA
 0002:00007270 00000003H .rdata$_ZTSPy           DATA
 0002:00007278 00000020H .rdata$_ZTIPy           DATA
 0002:00007298 00000004H .rdata$_ZTSPKy          DATA
 0002:000072a0 00000020H .rdata$_ZTIPKy          DATA
 0002:000072c0 00000002H .rdata$_ZTSn            DATA
 0002:000072c8 00000010H .rdata$_ZTIn            DATA
 0002:000072d8 00000003H .rdata$_ZTSPn           DATA
 0002:000072e0 00000020H .rdata$_ZTIPn           DATA
 0002:00007300 00000004H .rdata$_ZTSPKn          DATA
 0002:00007308 00000020H .rdata$_ZTIPKn          DATA
 0002:00007328 00000002H .rdata$_ZTSo            DATA
 0002:00007330 00000010H .rdata$_ZTIo            DATA
 0002:00007340 00000003H .rdata$_ZTSPo           DATA
 0002:00007348 00000020H .rdata$_ZTIPo           DATA
 0002:00007368 00000004H .rdata$_ZTSPKo          DATA
 0002:00007370 00000020H .rdata$_ZTIPKo          DATA
 0002:00007390 00000003H .rdata$_ZTSDh           DATA
 0002:00007398 00000010H .rdata$_ZTIDh           DATA
 0002:000073a8 00000004H .rdata$_ZTSPDh          DATA
 0002:000073b0 00000020H .rdata$_ZTIPDh          DATA
 0002:000073d0 00000005H .rdata$_ZTSPKDh         DATA
 0002:000073d8 00000020H .rdata$_ZTIPKDh         DATA
 0002:000073f8 00000002H .rdata$_ZTSf            DATA
 0002:00007400 00000010H .rdata$_ZTIf            DATA
 0002:00007410 00000003H .rdata$_ZTSPf           DATA
 0002:00007418 00000020H .rdata$_ZTIPf           DATA
 0002:00007438 00000004H .rdata$_ZTSPKf          DATA
 0002:00007440 00000020H .rdata$_ZTIPKf          DATA
 0002:00007460 00000002H .rdata$_ZTSd            DATA
 0002:00007468 00000010H .rdata$_ZTId            DATA
 0002:00007478 00000003H .rdata$_ZTSPd           DATA
 0002:00007480 00000020H .rdata$_ZTIPd           DATA
 0002:000074a0 00000004H .rdata$_ZTSPKd          DATA
 0002:000074a8 00000020H .rdata$_ZTIPKd          DATA
 0002:000074c8 00000002H .rdata$_ZTSe            DATA
 0002:000074d0 00000010H .rdata$_ZTIe            DATA
 0002:000074e0 00000003H .rdata$_ZTSPe           DATA
 0002:000074e8 00000020H .rdata$_ZTIPe           DATA
 0002:00007508 00000004H .rdata$_ZTSPKe          DATA
 0002:00007510 00000020H .rdata$_ZTIPKe          DATA
 0002:00007530 00000002H .rdata$_ZTSg            DATA
 0002:00007538 00000010H .rdata$_ZTIg            DATA
 0002:00007548 00000003H .rdata$_ZTSPg           DATA
 0002:00007550 00000020H .rdata$_ZTIPg           DATA
 0002:00007570 00000004H .rdata$_ZTSPKg          DATA
 0002:00007578 00000020H .rdata$_ZTIPKg          DATA
 0002:00007598 00000003H .rdata$_ZTSDu           DATA
 0002:000075a0 00000010H .rdata$_ZTIDu           DATA
 0002:000075b0 00000004H .rdata$_ZTSPDu          DATA
 0002:000075b8 00000020H .rdata$_ZTIPDu          DATA
 0002:000075d8 00000005H .rdata$_ZTSPKDu         DATA
 0002:000075e0 00000020H .rdata$_ZTIPKDu         DATA
 0002:00007600 00000003H .rdata$_ZTSDs           DATA
 0002:00007608 00000010H .rdata$_ZTIDs           DATA
 0002:00007618 00000004H .rdata$_ZTSPDs          DATA
 0002:00007620 00000020H .rdata$_ZTIPDs          DATA
 0002:00007640 00000005H .rdata$_ZTSPKDs         DATA
 0002:00007648 00000020H .rdata$_ZTIPKDs         DATA
 0002:00007668 00000003H .rdata$_ZTSDi           DATA
 0002:00007670 00000010H .rdata$_ZTIDi           DATA
 0002:00007680 00000004H .rdata$_ZTSPDi          DATA
 0002:00007688 00000020H .rdata$_ZTIPDi          DATA
 0002:000076a8 00000005H .rdata$_ZTSPKDi         DATA
 0002:000076b0 00000020H .rdata$_ZTIPKDi         DATA
 0002:000076d0 00000038H .rdata$_ZTVN10__cxxabiv117__array_type_infoE DATA
 0002:00007708 00000022H .rdata$_ZTSN10__cxxabiv117__array_type_infoE DATA
 0002:00007730 00000018H .rdata$_ZTIN10__cxxabiv117__array_type_infoE DATA
 0002:00007748 00000038H .rdata$_ZTVN10__cxxabiv120__function_type_infoE DATA
 0002:00007780 00000038H .rdata$_ZTVN10__cxxabiv116__enum_type_infoE DATA
 0002:000077b8 00000021H .rdata$_ZTSN10__cxxabiv116__enum_type_infoE DATA
 0002:000077e0 00000018H .rdata$_ZTIN10__cxxabiv116__enum_type_infoE DATA
 0002:000077f8 00000050H .rdata$_ZTVN10__cxxabiv117__class_type_infoE DATA
 0002:00007848 00000050H .rdata$_ZTVN10__cxxabiv120__si_class_type_infoE DATA
 0002:00007898 00000025H .rdata$_ZTSN10__cxxabiv120__si_class_type_infoE DATA
 0002:000078c0 00000018H .rdata$_ZTIN10__cxxabiv120__si_class_type_infoE DATA
 0002:000078d8 00000050H .rdata$_ZTVN10__cxxabiv121__vmi_class_type_infoE DATA
 0002:00007928 00000026H .rdata$_ZTSN10__cxxabiv121__vmi_class_type_infoE DATA
 0002:00007950 00000018H .rdata$_ZTIN10__cxxabiv121__vmi_class_type_infoE DATA
 0002:00007968 00000038H .rdata$_ZTVN10__cxxabiv117__pbase_type_infoE DATA
 0002:000079a0 00000038H .rdata$_ZTVN10__cxxabiv119__pointer_type_infoE DATA
 0002:000079d8 00000038H .rdata$_ZTVN10__cxxabiv129__pointer_to_member_type_infoE DATA
 0002:00007a10 00000028H .rdata$_ZTVSt11logic_error DATA
 0002:00007a38 00000028H .rdata$_ZTVSt13runtime_error DATA
 0002:00007a60 00000028H .rdata$_ZTVSt12domain_error DATA
 0002:00007a88 00000011H .rdata$_ZTSSt12domain_error DATA
 0002:00007aa0 00000018H .rdata$_ZTISt12domain_error DATA
 0002:00007ab8 00000028H .rdata$_ZTVSt16invalid_argument DATA
 0002:00007ae0 00000028H .rdata$_ZTVSt12length_error DATA
 0002:00007b08 00000028H .rdata$_ZTVSt12out_of_range DATA
 0002:00007b30 00000028H .rdata$_ZTVSt11range_error DATA
 0002:00007b58 00000010H .rdata$_ZTSSt11range_error DATA
 0002:00007b68 00000018H .rdata$_ZTISt11range_error DATA
 0002:00007b80 00000028H .rdata$_ZTVSt14overflow_error DATA
 0002:00007ba8 00000013H .rdata$_ZTSSt14overflow_error DATA
 0002:00007bc0 00000018H .rdata$_ZTISt14overflow_error DATA
 0002:00007bd8 00000028H .rdata$_ZTVSt15underflow_error DATA
 0002:00007c00 00000014H .rdata$_ZTSSt15underflow_error DATA
 0002:00007c18 00000018H .rdata$_ZTISt15underflow_error DATA
 0002:00007c30 00000008H .rdata$.refptr._ZTVSt11logic_error DATA
 0002:00007c38 00000008H .rdata$.refptr._ZTVSt13runtime_error DATA
 0002:00007c40 0000004bH .rdata                  DATA
 0002:00007c90 00000048H .rdata$_ZTVNSt3__124__generic_error_categoryE DATA
 0002:00007cd8 00000029H .rdata                  DATA
 0002:00007d08 00000048H .rdata$_ZTVNSt3__123__system_error_categoryE DATA
 0002:00007d50 00000003H .rdata                  DATA
 0002:00007d58 00000028H .rdata$_ZTVNSt3__112system_errorE DATA
 0002:00007d80 00000048H .rdata$_ZTVNSt3__114error_categoryE DATA
 0002:00007dc8 00000048H .rdata$_ZTVNSt3__112__do_messageE DATA
 0002:00007e10 00000023H .rdata$_ZTSNSt3__124__generic_error_categoryE DATA
 0002:00007e38 00000018H .rdata$_ZTINSt3__124__generic_error_categoryE DATA
 0002:00007e50 00000022H .rdata$_ZTSNSt3__123__system_error_categoryE DATA
 0002:00007e78 00000018H .rdata$_ZTINSt3__123__system_error_categoryE DATA
 0002:00007e90 000000a5H .rdata                  DATA
 0002:00007f35 00000001H .rdata$_ZSt7nothrow     DATA
 0002:00007f38 00000028H .rdata$_ZTVSt8bad_cast  DATA
 0002:00007f60 0000000eH .rdata                  DATA
 0002:00007f70 00000028H .rdata$_ZTVSt10bad_typeid DATA
 0002:00007f98 00000010H .rdata                  DATA
 0002:00007fa8 00000020H .rdata$_ZTVSt9type_info DATA
 0002:00007fc8 0000000fH .rdata$_ZTSSt10bad_typeid DATA
 0002:00007fd8 00000018H .rdata$_ZTISt10bad_typeid DATA
 0002:00007ff0 0000000dH .rdata                  DATA
 0002:00007ffd 00000001H .rdata$_ZNSt3__113allocator_argE DATA
 0002:00007ffe 0000000dH .rdata                  DATA
 0002:00008010 00000028H .rdata$_ZTVNSt3__112bad_weak_ptrE DATA
 0002:00008038 00000017H .rdata$_ZTSNSt3__112bad_weak_ptrE DATA
 0002:00008050 00000018H .rdata$_ZTINSt3__112bad_weak_ptrE DATA
 0002:00008068 00000028H .rdata$_ZTVNSt3__114__shared_countE DATA
 0002:00008090 00000038H .rdata$_ZTVNSt3__119__shared_weak_countE DATA
 0002:000080c8 0000001eH .rdata$_ZTSNSt3__119__shared_weak_countE DATA
 0002:000080e8 00000028H .rdata$_ZTINSt3__119__shared_weak_countE DATA
 0002:00008110 00000001H .rdata$_ZNSt3__110defer_lockE DATA
 0002:00008111 00000001H .rdata$_ZNSt3__111try_to_lockE DATA
 0002:00008112 00000001H .rdata$_ZNSt3__110adopt_lockE DATA
 0002:00008113 000010d3H .rdata                  DATA
 0002:000091e8 00000058H .rdata$_ZTVN12_GLOBAL__N_116itanium_demangle11SpecialNameE DATA
 0002:00009240 00000030H .rdata$_ZTSN12_GLOBAL__N_116itanium_demangle11SpecialNameE DATA
 0002:00009270 00000028H .rdata$_ZTSN12_GLOBAL__N_116itanium_demangle4NodeE DATA
 0002:00009298 00000010H .rdata$_ZTIN12_GLOBAL__N_116itanium_demangle4NodeE DATA
 0002:000092a8 00000018H .rdata$_ZTIN12_GLOBAL__N_116itanium_demangle11SpecialNameE DATA
 0002:000092c0 00000058H .rdata$_ZTVN12_GLOBAL__N_116itanium_demangle21CtorVtableSpecialNameE DATA
 0002:00009318 0000003aH .rdata$_ZTSN12_GLOBAL__N_116itanium_demangle21CtorVtableSpecialNameE DATA
 0002:00009358 00000018H .rdata$_ZTIN12_GLOBAL__N_116itanium_demangle21CtorVtableSpecialNameE DATA
 0002:00009370 0000003aH .rdata                  DATA
 0002:000093b0 00000058H .rdata$_ZTVN12_GLOBAL__N_116itanium_demangle8NameTypeE DATA
 0002:00009408 0000002cH .rdata$_ZTSN12_GLOBAL__N_116itanium_demangle8NameTypeE DATA
 0002:00009438 00000018H .rdata$_ZTIN12_GLOBAL__N_116itanium_demangle8NameTypeE DATA
 0002:00009450 00000058H .rdata$_ZTVN12_GLOBAL__N_116itanium_demangle10ModuleNameE DATA
 0002:000094a8 0000002fH .rdata$_ZTSN12_GLOBAL__N_116itanium_demangle10ModuleNameE DATA
 0002:000094d8 00000018H .rdata$_ZTIN12_GLOBAL__N_116itanium_demangle10ModuleNameE DATA
 0002:000094f0 00000009H .rdata                  DATA
 0002:00009500 00000058H .rdata$_ZTVN12_GLOBAL__N_116itanium_demangle24ForwardTemplateReferenceE DATA
 0002:00009558 0000003dH .rdata$_ZTSN12_GLOBAL__N_116itanium_demangle24ForwardTemplateReferenceE DATA
 0002:00009598 00000018H .rdata$_ZTIN12_GLOBAL__N_116itanium_demangle24ForwardTemplateReferenceE DATA
 0002:000095b0 000002deH .rdata                  DATA
 0002:00009890 000003e0H .rdata$_ZN12_GLOBAL__N_116itanium_demangle22AbstractManglingParserINS0_14ManglingParserINS_16DefaultAllocatorEEES3_E3OpsE DATA
 0002:00009c70 0000004dH .rdata                  DATA
 0002:00009cc0 00000058H .rdata$_ZTVN12_GLOBAL__N_116itanium_demangle10BinaryExprE DATA
 0002:00009d18 0000002fH .rdata$_ZTSN12_GLOBAL__N_116itanium_demangle10BinaryExprE DATA
 0002:00009d48 00000018H .rdata$_ZTIN12_GLOBAL__N_116itanium_demangle10BinaryExprE DATA
 0002:00009d60 00000003H .rdata                  DATA
 0002:00009d68 00000058H .rdata$_ZTVN12_GLOBAL__N_116itanium_demangle10PrefixExprE DATA
 0002:00009dc0 0000002fH .rdata$_ZTSN12_GLOBAL__N_116itanium_demangle10PrefixExprE DATA
 0002:00009df0 00000018H .rdata$_ZTIN12_GLOBAL__N_116itanium_demangle10PrefixExprE DATA
 0002:00009e08 00000058H .rdata$_ZTVN12_GLOBAL__N_116itanium_demangle11PostfixExprE DATA
 0002:00009e60 00000030H .rdata$_ZTSN12_GLOBAL__N_116itanium_demangle11PostfixExprE DATA
 0002:00009e90 00000018H .rdata$_ZTIN12_GLOBAL__N_116itanium_demangle11PostfixExprE DATA
 0002:00009ea8 00000058H .rdata$_ZTVN12_GLOBAL__N_116itanium_demangle18ArraySubscriptExprE DATA
 0002:00009f00 00000037H .rdata$_ZTSN12_GLOBAL__N_116itanium_demangle18ArraySubscriptExprE DATA
 0002:00009f38 00000018H .rdata$_ZTIN12_GLOBAL__N_116itanium_demangle18ArraySubscriptExprE DATA
 0002:00009f50 00000058H .rdata$_ZTVN12_GLOBAL__N_116itanium_demangle10MemberExprE DATA
 0002:00009fa8 0000002fH .rdata$_ZTSN12_GLOBAL__N_116itanium_demangle10MemberExprE DATA
 0002:00009fd8 00000018H .rdata$_ZTIN12_GLOBAL__N_116itanium_demangle10MemberExprE DATA
 0002:00009ff0 00000058H .rdata$_ZTVN12_GLOBAL__N_116itanium_demangle7NewExprE DATA
 0002:0000a048 0000002bH .rdata$_ZTSN12_GLOBAL__N_116itanium_demangle7NewExprE DATA
 0002:0000a078 00000018H .rdata$_ZTIN12_GLOBAL__N_116itanium_demangle7NewExprE DATA
 0002:0000a090 00000004H .rdata                  DATA
 0002:0000a098 00000058H .rdata$_ZTVN12_GLOBAL__N_116itanium_demangle10DeleteExprE DATA
 0002:0000a0f0 0000002fH .rdata$_ZTSN12_GLOBAL__N_116itanium_demangle10DeleteExprE DATA
 0002:0000a120 00000018H .rdata$_ZTIN12_GLOBAL__N_116itanium_demangle10DeleteExprE DATA
 0002:0000a138 00000007H .rdata                  DATA
 0002:0000a140 00000058H .rdata$_ZTVN12_GLOBAL__N_116itanium_demangle8CallExprE DATA
 0002:0000a198 0000002cH .rdata$_ZTSN12_GLOBAL__N_116itanium_demangle8CallExprE DATA
 0002:0000a1c8 00000018H .rdata$_ZTIN12_GLOBAL__N_116itanium_demangle8CallExprE DATA
 0002:0000a1e0 00000058H .rdata$_ZTVN12_GLOBAL__N_116itanium_demangle14ConversionExprE DATA
 0002:0000a238 00000033H .rdata$_ZTSN12_GLOBAL__N_116itanium_demangle14ConversionExprE DATA
 0002:0000a270 00000018H .rdata$_ZTIN12_GLOBAL__N_116itanium_demangle14ConversionExprE DATA
 0002:0000a288 00000058H .rdata$_ZTVN12_GLOBAL__N_116itanium_demangle15ConditionalExprE DATA
 0002:0000a2e0 00000034H .rdata$_ZTSN12_GLOBAL__N_116itanium_demangle15ConditionalExprE DATA
 0002:0000a318 00000018H .rdata$_ZTIN12_GLOBAL__N_116itanium_demangle15ConditionalExprE DATA
 0002:0000a330 00000008H .rdata                  DATA
 0002:0000a338 00000058H .rdata$_ZTVN12_GLOBAL__N_116itanium_demangle8CastExprE DATA
 0002:0000a390 0000002cH .rdata$_ZTSN12_GLOBAL__N_116itanium_demangle8CastExprE DATA
 0002:0000a3c0 00000018H .rdata$_ZTIN12_GLOBAL__N_116itanium_demangle8CastExprE DATA
 0002:0000a3d8 00000058H .rdata$_ZTVN12_GLOBAL__N_116itanium_demangle13EnclosingExprE DATA
 0002:0000a430 00000032H .rdata$_ZTSN12_GLOBAL__N_116itanium_demangle13EnclosingExprE DATA
 0002:0000a468 00000018H .rdata$_ZTIN12_GLOBAL__N_116itanium_demangle13EnclosingExprE DATA
 0002:0000a480 00000079H .rdata                  DATA
 0002:0000a500 00000058H .rdata$_ZTVN12_GLOBAL__N_116itanium_demangle14IntegerLiteralE DATA
 0002:0000a558 00000033H .rdata$_ZTSN12_GLOBAL__N_116itanium_demangle14IntegerLiteralE DATA
 0002:0000a590 00000018H .rdata$_ZTIN12_GLOBAL__N_116itanium_demangle14IntegerLiteralE DATA
 0002:0000a5a8 00000058H .rdata$_ZTVN12_GLOBAL__N_116itanium_demangle8BoolExprE DATA
 0002:0000a600 0000002cH .rdata$_ZTSN12_GLOBAL__N_116itanium_demangle8BoolExprE DATA
 0002:0000a630 00000018H .rdata$_ZTIN12_GLOBAL__N_116itanium_demangle8BoolExprE DATA
 0002:0000a648 00000058H .rdata$_ZTVN12_GLOBAL__N_116itanium_demangle16FloatLiteralImplIfEE DATA
 0002:0000a6a0 00000038H .rdata$_ZTSN12_GLOBAL__N_116itanium_demangle16FloatLiteralImplIfEE DATA
 0002:0000a6d8 00000018H .rdata$_ZTIN12_GLOBAL__N_116itanium_demangle16FloatLiteralImplIfEE DATA
 0002:0000a6f0 00000058H .rdata$_ZTVN12_GLOBAL__N_116itanium_demangle16FloatLiteralImplIdEE DATA
 0002:0000a748 00000038H .rdata$_ZTSN12_GLOBAL__N_116itanium_demangle16FloatLiteralImplIdEE DATA
 0002:0000a780 00000018H .rdata$_ZTIN12_GLOBAL__N_116itanium_demangle16FloatLiteralImplIdEE DATA
 0002:0000a798 00000058H .rdata$_ZTVN12_GLOBAL__N_116itanium_demangle16FloatLiteralImplIeEE DATA
 0002:0000a7f0 00000038H .rdata$_ZTSN12_GLOBAL__N_116itanium_demangle16FloatLiteralImplIeEE DATA
 0002:0000a828 00000018H .rdata$_ZTIN12_GLOBAL__N_116itanium_demangle16FloatLiteralImplIeEE DATA
 0002:0000a840 00000058H .rdata$_ZTVN12_GLOBAL__N_116itanium_demangle13StringLiteralE DATA
 0002:0000a898 00000032H .rdata$_ZTSN12_GLOBAL__N_116itanium_demangle13StringLiteralE DATA
 0002:0000a8d0 00000018H .rdata$_ZTIN12_GLOBAL__N_116itanium_demangle13StringLiteralE DATA
 0002:0000a8e8 00000021H .rdata                  DATA
 0002:0000a910 00000058H .rdata$_ZTVN12_GLOBAL__N_116itanium_demangle15UnnamedTypeNameE DATA
 0002:0000a968 00000034H .rdata$_ZTSN12_GLOBAL__N_116itanium_demangle15UnnamedTypeNameE DATA
 0002:0000a9a0 00000018H .rdata$_ZTIN12_GLOBAL__N_116itanium_demangle15UnnamedTypeNameE DATA
 0002:0000a9b8 0000000cH .rdata                  DATA
 0002:0000a9c8 00000058H .rdata$_ZTVN12_GLOBAL__N_116itanium_demangle26SyntheticTemplateParamNameE DATA
 0002:0000aa20 0000003fH .rdata$_ZTSN12_GLOBAL__N_116itanium_demangle26SyntheticTemplateParamNameE DATA
 0002:0000aa60 00000018H .rdata$_ZTIN12_GLOBAL__N_116itanium_demangle26SyntheticTemplateParamNameE DATA
 0002:0000aa78 00000037H .rdata                  DATA
 0002:0000aab0 00000058H .rdata$_ZTVN12_GLOBAL__N_116itanium_demangle21TypeTemplateParamDeclE DATA
 0002:0000ab08 0000003aH .rdata$_ZTSN12_GLOBAL__N_116itanium_demangle21TypeTemplateParamDeclE DATA
 0002:0000ab48 00000018H .rdata$_ZTIN12_GLOBAL__N_116itanium_demangle21TypeTemplateParamDeclE DATA
 0002:0000ab60 0000000aH .rdata                  DATA
 0002:0000ab70 00000058H .rdata$_ZTVN12_GLOBAL__N_116itanium_demangle24NonTypeTemplateParamDeclE DATA
 0002:0000abc8 0000003dH .rdata$_ZTSN12_GLOBAL__N_116itanium_demangle24NonTypeTemplateParamDeclE DATA
 0002:0000ac08 00000018H .rdata$_ZTIN12_GLOBAL__N_116itanium_demangle24NonTypeTemplateParamDeclE DATA
 0002:0000ac20 00000058H .rdata$_ZTVN12_GLOBAL__N_116itanium_demangle25TemplateTemplateParamDeclE DATA
 0002:0000ac78 0000003eH .rdata$_ZTSN12_GLOBAL__N_116itanium_demangle25TemplateTemplateParamDeclE DATA
 0002:0000acb8 00000018H .rdata$_ZTIN12_GLOBAL__N_116itanium_demangle25TemplateTemplateParamDeclE DATA
 0002:0000acd0 00000016H .rdata                  DATA
 0002:0000ace8 00000058H .rdata$_ZTVN12_GLOBAL__N_116itanium_demangle21TemplateParamPackDeclE DATA
 0002:0000ad40 0000003aH .rdata$_ZTSN12_GLOBAL__N_116itanium_demangle21TemplateParamPackDeclE DATA
 0002:0000ad80 00000018H .rdata$_ZTIN12_GLOBAL__N_116itanium_demangle21TemplateParamPackDeclE DATA
 0002:0000ad98 0000002dH .rdata                  DATA
 0002:0000adc8 00000058H .rdata$_ZTVN12_GLOBAL__N_116itanium_demangle15ClosureTypeNameE DATA
 0002:0000ae20 00000034H .rdata$_ZTSN12_GLOBAL__N_116itanium_demangle15ClosureTypeNameE DATA
 0002:0000ae58 00000018H .rdata$_ZTIN12_GLOBAL__N_116itanium_demangle15ClosureTypeNameE DATA
 0002:0000ae70 00000070H .rdata                  DATA
 0002:0000aee0 00000058H .rdata$_ZTVN12_GLOBAL__N_116itanium_demangle10LambdaExprE DATA
 0002:0000af38 0000002fH .rdata$_ZTSN12_GLOBAL__N_116itanium_demangle10LambdaExprE DATA
 0002:0000af68 00000018H .rdata$_ZTIN12_GLOBAL__N_116itanium_demangle10LambdaExprE DATA
 0002:0000af80 00000006H .rdata                  DATA
 0002:0000af88 00000058H .rdata$_ZTVN12_GLOBAL__N_116itanium_demangle11EnumLiteralE DATA
 0002:0000afe0 00000030H .rdata$_ZTSN12_GLOBAL__N_116itanium_demangle11EnumLiteralE DATA
 0002:0000b010 00000018H .rdata$_ZTIN12_GLOBAL__N_116itanium_demangle11EnumLiteralE DATA
 0002:0000b028 0000000fH .rdata                  DATA
 0002:0000b038 00000058H .rdata$_ZTVN12_GLOBAL__N_116itanium_demangle13FunctionParamE DATA
 0002:0000b090 00000032H .rdata$_ZTSN12_GLOBAL__N_116itanium_demangle13FunctionParamE DATA
 0002:0000b0c8 00000018H .rdata$_ZTIN12_GLOBAL__N_116itanium_demangle13FunctionParamE DATA
 0002:0000b0e0 0000005eH .rdata                  DATA
 0002:0000b140 00000058H .rdata$_ZTVN12_GLOBAL__N_116itanium_demangle8FoldExprE DATA
 0002:0000b198 0000002cH .rdata$_ZTSN12_GLOBAL__N_116itanium_demangle8FoldExprE DATA
 0002:0000b1c8 00000018H .rdata$_ZTIN12_GLOBAL__N_116itanium_demangle8FoldExprE DATA
 0002:0000b1e0 00000058H .rdata$_ZTVN12_GLOBAL__N_116itanium_demangle22ParameterPackExpansionE DATA
 0002:0000b238 0000003bH .rdata$_ZTSN12_GLOBAL__N_116itanium_demangle22ParameterPackExpansionE DATA
 0002:0000b278 00000018H .rdata$_ZTIN12_GLOBAL__N_116itanium_demangle22ParameterPackExpansionE DATA
 0002:0000b290 00000058H .rdata$_ZTVN12_GLOBAL__N_116itanium_demangle10BracedExprE DATA
 0002:0000b2e8 0000002fH .rdata$_ZTSN12_GLOBAL__N_116itanium_demangle10BracedExprE DATA
 0002:0000b318 00000018H .rdata$_ZTIN12_GLOBAL__N_116itanium_demangle10BracedExprE DATA
 0002:0000b330 00000004H .rdata                  DATA
 0002:0000b338 00000058H .rdata$_ZTVN12_GLOBAL__N_116itanium_demangle15BracedRangeExprE DATA
 0002:0000b390 00000034H .rdata$_ZTSN12_GLOBAL__N_116itanium_demangle15BracedRangeExprE DATA
 0002:0000b3c8 00000018H .rdata$_ZTIN12_GLOBAL__N_116itanium_demangle15BracedRangeExprE DATA
 0002:0000b3e0 00000006H .rdata                  DATA
 0002:0000b3e8 00000058H .rdata$_ZTVN12_GLOBAL__N_116itanium_demangle12InitListExprE DATA
 0002:0000b440 00000031H .rdata$_ZTSN12_GLOBAL__N_116itanium_demangle12InitListExprE DATA
 0002:0000b478 00000018H .rdata$_ZTIN12_GLOBAL__N_116itanium_demangle12InitListExprE DATA
 0002:0000b490 00000058H .rdata$_ZTVN12_GLOBAL__N_116itanium_demangle29PointerToMemberConversionExprE DATA
 0002:0000b4e8 00000042H .rdata$_ZTSN12_GLOBAL__N_116itanium_demangle29PointerToMemberConversionExprE DATA
 0002:0000b530 00000018H .rdata$_ZTIN12_GLOBAL__N_116itanium_demangle29PointerToMemberConversionExprE DATA
 0002:0000b548 00000058H .rdata$_ZTVN12_GLOBAL__N_116itanium_demangle13SubobjectExprE DATA
 0002:0000b5a0 00000032H .rdata$_ZTSN12_GLOBAL__N_116itanium_demangle13SubobjectExprE DATA
 0002:0000b5d8 00000018H .rdata$_ZTIN12_GLOBAL__N_116itanium_demangle13SubobjectExprE DATA
 0002:0000b5f0 0000000cH .rdata                  DATA
 0002:0000b600 00000058H .rdata$_ZTVN12_GLOBAL__N_116itanium_demangle19SizeofParamPackExprE DATA
 0002:0000b658 00000038H .rdata$_ZTSN12_GLOBAL__N_116itanium_demangle19SizeofParamPackExprE DATA
 0002:0000b690 00000018H .rdata$_ZTIN12_GLOBAL__N_116itanium_demangle19SizeofParamPackExprE DATA
 0002:0000b6a8 0000000aH .rdata                  DATA
 0002:0000b6b8 00000058H .rdata$_ZTVN12_GLOBAL__N_116itanium_demangle13NodeArrayNodeE DATA
 0002:0000b710 00000032H .rdata$_ZTSN12_GLOBAL__N_116itanium_demangle13NodeArrayNodeE DATA
 0002:0000b748 00000018H .rdata$_ZTIN12_GLOBAL__N_116itanium_demangle13NodeArrayNodeE DATA
 0002:0000b760 00000058H .rdata$_ZTVN12_GLOBAL__N_116itanium_demangle9ThrowExprE DATA
 0002:0000b7b8 0000002dH .rdata$_ZTSN12_GLOBAL__N_116itanium_demangle9ThrowExprE DATA
 0002:0000b7e8 00000018H .rdata$_ZTIN12_GLOBAL__N_116itanium_demangle9ThrowExprE DATA
 0002:0000b800 0000000eH .rdata                  DATA
 0002:0000b810 00000058H .rdata$_ZTVN12_GLOBAL__N_116itanium_demangle13QualifiedNameE DATA
 0002:0000b868 00000032H .rdata$_ZTSN12_GLOBAL__N_116itanium_demangle13QualifiedNameE DATA
 0002:0000b8a0 00000018H .rdata$_ZTIN12_GLOBAL__N_116itanium_demangle13QualifiedNameE DATA
 0002:0000b8b8 00000006H .rdata                  DATA
 0002:0000b8c0 00000058H .rdata$_ZTVN12_GLOBAL__N_116itanium_demangle8DtorNameE DATA
 0002:0000b918 0000002cH .rdata$_ZTSN12_GLOBAL__N_116itanium_demangle8DtorNameE DATA
 0002:0000b948 00000018H .rdata$_ZTIN12_GLOBAL__N_116itanium_demangle8DtorNameE DATA
 0002:0000b960 00000003H .rdata                  DATA
 0002:0000b968 00000058H .rdata$_ZTVN12_GLOBAL__N_116itanium_demangle22ConversionOperatorTypeE DATA
 0002:0000b9c0 0000003bH .rdata$_ZTSN12_GLOBAL__N_116itanium_demangle22ConversionOperatorTypeE DATA
 0002:0000ba00 00000018H .rdata$_ZTIN12_GLOBAL__N_116itanium_demangle22ConversionOperatorTypeE DATA
 0002:0000ba18 0000000aH .rdata                  DATA
 0002:0000ba28 00000058H .rdata$_ZTVN12_GLOBAL__N_116itanium_demangle15LiteralOperatorE DATA
 0002:0000ba80 00000034H .rdata$_ZTSN12_GLOBAL__N_116itanium_demangle15LiteralOperatorE DATA
 0002:0000bab8 00000018H .rdata$_ZTIN12_GLOBAL__N_116itanium_demangle15LiteralOperatorE DATA
 0002:0000bad0 0000000cH .rdata                  DATA
 0002:0000bae0 00000058H .rdata$_ZTVN12_GLOBAL__N_116itanium_demangle19GlobalQualifiedNameE DATA
 0002:0000bb38 00000038H .rdata$_ZTSN12_GLOBAL__N_116itanium_demangle19GlobalQualifiedNameE DATA
 0002:0000bb70 00000018H .rdata$_ZTIN12_GLOBAL__N_116itanium_demangle19GlobalQualifiedNameE DATA
 0002:0000bb88 00000058H .rdata$_ZTVN12_GLOBAL__N_116itanium_demangle19SpecialSubstitutionE DATA
 0002:0000bbe0 00000038H .rdata$_ZTSN12_GLOBAL__N_116itanium_demangle19SpecialSubstitutionE DATA
 0002:0000bc18 00000040H .rdata$_ZTSN12_GLOBAL__N_116itanium_demangle27ExpandedSpecialSubstitutionE DATA
 0002:0000bc58 00000018H .rdata$_ZTIN12_GLOBAL__N_116itanium_demangle27ExpandedSpecialSubstitutionE DATA
 0002:0000bc70 00000018H .rdata$_ZTIN12_GLOBAL__N_116itanium_demangle19SpecialSubstitutionE DATA
 0002:0000bc88 00000058H .rdata$_ZTVN12_GLOBAL__N_116itanium_demangle27ExpandedSpecialSubstitutionE DATA
 0002:0000bce0 0000009cH .rdata                  DATA
 0002:0000bd80 00000058H .rdata$_ZTVN12_GLOBAL__N_116itanium_demangle10AbiTagAttrE DATA
 0002:0000bdd8 0000002fH .rdata$_ZTSN12_GLOBAL__N_116itanium_demangle10AbiTagAttrE DATA
 0002:0000be08 00000018H .rdata$_ZTIN12_GLOBAL__N_116itanium_demangle10AbiTagAttrE DATA
 0002:0000be20 00000009H .rdata                  DATA
 0002:0000be30 00000058H .rdata$_ZTVN12_GLOBAL__N_116itanium_demangle21StructuredBindingNameE DATA
 0002:0000be88 0000003aH .rdata$_ZTSN12_GLOBAL__N_116itanium_demangle21StructuredBindingNameE DATA
 0002:0000bec8 00000018H .rdata$_ZTIN12_GLOBAL__N_116itanium_demangle21StructuredBindingNameE DATA
 0002:0000bee0 00000058H .rdata$_ZTVN12_GLOBAL__N_116itanium_demangle12CtorDtorNameE DATA
 0002:0000bf38 00000031H .rdata$_ZTSN12_GLOBAL__N_116itanium_demangle12CtorDtorNameE DATA
 0002:0000bf70 00000018H .rdata$_ZTIN12_GLOBAL__N_116itanium_demangle12CtorDtorNameE DATA
 0002:0000bf88 00000058H .rdata$_ZTVN12_GLOBAL__N_116itanium_demangle12ModuleEntityE DATA
 0002:0000bfe0 00000031H .rdata$_ZTSN12_GLOBAL__N_116itanium_demangle12ModuleEntityE DATA
 0002:0000c018 00000018H .rdata$_ZTIN12_GLOBAL__N_116itanium_demangle12ModuleEntityE DATA
 0002:0000c030 00000058H .rdata$_ZTVN12_GLOBAL__N_116itanium_demangle10NestedNameE DATA
 0002:0000c088 0000002fH .rdata$_ZTSN12_GLOBAL__N_116itanium_demangle10NestedNameE DATA
 0002:0000c0b8 00000018H .rdata$_ZTIN12_GLOBAL__N_116itanium_demangle10NestedNameE DATA
 0002:0000c0d0 0000000fH .rdata                  DATA
 0002:0000c0e0 00000058H .rdata$_ZTVN12_GLOBAL__N_116itanium_demangle9LocalNameE DATA
 0002:0000c138 0000002dH .rdata$_ZTSN12_GLOBAL__N_116itanium_demangle9LocalNameE DATA
 0002:0000c168 00000018H .rdata$_ZTIN12_GLOBAL__N_116itanium_demangle9LocalNameE DATA
 0002:0000c180 00000003H .rdata                  DATA
 0002:0000c188 00000058H .rdata$_ZTVN12_GLOBAL__N_116itanium_demangle13ParameterPackE DATA
 0002:0000c1e0 00000032H .rdata$_ZTSN12_GLOBAL__N_116itanium_demangle13ParameterPackE DATA
 0002:0000c218 00000018H .rdata$_ZTIN12_GLOBAL__N_116itanium_demangle13ParameterPackE DATA
 0002:0000c230 00000058H .rdata$_ZTVN12_GLOBAL__N_116itanium_demangle12TemplateArgsE DATA
 0002:0000c288 00000031H .rdata$_ZTSN12_GLOBAL__N_116itanium_demangle12TemplateArgsE DATA
 0002:0000c2c0 00000018H .rdata$_ZTIN12_GLOBAL__N_116itanium_demangle12TemplateArgsE DATA
 0002:0000c2d8 00000058H .rdata$_ZTVN12_GLOBAL__N_116itanium_demangle20NameWithTemplateArgsE DATA
 0002:0000c330 00000039H .rdata$_ZTSN12_GLOBAL__N_116itanium_demangle20NameWithTemplateArgsE DATA
 0002:0000c370 00000018H .rdata$_ZTIN12_GLOBAL__N_116itanium_demangle20NameWithTemplateArgsE DATA
 0002:0000c388 00000058H .rdata$_ZTVN12_GLOBAL__N_116itanium_demangle20TemplateArgumentPackE DATA
 0002:0000c3e0 00000039H .rdata$_ZTSN12_GLOBAL__N_116itanium_demangle20TemplateArgumentPackE DATA
 0002:0000c420 00000018H .rdata$_ZTIN12_GLOBAL__N_116itanium_demangle20TemplateArgumentPackE DATA
 0002:0000c438 00000058H .rdata$_ZTVN12_GLOBAL__N_116itanium_demangle12EnableIfAttrE DATA
 0002:0000c490 00000031H .rdata$_ZTSN12_GLOBAL__N_116itanium_demangle12EnableIfAttrE DATA
 0002:0000c4c8 00000018H .rdata$_ZTIN12_GLOBAL__N_116itanium_demangle12EnableIfAttrE DATA
 0002:0000c4e0 0000002aH .rdata                  DATA
 0002:0000c510 00000058H .rdata$_ZTVN12_GLOBAL__N_116itanium_demangle16FunctionEncodingE DATA
 0002:0000c568 00000035H .rdata$_ZTSN12_GLOBAL__N_116itanium_demangle16FunctionEncodingE DATA
 0002:0000c5a0 00000018H .rdata$_ZTIN12_GLOBAL__N_116itanium_demangle16FunctionEncodingE DATA
 0002:0000c5b8 0000001fH .rdata                  DATA
 0002:0000c5d8 00000058H .rdata$_ZTVN12_GLOBAL__N_116itanium_demangle9DotSuffixE DATA
 0002:0000c630 0000002dH .rdata$_ZTSN12_GLOBAL__N_116itanium_demangle9DotSuffixE DATA
 0002:0000c660 00000018H .rdata$_ZTIN12_GLOBAL__N_116itanium_demangle9DotSuffixE DATA
 0002:0000c678 000000faH .rdata                  DATA
 0002:0000c778 00000058H .rdata$_ZTVN12_GLOBAL__N_116itanium_demangle12NoexceptSpecE DATA
 0002:0000c7d0 00000031H .rdata$_ZTSN12_GLOBAL__N_116itanium_demangle12NoexceptSpecE DATA
 0002:0000c808 00000018H .rdata$_ZTIN12_GLOBAL__N_116itanium_demangle12NoexceptSpecE DATA
 0002:0000c820 00000058H .rdata$_ZTVN12_GLOBAL__N_116itanium_demangle20DynamicExceptionSpecE DATA
 0002:0000c878 00000039H .rdata$_ZTSN12_GLOBAL__N_116itanium_demangle20DynamicExceptionSpecE DATA
 0002:0000c8b8 00000018H .rdata$_ZTIN12_GLOBAL__N_116itanium_demangle20DynamicExceptionSpecE DATA
 0002:0000c8d0 00000058H .rdata$_ZTVN12_GLOBAL__N_116itanium_demangle12FunctionTypeE DATA
 0002:0000c928 00000031H .rdata$_ZTSN12_GLOBAL__N_116itanium_demangle12FunctionTypeE DATA
 0002:0000c960 00000018H .rdata$_ZTIN12_GLOBAL__N_116itanium_demangle12FunctionTypeE DATA
 0002:0000c978 0000000aH .rdata                  DATA
 0002:0000c988 00000058H .rdata$_ZTVN12_GLOBAL__N_116itanium_demangle13ObjCProtoNameE DATA
 0002:0000c9e0 00000032H .rdata$_ZTSN12_GLOBAL__N_116itanium_demangle13ObjCProtoNameE DATA
 0002:0000ca18 00000018H .rdata$_ZTIN12_GLOBAL__N_116itanium_demangle13ObjCProtoNameE DATA
 0002:0000ca30 00000058H .rdata$_ZTVN12_GLOBAL__N_116itanium_demangle17VendorExtQualTypeE DATA
 0002:0000ca88 00000036H .rdata$_ZTSN12_GLOBAL__N_116itanium_demangle17VendorExtQualTypeE DATA
 0002:0000cac0 00000018H .rdata$_ZTIN12_GLOBAL__N_116itanium_demangle17VendorExtQualTypeE DATA
 0002:0000cad8 00000058H .rdata$_ZTVN12_GLOBAL__N_116itanium_demangle8QualTypeE DATA
 0002:0000cb30 0000002cH .rdata$_ZTSN12_GLOBAL__N_116itanium_demangle8QualTypeE DATA
 0002:0000cb60 00000018H .rdata$_ZTIN12_GLOBAL__N_116itanium_demangle8QualTypeE DATA
 0002:0000cb78 00000058H .rdata$_ZTVN12_GLOBAL__N_116itanium_demangle12BinaryFPTypeE DATA
 0002:0000cbd0 00000031H .rdata$_ZTSN12_GLOBAL__N_116itanium_demangle12BinaryFPTypeE DATA
 0002:0000cc08 00000018H .rdata$_ZTIN12_GLOBAL__N_116itanium_demangle12BinaryFPTypeE DATA
 0002:0000cc20 00000007H .rdata                  DATA
 0002:0000cc28 00000058H .rdata$_ZTVN12_GLOBAL__N_116itanium_demangle10BitIntTypeE DATA
 0002:0000cc80 0000002fH .rdata$_ZTSN12_GLOBAL__N_116itanium_demangle10BitIntTypeE DATA
 0002:0000ccb0 00000018H .rdata$_ZTIN12_GLOBAL__N_116itanium_demangle10BitIntTypeE DATA
 0002:0000ccc8 00000015H .rdata                  DATA
 0002:0000cce0 00000058H .rdata$_ZTVN12_GLOBAL__N_116itanium_demangle15PixelVectorTypeE DATA
 0002:0000cd38 00000034H .rdata$_ZTSN12_GLOBAL__N_116itanium_demangle15PixelVectorTypeE DATA
 0002:0000cd70 00000018H .rdata$_ZTIN12_GLOBAL__N_116itanium_demangle15PixelVectorTypeE DATA
 0002:0000cd88 0000000eH .rdata                  DATA
 0002:0000cd98 00000058H .rdata$_ZTVN12_GLOBAL__N_116itanium_demangle10VectorTypeE DATA
 0002:0000cdf0 0000002fH .rdata$_ZTSN12_GLOBAL__N_116itanium_demangle10VectorTypeE DATA
 0002:0000ce20 00000018H .rdata$_ZTIN12_GLOBAL__N_116itanium_demangle10VectorTypeE DATA
 0002:0000ce38 00000058H .rdata$_ZTVN12_GLOBAL__N_116itanium_demangle9ArrayTypeE DATA
 0002:0000ce90 0000002dH .rdata$_ZTSN12_GLOBAL__N_116itanium_demangle9ArrayTypeE DATA
 0002:0000cec0 00000018H .rdata$_ZTIN12_GLOBAL__N_116itanium_demangle9ArrayTypeE DATA
 0002:0000ced8 00000062H .rdata                  DATA
 0002:0000cf40 00000058H .rdata$_ZTVN12_GLOBAL__N_116itanium_demangle19PointerToMemberTypeE DATA
 0002:0000cf98 00000038H .rdata$_ZTSN12_GLOBAL__N_116itanium_demangle19PointerToMemberTypeE DATA
 0002:0000cfd0 00000018H .rdata$_ZTIN12_GLOBAL__N_116itanium_demangle19PointerToMemberTypeE DATA
 0002:0000cfe8 0000001fH .rdata                  DATA
 0002:0000d008 00000058H .rdata$_ZTVN12_GLOBAL__N_116itanium_demangle22ElaboratedTypeSpefTypeE DATA
 0002:0000d060 0000003bH .rdata$_ZTSN12_GLOBAL__N_116itanium_demangle22ElaboratedTypeSpefTypeE DATA
 0002:0000d0a0 00000018H .rdata$_ZTIN12_GLOBAL__N_116itanium_demangle22ElaboratedTypeSpefTypeE DATA
 0002:0000d0b8 00000058H .rdata$_ZTVN12_GLOBAL__N_116itanium_demangle11PointerTypeE DATA
 0002:0000d110 00000030H .rdata$_ZTSN12_GLOBAL__N_116itanium_demangle11PointerTypeE DATA
 0002:0000d140 00000018H .rdata$_ZTIN12_GLOBAL__N_116itanium_demangle11PointerTypeE DATA
 0002:0000d158 00000010H .rdata                  DATA
 0002:0000d168 00000058H .rdata$_ZTVN12_GLOBAL__N_116itanium_demangle13ReferenceTypeE DATA
 0002:0000d1c0 00000032H .rdata$_ZTSN12_GLOBAL__N_116itanium_demangle13ReferenceTypeE DATA
 0002:0000d1f8 00000018H .rdata$_ZTIN12_GLOBAL__N_116itanium_demangle13ReferenceTypeE DATA
 0002:0000d210 00000005H .rdata                  DATA
 0002:0000d218 00000058H .rdata$_ZTVN12_GLOBAL__N_116itanium_demangle20PostfixQualifiedTypeE DATA
 0002:0000d270 00000039H .rdata$_ZTSN12_GLOBAL__N_116itanium_demangle20PostfixQualifiedTypeE DATA
 0002:0000d2b0 00000018H .rdata$_ZTIN12_GLOBAL__N_116itanium_demangle20PostfixQualifiedTypeE DATA
 0002:0000d2c8 00000114H .rdata                  DATA
 0002:0000d3e0 00000008H .rdata$.refptr.__bigtens_D2A DATA
 0002:0000d3e8 00000008H .rdata$.refptr.__tens_D2A DATA
 0002:0000d3f0 00000008H .rdata$.refptr.__tinytens_D2A DATA
 0002:0000d3f8 000000a0H .rdata                  DATA
 0002:0000d498 00000001H .rdata$_ZNSt3__16chrono12system_clock9is_steadyE DATA
 0002:0000d499 00000001H .rdata$_ZNSt3__16chrono12steady_clock9is_steadyE DATA
 0002:0000d49a 0000015eH .rdata                  DATA
 0002:0000d5f8 00000008H .rdata$.refptr.__hexdig_D2A DATA
 0002:0000d600 00000209H .rdata                  DATA
 0002:0000d810 00000048H .rdata$_ZTVNSt3__123__future_error_categoryE DATA
 0002:0000d858 00000028H .rdata$_ZTVNSt3__112future_errorE DATA
 0002:0000d880 00000017H .rdata$_ZTSNSt3__112future_errorE DATA
 0002:0000d898 00000018H .rdata$_ZTINSt3__112future_errorE DATA
 0002:0000d8b0 00000030H .rdata$_ZTVNSt3__117__assoc_sub_stateE DATA
 0002:0000d8e0 0000001cH .rdata$_ZTSNSt3__117__assoc_sub_stateE DATA
 0002:0000d900 00000018H .rdata$_ZTINSt3__117__assoc_sub_stateE DATA
 0002:0000d918 00000022H .rdata$_ZTSNSt3__123__future_error_categoryE DATA
 0002:0000d940 00000018H .rdata$_ZTINSt3__123__future_error_categoryE DATA
 0002:0000d958 00000020H .rdata                  DATA
 0002:0000d978 00000008H .CRT$XCA                DATA
 0002:0000d980 00000008H .CRT$XCZ                DATA
 0002:0000d988 00000008H .CRT$XDA                DATA
 0002:0000d990 00000008H .CRT$XDZ                DATA
 0002:0000d998 00000008H .CRT$XIA                DATA
 0002:0000d9a0 00000008H .CRT$XIAA               DATA
 0002:0000d9a8 00000008H .CRT$XIZ                DATA
 0002:0000d9b0 00000008H .CRT$XLA                DATA
 0002:0000d9b8 00000008H .CRT$XLC                DATA
 0002:0000d9c0 00000008H .CRT$XLD                DATA
 0002:0000d9c8 00000008H .CRT$XLZ                DATA
 0002:0000d9d8 00000010H .ctors.65435            DATA
 0002:0000f120 00000050H .xdata                  DATA
 0002:0000f170 00000044H .xdata$_ZNSt3__124__put_character_sequenceIcNS_11char_traitsIcEEEERNS_13basic_ostreamIT_T0_EES7_PKS4_y DATA
 0002:0000f1b4 00000024H .xdata$_ZNSt3__116__pad_and_outputIcNS_11char_traitsIcEEEENS_19ostreambuf_iteratorIT_T0_EES6_PKS4_S8_S8_RNS_8ios_baseES4_ DATA
 0002:0000f1d8 00000020H .xdata$_ZNSt3__119ostreambuf_iteratorIcNS_11char_traitsIcEEEC2B6v15007ERNS_13basic_ostreamIcS2_EE DATA
 0002:0000f1f8 0000001cH .xdata$_ZNKSt3__19basic_iosIcNS_11char_traitsIcEEE5widenB6v15007Ec DATA
 0002:0000f214 00000034H .xdata$_ZNSt3__113basic_ostreamIcNS_11char_traitsIcEEE6sentryD2Ev DATA
 0002:0000f248 00000008H .xdata$_ZNSt3__1lsINS_11char_traitsIcEEEERNS_13basic_ostreamIcT_EES6_PKc DATA
 0002:0000f250 00000008H .xdata$_ZNSt3__113basic_ostreamIcNS_11char_traitsIcEEElsB6v15007EPFRS3_S4_E DATA
 0002:0000f258 00000008H .xdata$_ZNSt3__14endlIcNS_11char_traitsIcEEEERNS_13basic_ostreamIT_T0_EES7_ DATA
 0002:0000f260 00000044H .xdata$_ZNSt3__124__put_character_sequenceIcNS_11char_traitsIcEEEERNS_13basic_ostreamIT_T0_EES7_PKS4_y DATA
 0002:0000f2a4 00000008H .xdata$_ZNSt3__111char_traitsIcE6lengthEPKc DATA
 0002:0000f2ac 00000008H .xdata$_ZNSt3__113basic_ostreamIcNS_11char_traitsIcEEE6sentryC1ERS3_ DATA
 0002:0000f2b4 00000008H .xdata$_ZNKSt3__113basic_ostreamIcNS_11char_traitsIcEEE6sentrycvbB6v15007Ev DATA
 0002:0000f2bc 00000024H .xdata$_ZNSt3__116__pad_and_outputIcNS_11char_traitsIcEEEENS_19ostreambuf_iteratorIT_T0_EES6_PKS4_S8_S8_RNS_8ios_baseES4_ DATA
 0002:0000f2e0 00000008H .xdata$_ZNSt3__119ostreambuf_iteratorIcNS_11char_traitsIcEEEC1B6v15007ERNS_13basic_ostreamIcS2_EE DATA
 0002:0000f2e8 00000008H .xdata$_ZNKSt3__18ios_base5flagsB6v15007Ev DATA
 0002:0000f2f0 00000008H .xdata$_ZNKSt3__19basic_iosIcNS_11char_traitsIcEEE4fillB6v15007Ev DATA
 0002:0000f2f8 00000008H .xdata$_ZNKSt3__119ostreambuf_iteratorIcNS_11char_traitsIcEEE6failedB6v15007Ev DATA
 0002:0000f300 00000008H .xdata$_ZNSt3__19basic_iosIcNS_11char_traitsIcEEE8setstateB6v15007Ej DATA
 0002:0000f308 00000008H .xdata$_ZNSt3__113basic_ostreamIcNS_11char_traitsIcEEE6sentryD1Ev DATA
 0002:0000f310 00000008H .xdata$_ZNSt3__113basic_ostreamIcNS_11char_traitsIcEEE6sentryC2ERS3_ DATA
 0002:0000f318 00000008H .xdata$_ZNKSt3__19basic_iosIcNS_11char_traitsIcEEE4goodB6v15007Ev DATA
 0002:0000f320 00000008H .xdata$_ZNKSt3__19basic_iosIcNS_11char_traitsIcEEE3tieB6v15007Ev DATA
 0002:0000f328 00000008H .xdata$_ZNKSt3__18ios_base4goodB6v15007Ev DATA
 0002:0000f330 00000008H .xdata$_ZNKSt3__18ios_base5widthB6v15007Ev DATA
 0002:0000f338 00000008H .xdata$_ZNSt3__115basic_streambufIcNS_11char_traitsIcEEE5sputnB6v15007EPKcx DATA
 0002:0000f340 00000008H .xdata$_ZNSt3__112basic_stringIcNS_11char_traitsIcEENS_9allocatorIcEEEC1B6v15007Eyc DATA
 0002:0000f348 00000008H .xdata$_ZNSt3__112basic_stringIcNS_11char_traitsIcEENS_9allocatorIcEEE4dataB6v15007Ev DATA
 0002:0000f350 00000008H .xdata$_ZNSt3__18ios_base5widthB6v15007Ex DATA
 0002:0000f358 00000008H .xdata$_ZNSt3__112basic_stringIcNS_11char_traitsIcEENS_9allocatorIcEEEC2B6v15007Eyc DATA
 0002:0000f360 00000008H .xdata$_ZNSt3__117__compressed_pairINS_12basic_stringIcNS_11char_traitsIcEENS_9allocatorIcEEE5__repES5_EC1B6v15007INS_18__default_init_tagESA_EEOT_OT0_ DATA
 0002:0000f368 00000008H .xdata$_ZNSt3__119__debug_db_insert_cB6v15007INS_12basic_stringIcNS_11char_traitsIcEENS_9allocatorIcEEEEEEvPT_ DATA
 0002:0000f370 00000008H .xdata$_ZNSt3__117__compressed_pairINS_12basic_stringIcNS_11char_traitsIcEENS_9allocatorIcEEE5__repES5_EC2B6v15007INS_18__default_init_tagESA_EEOT_OT0_ DATA
 0002:0000f378 00000008H .xdata$_ZNSt3__122__compressed_pair_elemINS_12basic_stringIcNS_11char_traitsIcEENS_9allocatorIcEEE5__repELi0ELb0EEC2B6v15007ENS_18__default_init_tagE DATA
 0002:0000f380 00000008H .xdata$_ZNSt3__122__compressed_pair_elemINS_9allocatorIcEELi1ELb1EEC2B6v15007ENS_18__default_init_tagE DATA
 0002:0000f388 00000008H .xdata$_ZNSt3__19allocatorIcEC2B6v15007Ev DATA
 0002:0000f390 00000008H .xdata$_ZNSt3__116__non_trivial_ifILb1ENS_9allocatorIcEEEC2B6v15007Ev DATA
 0002:0000f398 00000008H .xdata$_ZNSt3__112__to_addressB6v15007IcEEPT_S2_ DATA
 0002:0000f3a0 00000008H .xdata$_ZNSt3__112basic_stringIcNS_11char_traitsIcEENS_9allocatorIcEEE13__get_pointerB6v15007Ev DATA
 0002:0000f3a8 00000008H .xdata$_ZNKSt3__112basic_stringIcNS_11char_traitsIcEENS_9allocatorIcEEE9__is_longB6v15007Ev DATA
 0002:0000f3b0 00000008H .xdata$_ZNSt3__112basic_stringIcNS_11char_traitsIcEENS_9allocatorIcEEE18__get_long_pointerB6v15007Ev DATA
 0002:0000f3b8 00000008H .xdata$_ZNSt3__112basic_stringIcNS_11char_traitsIcEENS_9allocatorIcEEE19__get_short_pointerB6v15007Ev DATA
 0002:0000f3c0 00000008H .xdata$_ZNKSt3__117__compressed_pairINS_12basic_stringIcNS_11char_traitsIcEENS_9allocatorIcEEE5__repES5_E5firstB6v15007Ev DATA
 0002:0000f3c8 00000008H .xdata$_ZNKSt3__122__compressed_pair_elemINS_12basic_stringIcNS_11char_traitsIcEENS_9allocatorIcEEE5__repELi0ELb0EE5__getB6v15007Ev DATA
 0002:0000f3d0 00000008H .xdata$_ZNSt3__117__compressed_pairINS_12basic_stringIcNS_11char_traitsIcEENS_9allocatorIcEEE5__repES5_E5firstB6v15007Ev DATA
 0002:0000f3d8 00000008H .xdata$_ZNSt3__122__compressed_pair_elemINS_12basic_stringIcNS_11char_traitsIcEENS_9allocatorIcEEE5__repELi0ELb0EE5__getB6v15007Ev DATA
 0002:0000f3e0 00000008H .xdata$_ZNSt3__114pointer_traitsIPcE10pointer_toB6v15007ERc DATA
 0002:0000f3e8 00000020H .xdata$_ZNSt3__119ostreambuf_iteratorIcNS_11char_traitsIcEEEC2B6v15007ERNS_13basic_ostreamIcS2_EE DATA
 0002:0000f408 00000008H .xdata$_ZNKSt3__19basic_iosIcNS_11char_traitsIcEEE5rdbufB6v15007Ev DATA
 0002:0000f410 00000008H .xdata$_ZNKSt3__18ios_base5rdbufB6v15007Ev DATA
 0002:0000f418 00000008H .xdata$_ZNSt3__111char_traitsIcE11eq_int_typeEii DATA
 0002:0000f420 0000001cH .xdata$_ZNKSt3__19basic_iosIcNS_11char_traitsIcEEE5widenB6v15007Ec DATA
 0002:0000f43c 00000008H .xdata$_ZNSt3__19use_facetB6v15007INS_5ctypeIcEEEERKT_RKNS_6localeE DATA
 0002:0000f444 00000008H .xdata$_ZNKSt3__15ctypeIcE5widenB6v15007Ec DATA
 0002:0000f44c 00000008H .xdata$_ZNSt3__18ios_base8setstateB6v15007Ej DATA
 0002:0000f454 00000034H .xdata$_ZNSt3__113basic_ostreamIcNS_11char_traitsIcEEE6sentryD2Ev DATA
 0002:0000f488 00000008H .xdata$_ZNSt3__115basic_streambufIcNS_11char_traitsIcEEE7pubsyncB6v15007Ev DATA
 0002:0000f490 000000b4H .xdata                  DATA
 0002:0000f544 00000020H .xdata$_ZSt9terminatev  DATA
 0002:0000f564 00000028H .xdata$_ZSt11__terminatePFvvE DATA
 0002:0000f58c 00000020H .xdata$_ZSt9terminatev  DATA
 0002:0000f5ac 00000008H .xdata$_ZSt12__unexpectedPFvvE DATA
 0002:0000f5b4 00000008H .xdata$_ZSt10unexpectedv DATA
 0002:0000f5bc 00000028H .xdata$_ZSt11__terminatePFvvE DATA
 0002:0000f5e4 00000024H .xdata$_ZN10__cxxabiv122exception_cleanup_funcE19_Unwind_Reason_CodeP17_Unwind_Exception DATA
 0002:0000f608 00000024H .xdata$__cxa_decrement_exception_refcount DATA
 0002:0000f62c 00000028H .xdata$__cxa_allocate_exception DATA
 0002:0000f654 0000002cH .xdata$__cxa_begin_catch DATA
 0002:0000f680 00000020H .xdata$__cxa_free_exception DATA
 0002:0000f6a0 00000034H .xdata$__cxa_rethrow    DATA
 0002:0000f6d4 00000030H .xdata$__cxa_end_catch  DATA
 0002:0000f704 00000020H .xdata$__cxa_current_primary_exception DATA
 0002:0000f724 00000034H .xdata$__cxa_rethrow_primary_exception DATA
 0002:0000f758 0000002cH .xdata$_ZN10__cxxabiv1L27dependent_exception_cleanupE19_Unwind_Reason_CodeP17_Unwind_Exception DATA
 0002:0000f784 00000020H .xdata$__cxa_uncaught_exception DATA
 0002:0000f7a4 00000020H .xdata$__cxa_uncaught_exceptions DATA
 0002:0000f7c4 00000024H .xdata$_ZN10__cxxabiv122exception_cleanup_funcE19_Unwind_Reason_CodeP17_Unwind_Exception DATA
 0002:0000f7e8 00000024H .xdata$__cxa_decrement_exception_refcount DATA
 0002:0000f80c 00000028H .xdata$__cxa_allocate_exception DATA
 0002:0000f834 0000002cH .xdata$__cxa_begin_catch DATA
 0002:0000f860 00000020H .xdata$__cxa_free_exception DATA
 0002:0000f880 00000008H .xdata$__cxa_allocate_dependent_exception DATA
 0002:0000f888 00000010H .xdata$__cxa_init_exception DATA
 0002:0000f898 00000010H .xdata$__cxa_throw      DATA
 0002:0000f8a8 00000034H .xdata$__cxa_rethrow    DATA
 0002:0000f8dc 00000008H .xdata$_ZN10__cxxabiv1L12failed_throwEPNS_15__cxa_exceptionE DATA
 0002:0000f8e4 00000030H .xdata$__cxa_end_catch  DATA
 0002:0000f914 00000008H .xdata$__cxa_current_exception_type DATA
 0002:0000f91c 00000020H .xdata$__cxa_current_primary_exception DATA
 0002:0000f93c 00000034H .xdata$__cxa_rethrow_primary_exception DATA
 0002:0000f970 0000002cH .xdata$_ZN10__cxxabiv1L27dependent_exception_cleanupE19_Unwind_Reason_CodeP17_Unwind_Exception DATA
 0002:0000f99c 00000020H .xdata$__cxa_uncaught_exception DATA
 0002:0000f9bc 00000020H .xdata$__cxa_uncaught_exceptions DATA
 0002:0000f9dc 00000070H .xdata$__cxa_call_unexpected DATA
 0002:0000fa4c 00000014H .xdata$__gxx_personality_seh0 DATA
 0002:0000fa60 00000010H .xdata$_ZN10__cxxabiv1L21__gxx_personality_impEi14_Unwind_ActionyP17_Unwind_ExceptionP15_Unwind_Context DATA
 0002:0000fa70 00000070H .xdata$__cxa_call_unexpected DATA
 0002:0000fae0 00000010H .xdata$_ZN10__cxxabiv1L18readEncodedPointerEPPKhhy DATA
 0002:0000faf0 00000018H .xdata$_ZN10__cxxabiv1L24exception_spec_can_catchExPKhhPKNS_16__shim_type_infoEPvP17_Unwind_Exceptiony DATA
 0002:0000fb08 00000018H .xdata$_ZN10__cxxabiv1L11scan_eh_tabERNS_12_GLOBAL__N_112scan_resultsE14_Unwind_ActionbP17_Unwind_ExceptionP15_Unwind_Context DATA
 0002:0000fb20 0000001cH .xdata$_ZNKSt16nested_exception14rethrow_nestedEv DATA
 0002:0000fb3c 00000008H .xdata$_ZSt18uncaught_exceptionv DATA
 0002:0000fb44 0000000cH .xdata$_ZNSt13exception_ptraSERKS_ DATA
 0002:0000fb50 00000008H .xdata$_ZNSt16nested_exceptionC2Ev DATA
 0002:0000fb58 00000008H .xdata$_ZSt17current_exceptionv DATA
 0002:0000fb60 00000008H .xdata$_ZNSt16nested_exceptionD0Ev DATA
 0002:0000fb68 0000001cH .xdata$_ZNKSt16nested_exception14rethrow_nestedEv DATA
 0002:0000fb84 00000008H .xdata$_ZSt17rethrow_exceptionSt13exception_ptr DATA
 0002:0000fb8c 00000038H .xdata$_ZNSt3__112basic_stringIcNS_11char_traitsIcEENS_9allocatorIcEEE18__shrink_or_extendB6v15007Ey DATA
 0002:0000fbc4 00000028H .xdata$_ZNKSt3__112basic_stringIcNS_11char_traitsIcEENS_9allocatorIcEEE7compareEPKc DATA
 0002:0000fbec 00000044H .xdata$_ZNSt3__112basic_stringIwNS_11char_traitsIwEENS_9allocatorIwEEE18__shrink_or_extendB6v15007Ey DATA
 0002:0000fc30 00000028H .xdata$_ZNKSt3__112basic_stringIwNS_11char_traitsIwEENS_9allocatorIwEEE7compareEPKw DATA
 0002:0000fc58 00000020H .xdata$_ZNSt3__120__throw_length_errorB6v15007EPKc DATA
 0002:0000fc78 00000020H .xdata$_ZNSt3__120__throw_out_of_rangeB6v15007EPKc DATA
 0002:0000fc98 00000024H .xdata$_ZNSt3__14stoiERKNS_12basic_stringIcNS_11char_traitsIcEENS_9allocatorIcEEEEPyi DATA
 0002:0000fcbc 00000024H .xdata$_ZNSt3__14stolERKNS_12basic_stringIcNS_11char_traitsIcEENS_9allocatorIcEEEEPyi DATA
 0002:0000fce0 00000024H .xdata$_ZNSt3__15stoulERKNS_12basic_stringIcNS_11char_traitsIcEENS_9allocatorIcEEEEPyi DATA
 0002:0000fd04 00000024H .xdata$_ZNSt3__15stollERKNS_12basic_stringIcNS_11char_traitsIcEENS_9allocatorIcEEEEPyi DATA
 0002:0000fd28 00000024H .xdata$_ZNSt3__16stoullERKNS_12basic_stringIcNS_11char_traitsIcEENS_9allocatorIcEEEEPyi DATA
 0002:0000fd4c 00000024H .xdata$_ZNSt3__14stofERKNS_12basic_stringIcNS_11char_traitsIcEENS_9allocatorIcEEEEPy DATA
 0002:0000fd70 00000024H .xdata$_ZNSt3__14stodERKNS_12basic_stringIcNS_11char_traitsIcEENS_9allocatorIcEEEEPy DATA
 0002:0000fd94 00000024H .xdata$_ZNSt3__15stoldERKNS_12basic_stringIcNS_11char_traitsIcEENS_9allocatorIcEEEEPy DATA
 0002:0000fdb8 00000024H .xdata$_ZNSt3__14stoiERKNS_12basic_stringIwNS_11char_traitsIwEENS_9allocatorIwEEEEPyi DATA
 0002:0000fddc 00000024H .xdata$_ZNSt3__14stolERKNS_12basic_stringIwNS_11char_traitsIwEENS_9allocatorIwEEEEPyi DATA
 0002:0000fe00 00000024H .xdata$_ZNSt3__15stoulERKNS_12basic_stringIwNS_11char_traitsIwEENS_9allocatorIwEEEEPyi DATA
 0002:0000fe24 00000024H .xdata$_ZNSt3__15stollERKNS_12basic_stringIwNS_11char_traitsIwEENS_9allocatorIwEEEEPyi DATA
 0002:0000fe48 00000024H .xdata$_ZNSt3__16stoullERKNS_12basic_stringIwNS_11char_traitsIwEENS_9allocatorIwEEEEPyi DATA
 0002:0000fe6c 00000024H .xdata$_ZNSt3__14stofERKNS_12basic_stringIwNS_11char_traitsIwEENS_9allocatorIwEEEEPy DATA
 0002:0000fe90 00000024H .xdata$_ZNSt3__14stodERKNS_12basic_stringIwNS_11char_traitsIwEENS_9allocatorIwEEEEPy DATA
 0002:0000feb4 00000024H .xdata$_ZNSt3__15stoldERKNS_12basic_stringIwNS_11char_traitsIwEENS_9allocatorIwEEEEPy DATA
 0002:0000fed8 00000034H .xdata$_ZNSt3__19to_stringEf DATA
 0002:0000ff0c 00000034H .xdata$_ZNSt3__19to_stringEd DATA
 0002:0000ff40 00000034H .xdata$_ZNSt3__19to_stringEe DATA
 0002:0000ff74 00000038H .xdata$_ZNSt3__110to_wstringEf DATA
 0002:0000ffac 00000038H .xdata$_ZNSt3__110to_wstringEd DATA
 0002:0000ffe4 00000038H .xdata$_ZNSt3__110to_wstringEe DATA
 0002:0001001c 00000030H .xdata$_ZNSt3__112_GLOBAL__N_130throw_from_string_out_of_rangeERKNS_12basic_stringIcNS_11char_traitsIcEENS_9allocatorIcEEEE DATA
 0002:0001004c 00000030H .xdata$_ZNSt3__112_GLOBAL__N_129throw_from_string_invalid_argERKNS_12basic_stringIcNS_11char_traitsIcEENS_9allocatorIcEEEE DATA
 0002:0001007c 00000018H .xdata$_ZNSt3__112basic_stringIcNS_11char_traitsIcEENS_9allocatorIcEEE7replaceEyyPKcy DATA
 0002:00010094 00000008H .xdata$_ZNKSt3__112basic_stringIcNS_11char_traitsIcEENS_9allocatorIcEEE20__throw_out_of_rangeB6v15007Ev DATA
 0002:0001009c 00000018H .xdata$_ZNSt3__112basic_stringIcNS_11char_traitsIcEENS_9allocatorIcEEE21__grow_by_and_replaceEyyyyyyPKc DATA
 0002:000100b4 0000000cH .xdata$_ZNKSt3__112basic_stringIcNS_11char_traitsIcEENS_9allocatorIcEEE5rfindEPKcyy DATA
 0002:000100c0 00000010H .xdata$_ZNSt3__112basic_stringIcNS_11char_traitsIcEENS_9allocatorIcEEE6__initEPKcyy DATA
 0002:000100d0 00000008H .xdata$_ZNKSt3__112basic_stringIcNS_11char_traitsIcEENS_9allocatorIcEEE20__throw_length_errorB6v15007Ev DATA
 0002:000100d8 00000010H .xdata$_ZNSt3__112basic_stringIcNS_11char_traitsIcEENS_9allocatorIcEEEC2ERKS5_ DATA
 0002:000100e8 00000010H .xdata$_ZNSt3__112basic_stringIcNS_11char_traitsIcEENS_9allocatorIcEEEC1ERKS5_ DATA
 0002:000100f8 00000010H .xdata$_ZNSt3__112basic_stringIcNS_11char_traitsIcEENS_9allocatorIcEEE7replaceEyyPKc DATA
 0002:00010108 00000010H .xdata$_ZNSt3__112basic_stringIcNS_11char_traitsIcEENS_9allocatorIcEEEC2ERKS5_RKS4_ DATA
 0002:00010118 00000010H .xdata$_ZNSt3__112basic_stringIcNS_11char_traitsIcEENS_9allocatorIcEEEC1ERKS5_RKS4_ DATA
 0002:00010128 00000010H .xdata$_ZNKSt3__112basic_stringIcNS_11char_traitsIcEENS_9allocatorIcEEE16find_last_not_ofEPKcyy DATA
 0002:00010138 00000014H .xdata$_ZNKSt3__112basic_stringIcNS_11char_traitsIcEENS_9allocatorIcEEE17find_first_not_ofEPKcyy DATA
 0002:0001014c 00000018H .xdata$_ZNSt3__112basic_stringIcNS_11char_traitsIcEENS_9allocatorIcEEE6insertEyyc DATA
 0002:00010164 00000018H .xdata$_ZNSt3__112basic_stringIcNS_11char_traitsIcEENS_9allocatorIcEEE9__grow_byEyyyyyy DATA
 0002:0001017c 00000010H .xdata$_ZNSt3__112basic_stringIcNS_11char_traitsIcEENS_9allocatorIcEEE6__initEPKcy DATA
 0002:0001018c 00000008H .xdata$_ZNKSt3__112basic_stringIcNS_11char_traitsIcEENS_9allocatorIcEEE2atEy DATA
 0002:00010194 00000018H .xdata$_ZNSt3__112basic_stringIcNS_11char_traitsIcEENS_9allocatorIcEEE6insertEyPKcy DATA
 0002:000101ac 00000018H .xdata$_ZNSt3__112basic_stringIcNS_11char_traitsIcEENS_9allocatorIcEEE7replaceEyyyc DATA
 0002:000101c4 00000014H .xdata$_ZNSt3__112basic_stringIcNS_11char_traitsIcEENS_9allocatorIcEEE17__assign_externalEPKcy DATA
 0002:000101d8 00000008H .xdata$_ZNSt3__112basic_stringIcNS_11char_traitsIcEENS_9allocatorIcEEE7reserveEy DATA
 0002:000101e0 00000038H .xdata$_ZNSt3__112basic_stringIcNS_11char_traitsIcEENS_9allocatorIcEEE18__shrink_or_extendB6v15007Ey DATA
 0002:00010218 00000018H .xdata$_ZNSt3__112basic_stringIcNS_11char_traitsIcEENS_9allocatorIcEEE6appendEPKcy DATA
 0002:00010230 00000008H .xdata$_ZNSt3__112basic_stringIcNS_11char_traitsIcEENS_9allocatorIcEEE6assignERKS5_yy DATA
 0002:00010238 00000008H .xdata$_ZNKSt3__112basic_stringIcNS_11char_traitsIcEENS_9allocatorIcEEE4copyEPcyy DATA
 0002:00010240 00000010H .xdata$_ZNSt3__112basic_stringIcNS_11char_traitsIcEENS_9allocatorIcEEEC2ERKS5_yyRKS4_ DATA
 0002:00010250 00000010H .xdata$_ZNSt3__112basic_stringIcNS_11char_traitsIcEENS_9allocatorIcEEEC1ERKS5_yyRKS4_ DATA
 0002:00010260 0000000cH .xdata$_ZNKSt3__112basic_stringIcNS_11char_traitsIcEENS_9allocatorIcEEE4findEcy DATA
 0002:0001026c 00000010H .xdata$_ZNSt3__112basic_stringIcNS_11char_traitsIcEENS_9allocatorIcEEE6__initEyc DATA
 0002:0001027c 0000000cH .xdata$_ZNSt3__112basic_stringIcNS_11char_traitsIcEENS_9allocatorIcEEE6insertEyPKc DATA
 0002:00010288 00000010H .xdata$_ZNKSt3__112basic_stringIcNS_11char_traitsIcEENS_9allocatorIcEEE12find_last_ofEPKcyy DATA
 0002:00010298 00000014H .xdata$_ZNSt3__112basic_stringIcNS_11char_traitsIcEENS_9allocatorIcEEE9push_backEc DATA
 0002:000102ac 00000018H .xdata$_ZNSt3__112basic_stringIcNS_11char_traitsIcEENS_9allocatorIcEEE6appendEyc DATA
 0002:000102c4 00000014H .xdata$_ZNSt3__112basic_stringIcNS_11char_traitsIcEENS_9allocatorIcEEE6assignEyc DATA
 0002:000102d8 00000010H .xdata$_ZNSt3__112basic_stringIcNS_11char_traitsIcEENS_9allocatorIcEEE5eraseEyy DATA
 0002:000102e8 00000008H .xdata$_ZNSt3__112basic_stringIcNS_11char_traitsIcEENS_9allocatorIcEEE6appendERKS5_yy DATA
 0002:000102f0 00000028H .xdata$_ZNKSt3__112basic_stringIcNS_11char_traitsIcEENS_9allocatorIcEEE7compareEPKc DATA
 0002:00010318 0000000cH .xdata$_ZNKSt3__112basic_stringIcNS_11char_traitsIcEENS_9allocatorIcEEE7compareEyyPKcy DATA
 0002:00010324 00000010H .xdata$_ZNKSt3__112basic_stringIcNS_11char_traitsIcEENS_9allocatorIcEEE7compareEyyPKc DATA
 0002:00010334 00000008H .xdata$_ZNSt3__112basic_stringIcNS_11char_traitsIcEENS_9allocatorIcEEE2atEy DATA
 0002:0001033c 0000000cH .xdata$_ZNSt3__112basic_stringIcNS_11char_traitsIcEENS_9allocatorIcEEE6assignEPKc DATA
 0002:00010348 00000014H .xdata$_ZNKSt3__112basic_stringIcNS_11char_traitsIcEENS_9allocatorIcEEE4findEPKcyy DATA
 0002:0001035c 0000000cH .xdata$_ZNKSt3__112basic_stringIcNS_11char_traitsIcEENS_9allocatorIcEEE7compareEyyRKS5_yy DATA
 0002:00010368 00000014H .xdata$_ZNSt3__112basic_stringIcNS_11char_traitsIcEENS_9allocatorIcEEEaSERKS5_ DATA
 0002:0001037c 0000000cH .xdata$_ZNSt3__112basic_stringIcNS_11char_traitsIcEENS_9allocatorIcEEE6appendEPKc DATA
 0002:00010388 00000008H .xdata$_ZNSt3__112basic_stringIcNS_11char_traitsIcEENS_9allocatorIcEEE7replaceEyyRKS5_yy DATA
 0002:00010390 00000018H .xdata$_ZNSt3__112basic_stringIcNS_11char_traitsIcEENS_9allocatorIcEEE6insertENS_11__wrap_iterIPKcEEc DATA
 0002:000103a8 00000008H .xdata$_ZNSt3__112basic_stringIcNS_11char_traitsIcEENS_9allocatorIcEEE6insertEyRKS5_yy DATA
 0002:000103b0 00000018H .xdata$_ZNSt3__112basic_stringIwNS_11char_traitsIwEENS_9allocatorIwEEE7replaceEyyPKwy DATA
 0002:000103c8 00000008H .xdata$_ZNKSt3__112basic_stringIwNS_11char_traitsIwEENS_9allocatorIwEEE20__throw_out_of_rangeB6v15007Ev DATA
 0002:000103d0 00000018H .xdata$_ZNSt3__112basic_stringIwNS_11char_traitsIwEENS_9allocatorIwEEE21__grow_by_and_replaceEyyyyyyPKw DATA
 0002:000103e8 0000000cH .xdata$_ZNKSt3__112basic_stringIwNS_11char_traitsIwEENS_9allocatorIwEEE5rfindEPKwyy DATA
 0002:000103f4 00000010H .xdata$_ZNSt3__112basic_stringIwNS_11char_traitsIwEENS_9allocatorIwEEE6__initEPKwyy DATA
 0002:00010404 00000008H .xdata$_ZNKSt3__112basic_stringIwNS_11char_traitsIwEENS_9allocatorIwEEE20__throw_length_errorB6v15007Ev DATA
 0002:0001040c 00000010H .xdata$_ZNSt3__112basic_stringIwNS_11char_traitsIwEENS_9allocatorIwEEEC2ERKS5_ DATA
 0002:0001041c 00000010H .xdata$_ZNSt3__112basic_stringIwNS_11char_traitsIwEENS_9allocatorIwEEEC1ERKS5_ DATA
 0002:0001042c 00000010H .xdata$_ZNSt3__112basic_stringIwNS_11char_traitsIwEENS_9allocatorIwEEE7replaceEyyPKw DATA
 0002:0001043c 00000010H .xdata$_ZNSt3__112basic_stringIwNS_11char_traitsIwEENS_9allocatorIwEEEC2ERKS5_RKS4_ DATA
 0002:0001044c 00000010H .xdata$_ZNSt3__112basic_stringIwNS_11char_traitsIwEENS_9allocatorIwEEEC1ERKS5_RKS4_ DATA
 0002:0001045c 00000008H .xdata$_ZNKSt3__112basic_stringIwNS_11char_traitsIwEENS_9allocatorIwEEE17find_first_not_ofEPKwyy DATA
 0002:00010464 00000018H .xdata$_ZNSt3__112basic_stringIwNS_11char_traitsIwEENS_9allocatorIwEEE6insertEyyw DATA
 0002:0001047c 00000018H .xdata$_ZNSt3__112basic_stringIwNS_11char_traitsIwEENS_9allocatorIwEEE9__grow_byEyyyyyy DATA
 0002:00010494 00000010H .xdata$_ZNSt3__112basic_stringIwNS_11char_traitsIwEENS_9allocatorIwEEE6__initEPKwy DATA
 0002:000104a4 00000008H .xdata$_ZNKSt3__112basic_stringIwNS_11char_traitsIwEENS_9allocatorIwEEE2atEy DATA
 0002:000104ac 00000014H .xdata$_ZNSt3__112basic_stringIwNS_11char_traitsIwEENS_9allocatorIwEEE6insertEyPKwy DATA
 0002:000104c0 00000018H .xdata$_ZNSt3__112basic_stringIwNS_11char_traitsIwEENS_9allocatorIwEEE7replaceEyyyw DATA
 0002:000104d8 0000000cH .xdata$_ZNSt3__112basic_stringIwNS_11char_traitsIwEENS_9allocatorIwEEE6assignEPKwy DATA
 0002:000104e4 00000008H .xdata$_ZNSt3__112basic_stringIwNS_11char_traitsIwEENS_9allocatorIwEEE7reserveEy DATA
 0002:000104ec 00000044H .xdata$_ZNSt3__112basic_stringIwNS_11char_traitsIwEENS_9allocatorIwEEE18__shrink_or_extendB6v15007Ey DATA
 0002:00010530 00000010H .xdata$_ZNSt3__112basic_stringIwNS_11char_traitsIwEENS_9allocatorIwEEE6appendEPKwy DATA
 0002:00010540 0000000cH .xdata$_ZNSt3__112basic_stringIwNS_11char_traitsIwEENS_9allocatorIwEEE6assignERKS5_yy DATA
 0002:0001054c 00000008H .xdata$_ZNKSt3__112basic_stringIwNS_11char_traitsIwEENS_9allocatorIwEEE4copyEPwyy DATA
 0002:00010554 00000014H .xdata$_ZNSt3__112basic_stringIwNS_11char_traitsIwEENS_9allocatorIwEEEC2ERKS5_yyRKS4_ DATA
 0002:00010568 00000014H .xdata$_ZNSt3__112basic_stringIwNS_11char_traitsIwEENS_9allocatorIwEEEC1ERKS5_yyRKS4_ DATA
 0002:0001057c 00000010H .xdata$_ZNSt3__112basic_stringIwNS_11char_traitsIwEENS_9allocatorIwEEE6__initEyw DATA
 0002:0001058c 0000000cH .xdata$_ZNSt3__112basic_stringIwNS_11char_traitsIwEENS_9allocatorIwEEE6insertEyPKw DATA
 0002:00010598 00000014H .xdata$_ZNSt3__112basic_stringIwNS_11char_traitsIwEENS_9allocatorIwEEE9push_backEw DATA
 0002:000105ac 00000018H .xdata$_ZNSt3__112basic_stringIwNS_11char_traitsIwEENS_9allocatorIwEEE6appendEyw DATA
 0002:000105c4 00000018H .xdata$_ZNSt3__112basic_stringIwNS_11char_traitsIwEENS_9allocatorIwEEE6assignEyw DATA
 0002:000105dc 00000010H .xdata$_ZNSt3__112basic_stringIwNS_11char_traitsIwEENS_9allocatorIwEEE5eraseEyy DATA
 0002:000105ec 00000010H .xdata$_ZNSt3__112basic_stringIwNS_11char_traitsIwEENS_9allocatorIwEEE6appendERKS5_yy DATA
 0002:000105fc 00000028H .xdata$_ZNKSt3__112basic_stringIwNS_11char_traitsIwEENS_9allocatorIwEEE7compareEPKw DATA
 0002:00010624 00000008H .xdata$_ZNKSt3__112basic_stringIwNS_11char_traitsIwEENS_9allocatorIwEEE7compareEyyPKwy DATA
 0002:0001062c 00000010H .xdata$_ZNKSt3__112basic_stringIwNS_11char_traitsIwEENS_9allocatorIwEEE7compareEyyPKw DATA
 0002:0001063c 00000008H .xdata$_ZNSt3__112basic_stringIwNS_11char_traitsIwEENS_9allocatorIwEEE2atEy DATA
 0002:00010644 00000010H .xdata$_ZNSt3__112basic_stringIwNS_11char_traitsIwEENS_9allocatorIwEEE6assignEPKw DATA
 0002:00010654 0000000cH .xdata$_ZNKSt3__112basic_stringIwNS_11char_traitsIwEENS_9allocatorIwEEE4findEPKwyy DATA
 0002:00010660 00000008H .xdata$_ZNKSt3__112basic_stringIwNS_11char_traitsIwEENS_9allocatorIwEEE7compareEyyRKS5_yy DATA
 0002:00010668 00000014H .xdata$_ZNSt3__112basic_stringIwNS_11char_traitsIwEENS_9allocatorIwEEEaSERKS5_ DATA
 0002:0001067c 00000010H .xdata$_ZNSt3__112basic_stringIwNS_11char_traitsIwEENS_9allocatorIwEEE6appendEPKw DATA
 0002:0001068c 00000008H .xdata$_ZNSt3__112basic_stringIwNS_11char_traitsIwEENS_9allocatorIwEEE7replaceEyyRKS5_yy DATA
 0002:00010694 00000018H .xdata$_ZNSt3__112basic_stringIwNS_11char_traitsIwEENS_9allocatorIwEEE6insertENS_11__wrap_iterIPKwEEw DATA
 0002:000106ac 00000008H .xdata$_ZNSt3__112basic_stringIwNS_11char_traitsIwEENS_9allocatorIwEEE6insertEyRKS5_yy DATA
 0002:000106b4 00000014H .xdata$_ZNSt3__1plIcNS_11char_traitsIcEENS_9allocatorIcEEEENS_12basic_stringIT_T0_T1_EEPKS6_RKS9_ DATA
 0002:000106c8 00000008H .xdata$_ZNKSt3__121__basic_string_commonILb1EE20__throw_length_errorEv DATA
 0002:000106d0 00000020H .xdata$_ZNSt3__120__throw_length_errorB6v15007EPKc DATA
 0002:000106f0 00000008H .xdata$_ZNKSt3__121__basic_string_commonILb1EE20__throw_out_of_rangeEv DATA
 0002:000106f8 00000020H .xdata$_ZNSt3__120__throw_out_of_rangeB6v15007EPKc DATA
 0002:00010718 00000024H .xdata$_ZNSt3__14stoiERKNS_12basic_stringIcNS_11char_traitsIcEENS_9allocatorIcEEEEPyi DATA
 0002:0001073c 00000024H .xdata$_ZNSt3__14stolERKNS_12basic_stringIcNS_11char_traitsIcEENS_9allocatorIcEEEEPyi DATA
 0002:00010760 00000024H .xdata$_ZNSt3__15stoulERKNS_12basic_stringIcNS_11char_traitsIcEENS_9allocatorIcEEEEPyi DATA
 0002:00010784 00000024H .xdata$_ZNSt3__15stollERKNS_12basic_stringIcNS_11char_traitsIcEENS_9allocatorIcEEEEPyi DATA
 0002:000107a8 00000024H .xdata$_ZNSt3__16stoullERKNS_12basic_stringIcNS_11char_traitsIcEENS_9allocatorIcEEEEPyi DATA
 0002:000107cc 00000024H .xdata$_ZNSt3__14stofERKNS_12basic_stringIcNS_11char_traitsIcEENS_9allocatorIcEEEEPy DATA
 0002:000107f0 00000024H .xdata$_ZNSt3__14stodERKNS_12basic_stringIcNS_11char_traitsIcEENS_9allocatorIcEEEEPy DATA
 0002:00010814 00000024H .xdata$_ZNSt3__15stoldERKNS_12basic_stringIcNS_11char_traitsIcEENS_9allocatorIcEEEEPy DATA
 0002:00010838 00000024H .xdata$_ZNSt3__14stoiERKNS_12basic_stringIwNS_11char_traitsIwEENS_9allocatorIwEEEEPyi DATA
 0002:0001085c 00000024H .xdata$_ZNSt3__14stolERKNS_12basic_stringIwNS_11char_traitsIwEENS_9allocatorIwEEEEPyi DATA
 0002:00010880 00000024H .xdata$_ZNSt3__15stoulERKNS_12basic_stringIwNS_11char_traitsIwEENS_9allocatorIwEEEEPyi DATA
 0002:000108a4 00000024H .xdata$_ZNSt3__15stollERKNS_12basic_stringIwNS_11char_traitsIwEENS_9allocatorIwEEEEPyi DATA
 0002:000108c8 00000024H .xdata$_ZNSt3__16stoullERKNS_12basic_stringIwNS_11char_traitsIwEENS_9allocatorIwEEEEPyi DATA
 0002:000108ec 00000024H .xdata$_ZNSt3__14stofERKNS_12basic_stringIwNS_11char_traitsIwEENS_9allocatorIwEEEEPy DATA
 0002:00010910 00000024H .xdata$_ZNSt3__14stodERKNS_12basic_stringIwNS_11char_traitsIwEENS_9allocatorIwEEEEPy DATA
 0002:00010934 00000024H .xdata$_ZNSt3__15stoldERKNS_12basic_stringIwNS_11char_traitsIwEENS_9allocatorIwEEEEPy DATA
 0002:00010958 00000014H .xdata$_ZNSt3__19to_stringEi DATA
 0002:0001096c 00000014H .xdata$_ZNSt3__19to_stringEl DATA
 0002:00010980 00000014H .xdata$_ZNSt3__19to_stringEx DATA
 0002:00010994 00000014H .xdata$_ZNSt3__19to_stringEj DATA
 0002:000109a8 00000014H .xdata$_ZNSt3__19to_stringEm DATA
 0002:000109bc 00000014H .xdata$_ZNSt3__19to_stringEy DATA
 0002:000109d0 00000010H .xdata$_ZNSt3__110to_wstringEi DATA
 0002:000109e0 00000010H .xdata$_ZNSt3__110to_wstringEl DATA
 0002:000109f0 00000010H .xdata$_ZNSt3__110to_wstringEx DATA
 0002:00010a00 00000010H .xdata$_ZNSt3__110to_wstringEj DATA
 0002:00010a10 00000010H .xdata$_ZNSt3__110to_wstringEm DATA
 0002:00010a20 00000010H .xdata$_ZNSt3__110to_wstringEy DATA
 0002:00010a30 00000034H .xdata$_ZNSt3__19to_stringEf DATA
 0002:00010a64 00000034H .xdata$_ZNSt3__19to_stringEd DATA
 0002:00010a98 00000034H .xdata$_ZNSt3__19to_stringEe DATA
 0002:00010acc 00000038H .xdata$_ZNSt3__110to_wstringEf DATA
 0002:00010b04 00000038H .xdata$_ZNSt3__110to_wstringEd DATA
 0002:00010b3c 00000038H .xdata$_ZNSt3__110to_wstringEe DATA
 0002:00010b74 00000008H .xdata$_ZSt28__throw_bad_array_new_lengthB6v15007v DATA
 0002:00010b7c 00000008H .xdata$_ZNSt12length_errorC2B6v15007EPKc DATA
 0002:00010b84 00000008H .xdata$_ZNSt12out_of_rangeC2B6v15007EPKc DATA
 0002:00010b8c 00000030H .xdata$_ZNSt3__112_GLOBAL__N_130throw_from_string_out_of_rangeERKNS_12basic_stringIcNS_11char_traitsIcEENS_9allocatorIcEEEE DATA
 0002:00010bbc 00000030H .xdata$_ZNSt3__112_GLOBAL__N_129throw_from_string_invalid_argERKNS_12basic_stringIcNS_11char_traitsIcEENS_9allocatorIcEEEE DATA
 0002:00010bec 00000008H .xdata$_ZL8swprintfPwyPKwz DATA
 0002:00010bf4 00000020H .xdata$_ZNSt3__18ios_base5imbueERKNS_6localeE DATA
 0002:00010c14 00000024H .xdata$_ZNSt3__18ios_baseD2Ev DATA
 0002:00010c38 00000024H .xdata$_ZNSt3__115__throw_failureB6v15007EPKc DATA
 0002:00010c5c 0000003cH .xdata$_ZNSt3__18ios_base7copyfmtERKS0_ DATA
 0002:00010c98 0000000cH .xdata$_ZNKSt3__119__iostream_category7messageEi DATA
 0002:00010ca4 00000008H .xdata$_ZNSt3__117iostream_categoryEv DATA
 0002:00010cac 00000008H .xdata$_ZNSt3__18ios_base7failureC2ERKNS_12basic_stringIcNS_11char_traitsIcEENS_9allocatorIcEEEERKNS_10error_codeE DATA
 0002:00010cb4 00000008H .xdata$_ZNSt3__18ios_base7failureC2EPKcRKNS_10error_codeE DATA
 0002:00010cbc 00000008H .xdata$_ZNSt3__18ios_base7failureD0Ev DATA
 0002:00010cc4 0000000cH .xdata$_ZNSt3__18ios_base16__call_callbacksENS0_5eventE DATA
 0002:00010cd0 00000020H .xdata$_ZNSt3__18ios_base5imbueERKNS_6localeE DATA
 0002:00010cf0 00000008H .xdata$_ZNKSt3__18ios_base6getlocEv DATA
 0002:00010cf8 00000014H .xdata$_ZNSt3__18ios_base5iwordEi DATA
 0002:00010d0c 00000014H .xdata$_ZNSt3__18ios_base5pwordEi DATA
 0002:00010d20 00000010H .xdata$_ZNSt3__18ios_base17register_callbackEPFvNS0_5eventERS0_iEi DATA
 0002:00010d30 00000024H .xdata$_ZNSt3__18ios_baseD2Ev DATA
 0002:00010d54 00000008H .xdata$_ZNSt3__18ios_baseD0Ev DATA
 0002:00010d5c 00000008H .xdata$_ZNSt3__18ios_base5clearEj DATA
 0002:00010d64 00000024H .xdata$_ZNSt3__115__throw_failureB6v15007EPKc DATA
 0002:00010d88 0000003cH .xdata$_ZNSt3__18ios_base7copyfmtERKS0_ DATA
 0002:00010dc4 0000000cH .xdata$_ZNSt3__18ios_base4moveERS0_ DATA
 0002:00010dd0 00000010H .xdata$_ZNSt3__18ios_base4swapERS0_ DATA
 0002:00010de0 00000008H .xdata$_ZNSt3__18ios_base33__set_badbit_and_consider_rethrowEv DATA
 0002:00010de8 00000008H .xdata$_ZNSt3__18ios_base34__set_failbit_and_consider_rethrowEv DATA
 0002:00010df0 00000008H .xdata$_ZNSt3__119__iostream_categoryD0Ev DATA
 0002:00010df8 0000001cH .xdata$_ZNSt3__113basic_istreamIcNS_11char_traitsIcEEEC1EPNS_15basic_streambufIcS2_EE DATA
 0002:00010e14 00000028H .xdata$_ZNSt3__113basic_istreamIcNS_11char_traitsIcEEE6sentryC2ERS3_b DATA
 0002:00010e3c 00000044H .xdata$_ZNSt3__113basic_ostreamIcNS_11char_traitsIcEEE5flushEv DATA
 0002:00010e80 00000040H .xdata$_ZNSt3__113basic_istreamIcNS_11char_traitsIcEEErsEPNS_15basic_streambufIcS2_EE DATA
 0002:00010ec0 00000044H .xdata$_ZNSt3__118__input_arithmeticB6v15007IbcNS_11char_traitsIcEEEERNS_13basic_istreamIT0_T1_EES7_RT_ DATA
 0002:00010f04 00000044H .xdata$_ZNSt3__138__input_arithmetic_with_numeric_limitsB6v15007IscNS_11char_traitsIcEEEERNS_13basic_istreamIT0_T1_EES7_RT_ DATA
 0002:00010f48 00000044H .xdata$_ZNSt3__118__input_arithmeticB6v15007ItcNS_11char_traitsIcEEEERNS_13basic_istreamIT0_T1_EES7_RT_ DATA
 0002:00010f8c 00000044H .xdata$_ZNSt3__138__input_arithmetic_with_numeric_limitsB6v15007IicNS_11char_traitsIcEEEERNS_13basic_istreamIT0_T1_EES7_RT_ DATA
 0002:00010fd0 00000044H .xdata$_ZNSt3__118__input_arithmeticB6v15007IjcNS_11char_traitsIcEEEERNS_13basic_istreamIT0_T1_EES7_RT_ DATA
 0002:00011014 00000044H .xdata$_ZNSt3__118__input_arithmeticB6v15007IlcNS_11char_traitsIcEEEERNS_13basic_istreamIT0_T1_EES7_RT_ DATA
 0002:00011058 00000044H .xdata$_ZNSt3__118__input_arithmeticB6v15007ImcNS_11char_traitsIcEEEERNS_13basic_istreamIT0_T1_EES7_RT_ DATA
 0002:0001109c 00000044H .xdata$_ZNSt3__118__input_arithmeticB6v15007IxcNS_11char_traitsIcEEEERNS_13basic_istreamIT0_T1_EES7_RT_ DATA
 0002:000110e0 00000044H .xdata$_ZNSt3__118__input_arithmeticB6v15007IycNS_11char_traitsIcEEEERNS_13basic_istreamIT0_T1_EES7_RT_ DATA
 0002:00011124 00000044H .xdata$_ZNSt3__118__input_arithmeticB6v15007IfcNS_11char_traitsIcEEEERNS_13basic_istreamIT0_T1_EES7_RT_ DATA
 0002:00011168 00000044H .xdata$_ZNSt3__118__input_arithmeticB6v15007IdcNS_11char_traitsIcEEEERNS_13basic_istreamIT0_T1_EES7_RT_ DATA
 0002:000111ac 00000044H .xdata$_ZNSt3__118__input_arithmeticB6v15007IecNS_11char_traitsIcEEEERNS_13basic_istreamIT0_T1_EES7_RT_ DATA
 0002:000111f0 00000044H .xdata$_ZNSt3__118__input_arithmeticB6v15007IPvcNS_11char_traitsIcEEEERNS_13basic_istreamIT0_T1_EES8_RT_ DATA
 0002:00011234 00000040H .xdata$_ZNSt3__113basic_istreamIcNS_11char_traitsIcEEE3getEv DATA
 0002:00011274 00000024H .xdata$_ZNSt3__113basic_istreamIcNS_11char_traitsIcEEE3getEPcx DATA
 0002:00011298 00000050H .xdata$_ZNSt3__113basic_istreamIcNS_11char_traitsIcEEE3getEPcxc DATA
 0002:000112e8 00000020H .xdata$_ZNSt3__113basic_istreamIcNS_11char_traitsIcEEE3getERNS_15basic_streambufIcS2_EE DATA
 0002:00011308 0000003cH .xdata$_ZNSt3__113basic_istreamIcNS_11char_traitsIcEEE3getERNS_15basic_streambufIcS2_EEc DATA
 0002:00011344 00000024H .xdata$_ZNSt3__113basic_istreamIcNS_11char_traitsIcEEE7getlineEPcx DATA
 0002:00011368 00000054H .xdata$_ZNSt3__113basic_istreamIcNS_11char_traitsIcEEE7getlineEPcxc DATA
 0002:000113bc 0000004cH .xdata$_ZNSt3__113basic_istreamIcNS_11char_traitsIcEEE6ignoreExi DATA
 0002:00011408 00000040H .xdata$_ZNSt3__113basic_istreamIcNS_11char_traitsIcEEE4peekEv DATA
 0002:00011448 00000044H .xdata$_ZNSt3__113basic_istreamIcNS_11char_traitsIcEEE4readEPcx DATA
 0002:0001148c 00000044H .xdata$_ZNSt3__113basic_istreamIcNS_11char_traitsIcEEE8readsomeEPcx DATA
 0002:000114d0 00000040H .xdata$_ZNSt3__113basic_istreamIcNS_11char_traitsIcEEE7putbackEc DATA
 0002:00011510 00000040H .xdata$_ZNSt3__113basic_istreamIcNS_11char_traitsIcEEE5ungetEv DATA
 0002:00011550 0000003cH .xdata$_ZNSt3__113basic_istreamIcNS_11char_traitsIcEEE4syncEv DATA
 0002:0001158c 00000040H .xdata$_ZNSt3__113basic_istreamIcNS_11char_traitsIcEEE5tellgEv DATA
 0002:000115cc 00000040H .xdata$_ZNSt3__113basic_istreamIcNS_11char_traitsIcEEE5seekgENS_4fposI9_MbstatetEE DATA
 0002:0001160c 00000044H .xdata$_ZNSt3__113basic_istreamIcNS_11char_traitsIcEEE5seekgExNS_8ios_base7seekdirE DATA
 0002:00011650 0000001cH .xdata$_ZNSt3__113basic_ostreamIcNS_11char_traitsIcEEEC1EPNS_15basic_streambufIcS2_EE DATA
 0002:0001166c 00000028H .xdata$_ZNSt3__113basic_ostreamIcNS_11char_traitsIcEEE6sentryD2Ev DATA
 0002:00011694 0000006cH .xdata$_ZNSt3__113basic_ostreamIcNS_11char_traitsIcEEElsEb DATA
 0002:00011700 0000006cH .xdata$_ZNSt3__113basic_ostreamIcNS_11char_traitsIcEEElsEs DATA
 0002:0001176c 0000006cH .xdata$_ZNSt3__113basic_ostreamIcNS_11char_traitsIcEEElsEt DATA
 0002:000117d8 0000006cH .xdata$_ZNSt3__113basic_ostreamIcNS_11char_traitsIcEEElsEi DATA
 0002:00011844 0000006cH .xdata$_ZNSt3__113basic_ostreamIcNS_11char_traitsIcEEElsEj DATA
 0002:000118b0 0000006cH .xdata$_ZNSt3__113basic_ostreamIcNS_11char_traitsIcEEElsEl DATA
 0002:0001191c 0000006cH .xdata$_ZNSt3__113basic_ostreamIcNS_11char_traitsIcEEElsEm DATA
 0002:00011988 0000006cH .xdata$_ZNSt3__113basic_ostreamIcNS_11char_traitsIcEEElsEx DATA
 0002:000119f4 0000006cH .xdata$_ZNSt3__113basic_ostreamIcNS_11char_traitsIcEEElsEy DATA
 0002:00011a60 0000006cH .xdata$_ZNSt3__113basic_ostreamIcNS_11char_traitsIcEEElsEf DATA
 0002:00011acc 0000006cH .xdata$_ZNSt3__113basic_ostreamIcNS_11char_traitsIcEEElsEd DATA
 0002:00011b38 0000006cH .xdata$_ZNSt3__113basic_ostreamIcNS_11char_traitsIcEEElsEe DATA
 0002:00011ba4 0000006cH .xdata$_ZNSt3__113basic_ostreamIcNS_11char_traitsIcEEElsEPKv DATA
 0002:00011c10 00000074H .xdata$_ZNSt3__113basic_ostreamIcNS_11char_traitsIcEEElsEPNS_15basic_streambufIcS2_EE DATA
 0002:00011c84 00000058H .xdata$_ZNSt3__113basic_ostreamIcNS_11char_traitsIcEEE3putEc DATA
 0002:00011cdc 00000048H .xdata$_ZNSt3__113basic_ostreamIcNS_11char_traitsIcEEE5writeEPKcx DATA
 0002:00011d24 00000028H .xdata$_ZNSt3__113basic_ostreamIcNS_11char_traitsIcEEE5seekpENS_4fposI9_MbstatetEE DATA
 0002:00011d4c 00000028H .xdata$_ZNSt3__113basic_ostreamIcNS_11char_traitsIcEEE5seekpExNS_8ios_base7seekdirE DATA
 0002:00011d74 0000001cH .xdata$_ZNSt3__114basic_iostreamIcNS_11char_traitsIcEEEC1EPNS_15basic_streambufIcS2_EE DATA
 0002:00011d90 0000001cH .xdata$_ZNSt3__113basic_istreamIwNS_11char_traitsIwEEEC1EPNS_15basic_streambufIwS2_EE DATA
 0002:00011dac 00000028H .xdata$_ZNSt3__113basic_istreamIwNS_11char_traitsIwEEE6sentryC2ERS3_b DATA
 0002:00011dd4 00000044H .xdata$_ZNSt3__113basic_ostreamIwNS_11char_traitsIwEEE5flushEv DATA
 0002:00011e18 00000040H .xdata$_ZNSt3__113basic_istreamIwNS_11char_traitsIwEEErsEPNS_15basic_streambufIwS2_EE DATA
 0002:00011e58 00000044H .xdata$_ZNSt3__118__input_arithmeticB6v15007IbwNS_11char_traitsIwEEEERNS_13basic_istreamIT0_T1_EES7_RT_ DATA
 0002:00011e9c 00000044H .xdata$_ZNSt3__138__input_arithmetic_with_numeric_limitsB6v15007IswNS_11char_traitsIwEEEERNS_13basic_istreamIT0_T1_EES7_RT_ DATA
 0002:00011ee0 00000044H .xdata$_ZNSt3__118__input_arithmeticB6v15007ItwNS_11char_traitsIwEEEERNS_13basic_istreamIT0_T1_EES7_RT_ DATA
 0002:00011f24 00000044H .xdata$_ZNSt3__138__input_arithmetic_with_numeric_limitsB6v15007IiwNS_11char_traitsIwEEEERNS_13basic_istreamIT0_T1_EES7_RT_ DATA
 0002:00011f68 00000044H .xdata$_ZNSt3__118__input_arithmeticB6v15007IjwNS_11char_traitsIwEEEERNS_13basic_istreamIT0_T1_EES7_RT_ DATA
 0002:00011fac 00000044H .xdata$_ZNSt3__118__input_arithmeticB6v15007IlwNS_11char_traitsIwEEEERNS_13basic_istreamIT0_T1_EES7_RT_ DATA
 0002:00011ff0 00000044H .xdata$_ZNSt3__118__input_arithmeticB6v15007ImwNS_11char_traitsIwEEEERNS_13basic_istreamIT0_T1_EES7_RT_ DATA
 0002:00012034 00000044H .xdata$_ZNSt3__118__input_arithmeticB6v15007IxwNS_11char_traitsIwEEEERNS_13basic_istreamIT0_T1_EES7_RT_ DATA
 0002:00012078 00000044H .xdata$_ZNSt3__118__input_arithmeticB6v15007IywNS_11char_traitsIwEEEERNS_13basic_istreamIT0_T1_EES7_RT_ DATA
 0002:000120bc 00000044H .xdata$_ZNSt3__118__input_arithmeticB6v15007IfwNS_11char_traitsIwEEEERNS_13basic_istreamIT0_T1_EES7_RT_ DATA
 0002:00012100 00000044H .xdata$_ZNSt3__118__input_arithmeticB6v15007IdwNS_11char_traitsIwEEEERNS_13basic_istreamIT0_T1_EES7_RT_ DATA
 0002:00012144 00000044H .xdata$_ZNSt3__118__input_arithmeticB6v15007IewNS_11char_traitsIwEEEERNS_13basic_istreamIT0_T1_EES7_RT_ DATA
 0002:00012188 00000044H .xdata$_ZNSt3__118__input_arithmeticB6v15007IPvwNS_11char_traitsIwEEEERNS_13basic_istreamIT0_T1_EES8_RT_ DATA
 0002:000121cc 00000040H .xdata$_ZNSt3__113basic_istreamIwNS_11char_traitsIwEEE3getEv DATA
 0002:0001220c 00000024H .xdata$_ZNSt3__113basic_istreamIwNS_11char_traitsIwEEE3getEPwx DATA
 0002:00012230 00000050H .xdata$_ZNSt3__113basic_istreamIwNS_11char_traitsIwEEE3getEPwxw DATA
 0002:00012280 00000020H .xdata$_ZNSt3__113basic_istreamIwNS_11char_traitsIwEEE3getERNS_15basic_streambufIwS2_EE DATA
 0002:000122a0 0000003cH .xdata$_ZNSt3__113basic_istreamIwNS_11char_traitsIwEEE3getERNS_15basic_streambufIwS2_EEw DATA
 0002:000122dc 00000024H .xdata$_ZNSt3__113basic_istreamIwNS_11char_traitsIwEEE7getlineEPwx DATA
 0002:00012300 00000054H .xdata$_ZNSt3__113basic_istreamIwNS_11char_traitsIwEEE7getlineEPwxw DATA
 0002:00012354 0000004cH .xdata$_ZNSt3__113basic_istreamIwNS_11char_traitsIwEEE6ignoreExt DATA
 0002:000123a0 00000040H .xdata$_ZNSt3__113basic_istreamIwNS_11char_traitsIwEEE4peekEv DATA
 0002:000123e0 00000044H .xdata$_ZNSt3__113basic_istreamIwNS_11char_traitsIwEEE4readEPwx DATA
 0002:00012424 00000044H .xdata$_ZNSt3__113basic_istreamIwNS_11char_traitsIwEEE8readsomeEPwx DATA
 0002:00012468 00000040H .xdata$_ZNSt3__113basic_istreamIwNS_11char_traitsIwEEE7putbackEw DATA
 0002:000124a8 00000040H .xdata$_ZNSt3__113basic_istreamIwNS_11char_traitsIwEEE5ungetEv DATA
 0002:000124e8 0000003cH .xdata$_ZNSt3__113basic_istreamIwNS_11char_traitsIwEEE4syncEv DATA
 0002:00012524 00000040H .xdata$_ZNSt3__113basic_istreamIwNS_11char_traitsIwEEE5tellgEv DATA
 0002:00012564 00000040H .xdata$_ZNSt3__113basic_istreamIwNS_11char_traitsIwEEE5seekgENS_4fposI9_MbstatetEE DATA
 0002:000125a4 00000044H .xdata$_ZNSt3__113basic_istreamIwNS_11char_traitsIwEEE5seekgExNS_8ios_base7seekdirE DATA
 0002:000125e8 0000001cH .xdata$_ZNSt3__113basic_ostreamIwNS_11char_traitsIwEEEC1EPNS_15basic_streambufIwS2_EE DATA
 0002:00012604 00000028H .xdata$_ZNSt3__113basic_ostreamIwNS_11char_traitsIwEEE6sentryD2Ev DATA
 0002:0001262c 0000006cH .xdata$_ZNSt3__113basic_ostreamIwNS_11char_traitsIwEEElsEb DATA
 0002:00012698 0000006cH .xdata$_ZNSt3__113basic_ostreamIwNS_11char_traitsIwEEElsEs DATA
 0002:00012704 0000006cH .xdata$_ZNSt3__113basic_ostreamIwNS_11char_traitsIwEEElsEt DATA
 0002:00012770 0000006cH .xdata$_ZNSt3__113basic_ostreamIwNS_11char_traitsIwEEElsEi DATA
 0002:000127dc 0000006cH .xdata$_ZNSt3__113basic_ostreamIwNS_11char_traitsIwEEElsEj DATA
 0002:00012848 0000006cH .xdata$_ZNSt3__113basic_ostreamIwNS_11char_traitsIwEEElsEl DATA
 0002:000128b4 0000006cH .xdata$_ZNSt3__113basic_ostreamIwNS_11char_traitsIwEEElsEm DATA
 0002:00012920 0000006cH .xdata$_ZNSt3__113basic_ostreamIwNS_11char_traitsIwEEElsEx DATA
 0002:0001298c 0000006cH .xdata$_ZNSt3__113basic_ostreamIwNS_11char_traitsIwEEElsEy DATA
 0002:000129f8 0000006cH .xdata$_ZNSt3__113basic_ostreamIwNS_11char_traitsIwEEElsEf DATA
 0002:00012a64 0000006cH .xdata$_ZNSt3__113basic_ostreamIwNS_11char_traitsIwEEElsEd DATA
 0002:00012ad0 0000006cH .xdata$_ZNSt3__113basic_ostreamIwNS_11char_traitsIwEEElsEe DATA
 0002:00012b3c 0000006cH .xdata$_ZNSt3__113basic_ostreamIwNS_11char_traitsIwEEElsEPKv DATA
 0002:00012ba8 00000078H .xdata$_ZNSt3__113basic_ostreamIwNS_11char_traitsIwEEElsEPNS_15basic_streambufIwS2_EE DATA
 0002:00012c20 00000058H .xdata$_ZNSt3__113basic_ostreamIwNS_11char_traitsIwEEE3putEw DATA
 0002:00012c78 0000005cH .xdata$_ZNSt3__113basic_ostreamIwNS_11char_traitsIwEEE5writeEPKwx DATA
 0002:00012cd4 00000028H .xdata$_ZNSt3__113basic_ostreamIwNS_11char_traitsIwEEE5seekpENS_4fposI9_MbstatetEE DATA
 0002:00012cfc 00000028H .xdata$_ZNSt3__113basic_ostreamIwNS_11char_traitsIwEEE5seekpExNS_8ios_base7seekdirE DATA
 0002:00012d24 0000002cH .xdata$_ZNSt3__115basic_stringbufIcNS_11char_traitsIcEENS_9allocatorIcEEEC2EOS5_ DATA
 0002:00012d50 0000002cH .xdata$_ZNSt3__115basic_stringbufIcNS_11char_traitsIcEENS_9allocatorIcEEEaSEOS5_ DATA
 0002:00012d7c 00000034H .xdata$_ZNSt3__115basic_stringbufIcNS_11char_traitsIcEENS_9allocatorIcEEE4swapERS5_ DATA
 0002:00012db0 00000038H .xdata$_ZNSt3__115basic_stringbufIcNS_11char_traitsIcEENS_9allocatorIcEEE8overflowEi DATA
 0002:00012de8 00000040H .xdata$_ZNSt3__113basic_filebufIcNS_11char_traitsIcEEEC2Ev DATA
 0002:00012e28 00000034H .xdata$_ZNSt3__113basic_filebufIcNS_11char_traitsIcEEED2Ev DATA
 0002:00012e5c 0000001cH .xdata$_ZNSt3__113basic_filebufIcNS_11char_traitsIcEEE5closeEv DATA
 0002:00012e78 00000020H .xdata$_ZNSt3__120__throw_length_errorB6v15007EPKc DATA
 0002:00012e98 00000008H .xdata$_ZNSt3__19basic_iosIcNS_11char_traitsIcEEED0Ev DATA
 0002:00012ea0 0000000cH .xdata$_ZNSt3__19basic_iosIcNS_11char_traitsIcEEE7copyfmtERKS3_ DATA
 0002:00012eac 00000008H .xdata$_ZNSt3__115basic_streambufIcNS_11char_traitsIcEEED0Ev DATA
 0002:00012eb4 0000000cH .xdata$_ZNSt3__115basic_streambufIcNS_11char_traitsIcEEE8pubimbueERKNS_6localeE DATA
 0002:00012ec0 00000008H .xdata$_ZNKSt3__115basic_streambufIcNS_11char_traitsIcEEE6getlocEv DATA
 0002:00012ec8 00000008H .xdata$_ZNSt3__115basic_streambufIcNS_11char_traitsIcEEE10pubseekoffExNS_8ios_base7seekdirEj DATA
 0002:00012ed0 00000008H .xdata$_ZNSt3__115basic_streambufIcNS_11char_traitsIcEEE10pubseekposENS_4fposI9_MbstatetEEj DATA
 0002:00012ed8 00000008H .xdata$_ZNSt3__115basic_streambufIcNS_11char_traitsIcEEE6snextcEv DATA
 0002:00012ee0 00000008H .xdata$_ZNSt3__115basic_streambufIcNS_11char_traitsIcEEEC2Ev DATA
 0002:00012ee8 00000008H .xdata$_ZNSt3__115basic_streambufIcNS_11char_traitsIcEEEC1Ev DATA
 0002:00012ef0 0000000cH .xdata$_ZNSt3__115basic_streambufIcNS_11char_traitsIcEEEC2ERKS3_ DATA
 0002:00012efc 0000000cH .xdata$_ZNSt3__115basic_streambufIcNS_11char_traitsIcEEEC1ERKS3_ DATA
 0002:00012f08 0000000cH .xdata$_ZNSt3__115basic_streambufIcNS_11char_traitsIcEEEaSERKS3_ DATA
 0002:00012f14 00000010H .xdata$_ZNSt3__115basic_streambufIcNS_11char_traitsIcEEE4swapERS3_ DATA
 0002:00012f24 00000010H .xdata$_ZNSt3__115basic_streambufIcNS_11char_traitsIcEEE6xsgetnEPcx DATA
 0002:00012f34 00000008H .xdata$_ZNSt3__115basic_streambufIcNS_11char_traitsIcEEE5uflowEv DATA
 0002:00012f3c 00000010H .xdata$_ZNSt3__115basic_streambufIcNS_11char_traitsIcEEE6xsputnEPKcx DATA
 0002:00012f4c 0000000cH .xdata$_ZNSt3__113basic_istreamIcNS_11char_traitsIcEEEC2EPNS_15basic_streambufIcS2_EE DATA
 0002:00012f58 0000001cH .xdata$_ZNSt3__113basic_istreamIcNS_11char_traitsIcEEEC1EPNS_15basic_streambufIcS2_EE DATA
 0002:00012f74 00000008H .xdata$_ZNSt3__113basic_istreamIcNS_11char_traitsIcEEED0Ev DATA
 0002:00012f7c 00000008H .xdata$_ZTv0_n24_NSt3__113basic_istreamIcNS_11char_traitsIcEEED0Ev DATA
 0002:00012f84 00000010H .xdata$_ZNSt3__113basic_istreamIcNS_11char_traitsIcEEE4swapERS3_ DATA
 0002:00012f94 00000028H .xdata$_ZNSt3__113basic_istreamIcNS_11char_traitsIcEEE6sentryC2ERS3_b DATA
 0002:00012fbc 00000044H .xdata$_ZNSt3__113basic_ostreamIcNS_11char_traitsIcEEE5flushEv DATA
 0002:00013000 00000008H .xdata$_ZNSt3__113basic_istreamIcNS_11char_traitsIcEEErsEPFRNS_9basic_iosIcS2_EES6_E DATA
 0002:00013008 00000008H .xdata$_ZNSt3__113basic_istreamIcNS_11char_traitsIcEEErsEPFRNS_8ios_baseES5_E DATA
 0002:00013010 00000040H .xdata$_ZNSt3__113basic_istreamIcNS_11char_traitsIcEEErsEPNS_15basic_streambufIcS2_EE DATA
 0002:00013050 00000044H .xdata$_ZNSt3__118__input_arithmeticB6v15007IbcNS_11char_traitsIcEEEERNS_13basic_istreamIT0_T1_EES7_RT_ DATA
 0002:00013094 00000044H .xdata$_ZNSt3__138__input_arithmetic_with_numeric_limitsB6v15007IscNS_11char_traitsIcEEEERNS_13basic_istreamIT0_T1_EES7_RT_ DATA
 0002:000130d8 00000044H .xdata$_ZNSt3__118__input_arithmeticB6v15007ItcNS_11char_traitsIcEEEERNS_13basic_istreamIT0_T1_EES7_RT_ DATA
 0002:0001311c 00000044H .xdata$_ZNSt3__138__input_arithmetic_with_numeric_limitsB6v15007IicNS_11char_traitsIcEEEERNS_13basic_istreamIT0_T1_EES7_RT_ DATA
 0002:00013160 00000044H .xdata$_ZNSt3__118__input_arithmeticB6v15007IjcNS_11char_traitsIcEEEERNS_13basic_istreamIT0_T1_EES7_RT_ DATA
 0002:000131a4 00000044H .xdata$_ZNSt3__118__input_arithmeticB6v15007IlcNS_11char_traitsIcEEEERNS_13basic_istreamIT0_T1_EES7_RT_ DATA
 0002:000131e8 00000044H .xdata$_ZNSt3__118__input_arithmeticB6v15007ImcNS_11char_traitsIcEEEERNS_13basic_istreamIT0_T1_EES7_RT_ DATA
 0002:0001322c 00000044H .xdata$_ZNSt3__118__input_arithmeticB6v15007IxcNS_11char_traitsIcEEEERNS_13basic_istreamIT0_T1_EES7_RT_ DATA
 0002:00013270 00000044H .xdata$_ZNSt3__118__input_arithmeticB6v15007IycNS_11char_traitsIcEEEERNS_13basic_istreamIT0_T1_EES7_RT_ DATA
 0002:000132b4 00000044H .xdata$_ZNSt3__118__input_arithmeticB6v15007IfcNS_11char_traitsIcEEEERNS_13basic_istreamIT0_T1_EES7_RT_ DATA
 0002:000132f8 00000044H .xdata$_ZNSt3__118__input_arithmeticB6v15007IdcNS_11char_traitsIcEEEERNS_13basic_istreamIT0_T1_EES7_RT_ DATA
 0002:0001333c 00000044H .xdata$_ZNSt3__118__input_arithmeticB6v15007IecNS_11char_traitsIcEEEERNS_13basic_istreamIT0_T1_EES7_RT_ DATA
 0002:00013380 00000044H .xdata$_ZNSt3__118__input_arithmeticB6v15007IPvcNS_11char_traitsIcEEEERNS_13basic_istreamIT0_T1_EES8_RT_ DATA
 0002:000133c4 00000040H .xdata$_ZNSt3__113basic_istreamIcNS_11char_traitsIcEEE3getEv DATA
 0002:00013404 0000000cH .xdata$_ZNSt3__113basic_istreamIcNS_11char_traitsIcEEE3getERc DATA
 0002:00013410 00000024H .xdata$_ZNSt3__113basic_istreamIcNS_11char_traitsIcEEE3getEPcx DATA
 0002:00013434 00000050H .xdata$_ZNSt3__113basic_istreamIcNS_11char_traitsIcEEE3getEPcxc DATA
 0002:00013484 00000020H .xdata$_ZNSt3__113basic_istreamIcNS_11char_traitsIcEEE3getERNS_15basic_streambufIcS2_EE DATA
 0002:000134a4 0000003cH .xdata$_ZNSt3__113basic_istreamIcNS_11char_traitsIcEEE3getERNS_15basic_streambufIcS2_EEc DATA
 0002:000134e0 00000024H .xdata$_ZNSt3__113basic_istreamIcNS_11char_traitsIcEEE7getlineEPcx DATA
 0002:00013504 00000054H .xdata$_ZNSt3__113basic_istreamIcNS_11char_traitsIcEEE7getlineEPcxc DATA
 0002:00013558 0000004cH .xdata$_ZNSt3__113basic_istreamIcNS_11char_traitsIcEEE6ignoreExi DATA
 0002:000135a4 00000040H .xdata$_ZNSt3__113basic_istreamIcNS_11char_traitsIcEEE4peekEv DATA
 0002:000135e4 00000044H .xdata$_ZNSt3__113basic_istreamIcNS_11char_traitsIcEEE4readEPcx DATA
 0002:00013628 00000044H .xdata$_ZNSt3__113basic_istreamIcNS_11char_traitsIcEEE8readsomeEPcx DATA
 0002:0001366c 00000040H .xdata$_ZNSt3__113basic_istreamIcNS_11char_traitsIcEEE7putbackEc DATA
 0002:000136ac 00000040H .xdata$_ZNSt3__113basic_istreamIcNS_11char_traitsIcEEE5ungetEv DATA
 0002:000136ec 0000003cH .xdata$_ZNSt3__113basic_istreamIcNS_11char_traitsIcEEE4syncEv DATA
 0002:00013728 00000040H .xdata$_ZNSt3__113basic_istreamIcNS_11char_traitsIcEEE5tellgEv DATA
 0002:00013768 00000040H .xdata$_ZNSt3__113basic_istreamIcNS_11char_traitsIcEEE5seekgENS_4fposI9_MbstatetEE DATA
 0002:000137a8 00000044H .xdata$_ZNSt3__113basic_istreamIcNS_11char_traitsIcEEE5seekgExNS_8ios_base7seekdirE DATA
 0002:000137ec 0000000cH .xdata$_ZNSt3__113basic_ostreamIcNS_11char_traitsIcEEEC2EPNS_15basic_streambufIcS2_EE DATA
 0002:000137f8 0000001cH .xdata$_ZNSt3__113basic_ostreamIcNS_11char_traitsIcEEEC1EPNS_15basic_streambufIcS2_EE DATA
 0002:00013814 00000008H .xdata$_ZNSt3__113basic_ostreamIcNS_11char_traitsIcEEED0Ev DATA
 0002:0001381c 00000008H .xdata$_ZTv0_n24_NSt3__113basic_ostreamIcNS_11char_traitsIcEEED0Ev DATA
 0002:00013824 00000010H .xdata$_ZNSt3__113basic_ostreamIcNS_11char_traitsIcEEE4swapERS3_ DATA
 0002:00013834 00000008H .xdata$_ZNSt3__113basic_ostreamIcNS_11char_traitsIcEEElsEPFRNS_9basic_iosIcS2_EES6_E DATA
 0002:0001383c 00000008H .xdata$_ZNSt3__113basic_ostreamIcNS_11char_traitsIcEEElsEPFRNS_8ios_baseES5_E DATA
 0002:00013844 0000006cH .xdata$_ZNSt3__113basic_ostreamIcNS_11char_traitsIcEEElsEb DATA
 0002:000138b0 0000006cH .xdata$_ZNSt3__113basic_ostreamIcNS_11char_traitsIcEEElsEs DATA
 0002:0001391c 0000006cH .xdata$_ZNSt3__113basic_ostreamIcNS_11char_traitsIcEEElsEt DATA
 0002:00013988 0000006cH .xdata$_ZNSt3__113basic_ostreamIcNS_11char_traitsIcEEElsEi DATA
 0002:000139f4 0000006cH .xdata$_ZNSt3__113basic_ostreamIcNS_11char_traitsIcEEElsEj DATA
 0002:00013a60 0000006cH .xdata$_ZNSt3__113basic_ostreamIcNS_11char_traitsIcEEElsEl DATA
 0002:00013acc 0000006cH .xdata$_ZNSt3__113basic_ostreamIcNS_11char_traitsIcEEElsEm DATA
 0002:00013b38 0000006cH .xdata$_ZNSt3__113basic_ostreamIcNS_11char_traitsIcEEElsEx DATA
 0002:00013ba4 0000006cH .xdata$_ZNSt3__113basic_ostreamIcNS_11char_traitsIcEEElsEy DATA
 0002:00013c10 0000006cH .xdata$_ZNSt3__113basic_ostreamIcNS_11char_traitsIcEEElsEf DATA
 0002:00013c7c 0000006cH .xdata$_ZNSt3__113basic_ostreamIcNS_11char_traitsIcEEElsEd DATA
 0002:00013ce8 0000006cH .xdata$_ZNSt3__113basic_ostreamIcNS_11char_traitsIcEEElsEe DATA
 0002:00013d54 0000006cH .xdata$_ZNSt3__113basic_ostreamIcNS_11char_traitsIcEEElsEPKv DATA
 0002:00013dc0 00000074H .xdata$_ZNSt3__113basic_ostreamIcNS_11char_traitsIcEEElsEPNS_15basic_streambufIcS2_EE DATA
 0002:00013e34 00000058H .xdata$_ZNSt3__113basic_ostreamIcNS_11char_traitsIcEEE3putEc DATA
 0002:00013e8c 00000048H .xdata$_ZNSt3__113basic_ostreamIcNS_11char_traitsIcEEE5writeEPKcx DATA
 0002:00013ed4 00000008H .xdata$_ZNSt3__113basic_ostreamIcNS_11char_traitsIcEEE5tellpEv DATA
 0002:00013edc 00000028H .xdata$_ZNSt3__113basic_ostreamIcNS_11char_traitsIcEEE5seekpENS_4fposI9_MbstatetEE DATA
 0002:00013f04 00000028H .xdata$_ZNSt3__113basic_ostreamIcNS_11char_traitsIcEEE5seekpExNS_8ios_base7seekdirE DATA
 0002:00013f2c 0000000cH .xdata$_ZNSt3__114basic_iostreamIcNS_11char_traitsIcEEEC2EPNS_15basic_streambufIcS2_EE DATA
 0002:00013f38 0000001cH .xdata$_ZNSt3__114basic_iostreamIcNS_11char_traitsIcEEEC1EPNS_15basic_streambufIcS2_EE DATA
 0002:00013f54 00000008H .xdata$_ZNSt3__114basic_iostreamIcNS_11char_traitsIcEEED0Ev DATA
 0002:00013f5c 00000008H .xdata$_ZThn16_NSt3__114basic_iostreamIcNS_11char_traitsIcEEED0Ev DATA
 0002:00013f64 00000008H .xdata$_ZTv0_n24_NSt3__114basic_iostreamIcNS_11char_traitsIcEEED0Ev DATA
 0002:00013f6c 00000010H .xdata$_ZNSt3__114basic_iostreamIcNS_11char_traitsIcEEE4swapERS3_ DATA
 0002:00013f7c 00000008H .xdata$_ZNSt3__19basic_iosIwNS_11char_traitsIwEEED0Ev DATA
 0002:00013f84 0000000cH .xdata$_ZNSt3__19basic_iosIwNS_11char_traitsIwEEE7copyfmtERKS3_ DATA
 0002:00013f90 00000008H .xdata$_ZNSt3__115basic_streambufIwNS_11char_traitsIwEEED0Ev DATA
 0002:00013f98 0000000cH .xdata$_ZNSt3__115basic_streambufIwNS_11char_traitsIwEEE8pubimbueERKNS_6localeE DATA
 0002:00013fa4 00000008H .xdata$_ZNKSt3__115basic_streambufIwNS_11char_traitsIwEEE6getlocEv DATA
 0002:00013fac 00000008H .xdata$_ZNSt3__115basic_streambufIwNS_11char_traitsIwEEE10pubseekoffExNS_8ios_base7seekdirEj DATA
 0002:00013fb4 00000008H .xdata$_ZNSt3__115basic_streambufIwNS_11char_traitsIwEEE10pubseekposENS_4fposI9_MbstatetEEj DATA
 0002:00013fbc 00000008H .xdata$_ZNSt3__115basic_streambufIwNS_11char_traitsIwEEE6snextcEv DATA
 0002:00013fc4 00000008H .xdata$_ZNSt3__115basic_streambufIwNS_11char_traitsIwEEEC2Ev DATA
 0002:00013fcc 00000008H .xdata$_ZNSt3__115basic_streambufIwNS_11char_traitsIwEEEC1Ev DATA
 0002:00013fd4 0000000cH .xdata$_ZNSt3__115basic_streambufIwNS_11char_traitsIwEEEC2ERKS3_ DATA
 0002:00013fe0 0000000cH .xdata$_ZNSt3__115basic_streambufIwNS_11char_traitsIwEEEC1ERKS3_ DATA
 0002:00013fec 0000000cH .xdata$_ZNSt3__115basic_streambufIwNS_11char_traitsIwEEEaSERKS3_ DATA
 0002:00013ff8 00000010H .xdata$_ZNSt3__115basic_streambufIwNS_11char_traitsIwEEE4swapERS3_ DATA
 0002:00014008 00000010H .xdata$_ZNSt3__115basic_streambufIwNS_11char_traitsIwEEE6xsgetnEPwx DATA
 0002:00014018 00000008H .xdata$_ZNSt3__115basic_streambufIwNS_11char_traitsIwEEE5uflowEv DATA
 0002:00014020 00000010H .xdata$_ZNSt3__115basic_streambufIwNS_11char_traitsIwEEE6xsputnEPKwx DATA
 0002:00014030 0000000cH .xdata$_ZNSt3__113basic_istreamIwNS_11char_traitsIwEEEC2EPNS_15basic_streambufIwS2_EE DATA
 0002:0001403c 0000001cH .xdata$_ZNSt3__113basic_istreamIwNS_11char_traitsIwEEEC1EPNS_15basic_streambufIwS2_EE DATA
 0002:00014058 00000008H .xdata$_ZNSt3__113basic_istreamIwNS_11char_traitsIwEEED0Ev DATA
 0002:00014060 00000008H .xdata$_ZTv0_n24_NSt3__113basic_istreamIwNS_11char_traitsIwEEED0Ev DATA
 0002:00014068 00000010H .xdata$_ZNSt3__113basic_istreamIwNS_11char_traitsIwEEE4swapERS3_ DATA
 0002:00014078 00000028H .xdata$_ZNSt3__113basic_istreamIwNS_11char_traitsIwEEE6sentryC2ERS3_b DATA
 0002:000140a0 00000044H .xdata$_ZNSt3__113basic_ostreamIwNS_11char_traitsIwEEE5flushEv DATA
 0002:000140e4 00000008H .xdata$_ZNSt3__113basic_istreamIwNS_11char_traitsIwEEErsEPFRNS_9basic_iosIwS2_EES6_E DATA
 0002:000140ec 00000008H .xdata$_ZNSt3__113basic_istreamIwNS_11char_traitsIwEEErsEPFRNS_8ios_baseES5_E DATA
 0002:000140f4 00000040H .xdata$_ZNSt3__113basic_istreamIwNS_11char_traitsIwEEErsEPNS_15basic_streambufIwS2_EE DATA
 0002:00014134 00000044H .xdata$_ZNSt3__118__input_arithmeticB6v15007IbwNS_11char_traitsIwEEEERNS_13basic_istreamIT0_T1_EES7_RT_ DATA
 0002:00014178 00000044H .xdata$_ZNSt3__138__input_arithmetic_with_numeric_limitsB6v15007IswNS_11char_traitsIwEEEERNS_13basic_istreamIT0_T1_EES7_RT_ DATA
 0002:000141bc 00000044H .xdata$_ZNSt3__118__input_arithmeticB6v15007ItwNS_11char_traitsIwEEEERNS_13basic_istreamIT0_T1_EES7_RT_ DATA
 0002:00014200 00000044H .xdata$_ZNSt3__138__input_arithmetic_with_numeric_limitsB6v15007IiwNS_11char_traitsIwEEEERNS_13basic_istreamIT0_T1_EES7_RT_ DATA
 0002:00014244 00000044H .xdata$_ZNSt3__118__input_arithmeticB6v15007IjwNS_11char_traitsIwEEEERNS_13basic_istreamIT0_T1_EES7_RT_ DATA
 0002:00014288 00000044H .xdata$_ZNSt3__118__input_arithmeticB6v15007IlwNS_11char_traitsIwEEEERNS_13basic_istreamIT0_T1_EES7_RT_ DATA
 0002:000142cc 00000044H .xdata$_ZNSt3__118__input_arithmeticB6v15007ImwNS_11char_traitsIwEEEERNS_13basic_istreamIT0_T1_EES7_RT_ DATA
 0002:00014310 00000044H .xdata$_ZNSt3__118__input_arithmeticB6v15007IxwNS_11char_traitsIwEEEERNS_13basic_istreamIT0_T1_EES7_RT_ DATA
 0002:00014354 00000044H .xdata$_ZNSt3__118__input_arithmeticB6v15007IywNS_11char_traitsIwEEEERNS_13basic_istreamIT0_T1_EES7_RT_ DATA
 0002:00014398 00000044H .xdata$_ZNSt3__118__input_arithmeticB6v15007IfwNS_11char_traitsIwEEEERNS_13basic_istreamIT0_T1_EES7_RT_ DATA
 0002:000143dc 00000044H .xdata$_ZNSt3__118__input_arithmeticB6v15007IdwNS_11char_traitsIwEEEERNS_13basic_istreamIT0_T1_EES7_RT_ DATA
 0002:00014420 00000044H .xdata$_ZNSt3__118__input_arithmeticB6v15007IewNS_11char_traitsIwEEEERNS_13basic_istreamIT0_T1_EES7_RT_ DATA
 0002:00014464 00000044H .xdata$_ZNSt3__118__input_arithmeticB6v15007IPvwNS_11char_traitsIwEEEERNS_13basic_istreamIT0_T1_EES8_RT_ DATA
 0002:000144a8 00000040H .xdata$_ZNSt3__113basic_istreamIwNS_11char_traitsIwEEE3getEv DATA
 0002:000144e8 0000000cH .xdata$_ZNSt3__113basic_istreamIwNS_11char_traitsIwEEE3getERw DATA
 0002:000144f4 00000024H .xdata$_ZNSt3__113basic_istreamIwNS_11char_traitsIwEEE3getEPwx DATA
 0002:00014518 00000050H .xdata$_ZNSt3__113basic_istreamIwNS_11char_traitsIwEEE3getEPwxw DATA
 0002:00014568 00000020H .xdata$_ZNSt3__113basic_istreamIwNS_11char_traitsIwEEE3getERNS_15basic_streambufIwS2_EE DATA
 0002:00014588 0000003cH .xdata$_ZNSt3__113basic_istreamIwNS_11char_traitsIwEEE3getERNS_15basic_streambufIwS2_EEw DATA
 0002:000145c4 00000024H .xdata$_ZNSt3__113basic_istreamIwNS_11char_traitsIwEEE7getlineEPwx DATA
 0002:000145e8 00000054H .xdata$_ZNSt3__113basic_istreamIwNS_11char_traitsIwEEE7getlineEPwxw DATA
 0002:0001463c 0000004cH .xdata$_ZNSt3__113basic_istreamIwNS_11char_traitsIwEEE6ignoreExt DATA
 0002:00014688 00000040H .xdata$_ZNSt3__113basic_istreamIwNS_11char_traitsIwEEE4peekEv DATA
 0002:000146c8 00000044H .xdata$_ZNSt3__113basic_istreamIwNS_11char_traitsIwEEE4readEPwx DATA
 0002:0001470c 00000044H .xdata$_ZNSt3__113basic_istreamIwNS_11char_traitsIwEEE8readsomeEPwx DATA
 0002:00014750 00000040H .xdata$_ZNSt3__113basic_istreamIwNS_11char_traitsIwEEE7putbackEw DATA
 0002:00014790 00000040H .xdata$_ZNSt3__113basic_istreamIwNS_11char_traitsIwEEE5ungetEv DATA
 0002:000147d0 0000003cH .xdata$_ZNSt3__113basic_istreamIwNS_11char_traitsIwEEE4syncEv DATA
 0002:0001480c 00000040H .xdata$_ZNSt3__113basic_istreamIwNS_11char_traitsIwEEE5tellgEv DATA
 0002:0001484c 00000040H .xdata$_ZNSt3__113basic_istreamIwNS_11char_traitsIwEEE5seekgENS_4fposI9_MbstatetEE DATA
 0002:0001488c 00000044H .xdata$_ZNSt3__113basic_istreamIwNS_11char_traitsIwEEE5seekgExNS_8ios_base7seekdirE DATA
 0002:000148d0 0000000cH .xdata$_ZNSt3__113basic_ostreamIwNS_11char_traitsIwEEEC2EPNS_15basic_streambufIwS2_EE DATA
 0002:000148dc 0000001cH .xdata$_ZNSt3__113basic_ostreamIwNS_11char_traitsIwEEEC1EPNS_15basic_streambufIwS2_EE DATA
 0002:000148f8 00000008H .xdata$_ZNSt3__113basic_ostreamIwNS_11char_traitsIwEEED0Ev DATA
 0002:00014900 00000008H .xdata$_ZTv0_n24_NSt3__113basic_ostreamIwNS_11char_traitsIwEEED0Ev DATA
 0002:00014908 00000010H .xdata$_ZNSt3__113basic_ostreamIwNS_11char_traitsIwEEE4swapERS3_ DATA
 0002:00014918 00000008H .xdata$_ZNSt3__113basic_ostreamIwNS_11char_traitsIwEEE6sentryC2ERS3_ DATA
 0002:00014920 00000008H .xdata$_ZNSt3__113basic_ostreamIwNS_11char_traitsIwEEE6sentryC1ERS3_ DATA
 0002:00014928 00000028H .xdata$_ZNSt3__113basic_ostreamIwNS_11char_traitsIwEEE6sentryD2Ev DATA
 0002:00014950 00000008H .xdata$_ZNSt3__113basic_ostreamIwNS_11char_traitsIwEEElsEPFRNS_9basic_iosIwS2_EES6_E DATA
 0002:00014958 00000008H .xdata$_ZNSt3__113basic_ostreamIwNS_11char_traitsIwEEElsEPFRNS_8ios_baseES5_E DATA
 0002:00014960 0000006cH .xdata$_ZNSt3__113basic_ostreamIwNS_11char_traitsIwEEElsEb DATA
 0002:000149cc 0000006cH .xdata$_ZNSt3__113basic_ostreamIwNS_11char_traitsIwEEElsEs DATA
 0002:00014a38 0000006cH .xdata$_ZNSt3__113basic_ostreamIwNS_11char_traitsIwEEElsEt DATA
 0002:00014aa4 0000006cH .xdata$_ZNSt3__113basic_ostreamIwNS_11char_traitsIwEEElsEi DATA
 0002:00014b10 0000006cH .xdata$_ZNSt3__113basic_ostreamIwNS_11char_traitsIwEEElsEj DATA
 0002:00014b7c 0000006cH .xdata$_ZNSt3__113basic_ostreamIwNS_11char_traitsIwEEElsEl DATA
 0002:00014be8 0000006cH .xdata$_ZNSt3__113basic_ostreamIwNS_11char_traitsIwEEElsEm DATA
 0002:00014c54 0000006cH .xdata$_ZNSt3__113basic_ostreamIwNS_11char_traitsIwEEElsEx DATA
 0002:00014cc0 0000006cH .xdata$_ZNSt3__113basic_ostreamIwNS_11char_traitsIwEEElsEy DATA
 0002:00014d2c 0000006cH .xdata$_ZNSt3__113basic_ostreamIwNS_11char_traitsIwEEElsEf DATA
 0002:00014d98 0000006cH .xdata$_ZNSt3__113basic_ostreamIwNS_11char_traitsIwEEElsEd DATA
 0002:00014e04 0000006cH .xdata$_ZNSt3__113basic_ostreamIwNS_11char_traitsIwEEElsEe DATA
 0002:00014e70 0000006cH .xdata$_ZNSt3__113basic_ostreamIwNS_11char_traitsIwEEElsEPKv DATA
 0002:00014edc 00000078H .xdata$_ZNSt3__113basic_ostreamIwNS_11char_traitsIwEEElsEPNS_15basic_streambufIwS2_EE DATA
 0002:00014f54 00000058H .xdata$_ZNSt3__113basic_ostreamIwNS_11char_traitsIwEEE3putEw DATA
 0002:00014fac 0000005cH .xdata$_ZNSt3__113basic_ostreamIwNS_11char_traitsIwEEE5writeEPKwx DATA
 0002:00015008 00000008H .xdata$_ZNSt3__113basic_ostreamIwNS_11char_traitsIwEEE5tellpEv DATA
 0002:00015010 00000028H .xdata$_ZNSt3__113basic_ostreamIwNS_11char_traitsIwEEE5seekpENS_4fposI9_MbstatetEE DATA
 0002:00015038 00000028H .xdata$_ZNSt3__113basic_ostreamIwNS_11char_traitsIwEEE5seekpExNS_8ios_base7seekdirE DATA
 0002:00015060 0000002cH .xdata$_ZNSt3__115basic_stringbufIcNS_11char_traitsIcEENS_9allocatorIcEEEC2EOS5_ DATA
 0002:0001508c 0000002cH .xdata$_ZNSt3__115basic_stringbufIcNS_11char_traitsIcEENS_9allocatorIcEEEaSEOS5_ DATA
 0002:000150b8 00000034H .xdata$_ZNSt3__115basic_stringbufIcNS_11char_traitsIcEENS_9allocatorIcEEE4swapERS5_ DATA
 0002:000150ec 00000014H .xdata$_ZNKSt3__115basic_stringbufIcNS_11char_traitsIcEENS_9allocatorIcEEE3strEv DATA
 0002:00015100 00000010H .xdata$_ZNSt3__115basic_stringbufIcNS_11char_traitsIcEENS_9allocatorIcEEE3strERKNS_12basic_stringIcS2_S4_EE DATA
 0002:00015110 00000038H .xdata$_ZNSt3__115basic_stringbufIcNS_11char_traitsIcEENS_9allocatorIcEEE8overflowEi DATA
 0002:00015148 0000000cH .xdata$_ZNSt3__115basic_stringbufIcNS_11char_traitsIcEENS_9allocatorIcEEE7seekoffExNS_8ios_base7seekdirEj DATA
 0002:00015154 00000010H .xdata$_ZNSt3__118basic_stringstreamIcNS_11char_traitsIcEENS_9allocatorIcEEEaSEOS5_ DATA
 0002:00015164 00000010H .xdata$_ZNSt3__119basic_ostringstreamIcNS_11char_traitsIcEENS_9allocatorIcEEEaSEOS5_ DATA
 0002:00015174 00000010H .xdata$_ZNSt3__119basic_istringstreamIcNS_11char_traitsIcEENS_9allocatorIcEEEaSEOS5_ DATA
 0002:00015184 00000008H .xdata$_ZNSt3__114basic_ifstreamIcNS_11char_traitsIcEEE4openEPKcj DATA
 0002:0001518c 0000000cH .xdata$_ZNSt3__113basic_filebufIcNS_11char_traitsIcEEE4openEPKcj DATA
 0002:00015198 00000008H .xdata$_ZNSt3__114basic_ifstreamIcNS_11char_traitsIcEEE4openEPKwj DATA
 0002:000151a0 0000000cH .xdata$_ZNSt3__113basic_filebufIcNS_11char_traitsIcEEE4openEPKwj DATA
 0002:000151ac 00000008H .xdata$_ZNSt3__114basic_ifstreamIcNS_11char_traitsIcEEE4openERKNS_12basic_stringIcS2_NS_9allocatorIcEEEEj DATA
 0002:000151b4 00000008H .xdata$_ZNSt3__114basic_ofstreamIcNS_11char_traitsIcEEE4openEPKcj DATA
 0002:000151bc 00000008H .xdata$_ZNSt3__114basic_ofstreamIcNS_11char_traitsIcEEE4openEPKwj DATA
 0002:000151c4 00000008H .xdata$_ZNSt3__114basic_ofstreamIcNS_11char_traitsIcEEE4openERKNS_12basic_stringIcS2_NS_9allocatorIcEEEEj DATA
 0002:000151cc 00000040H .xdata$_ZNSt3__113basic_filebufIcNS_11char_traitsIcEEEC2Ev DATA
 0002:0001520c 00000010H .xdata$_ZNSt3__113basic_filebufIcNS_11char_traitsIcEEEC2EOS3_ DATA
 0002:0001521c 00000034H .xdata$_ZNSt3__113basic_filebufIcNS_11char_traitsIcEEED2Ev DATA
 0002:00015250 0000001cH .xdata$_ZNSt3__113basic_filebufIcNS_11char_traitsIcEEE5closeEv DATA
 0002:0001526c 00000008H .xdata$_ZNSt3__113basic_filebufIcNS_11char_traitsIcEEED0Ev DATA
 0002:00015274 00000010H .xdata$_ZNSt3__113basic_filebufIcNS_11char_traitsIcEEE4swapERS3_ DATA
 0002:00015284 00000010H .xdata$_ZNSt3__113basic_filebufIcNS_11char_traitsIcEEE9underflowEv DATA
 0002:00015294 00000008H .xdata$_ZNSt3__116__throw_bad_castB6v15007Ev DATA
 0002:0001529c 00000018H .xdata$_ZNSt3__113basic_filebufIcNS_11char_traitsIcEEE8overflowEi DATA
 0002:000152b4 0000000cH .xdata$_ZNSt3__113basic_filebufIcNS_11char_traitsIcEEE6setbufEPcx DATA
 0002:000152c0 00000010H .xdata$_ZNSt3__113basic_filebufIcNS_11char_traitsIcEEE7seekoffExNS_8ios_base7seekdirEj DATA
 0002:000152d0 0000000cH .xdata$_ZNSt3__113basic_filebufIcNS_11char_traitsIcEEE7seekposENS_4fposI9_MbstatetEEj DATA
 0002:000152dc 00000014H .xdata$_ZNSt3__113basic_filebufIcNS_11char_traitsIcEEE4syncEv DATA
 0002:000152f0 0000000cH .xdata$_ZNSt3__113basic_filebufIcNS_11char_traitsIcEEE5imbueERKNS_6localeE DATA
 0002:000152fc 00000008H .xdata$_ZNSt3__115basic_stringbufIcNS_11char_traitsIcEENS_9allocatorIcEEED2Ev DATA
 0002:00015304 00000008H .xdata$_ZNSt3__115basic_stringbufIcNS_11char_traitsIcEENS_9allocatorIcEEED0Ev DATA
 0002:0001530c 00000008H .xdata$_ZNSt3__115basic_stringbufIcNS_11char_traitsIcEENS_9allocatorIcEEE7seekposB6v15007ENS_4fposI9_MbstatetEEj DATA
 0002:00015314 0000000cH .xdata$_ZNSt3__118basic_stringstreamIcNS_11char_traitsIcEENS_9allocatorIcEEED1Ev DATA
 0002:00015320 0000000cH .xdata$_ZNSt3__118basic_stringstreamIcNS_11char_traitsIcEENS_9allocatorIcEEED0Ev DATA
 0002:0001532c 0000000cH .xdata$_ZThn16_NSt3__118basic_stringstreamIcNS_11char_traitsIcEENS_9allocatorIcEEED1Ev DATA
 0002:00015338 0000000cH .xdata$_ZThn16_NSt3__118basic_stringstreamIcNS_11char_traitsIcEENS_9allocatorIcEEED0Ev DATA
 0002:00015344 0000000cH .xdata$_ZTv0_n24_NSt3__118basic_stringstreamIcNS_11char_traitsIcEENS_9allocatorIcEEED1Ev DATA
 0002:00015350 0000000cH .xdata$_ZTv0_n24_NSt3__118basic_stringstreamIcNS_11char_traitsIcEENS_9allocatorIcEEED0Ev DATA
 0002:0001535c 0000000cH .xdata$_ZNSt3__119basic_ostringstreamIcNS_11char_traitsIcEENS_9allocatorIcEEED1Ev DATA
 0002:00015368 0000000cH .xdata$_ZNSt3__119basic_ostringstreamIcNS_11char_traitsIcEENS_9allocatorIcEEED0Ev DATA
 0002:00015374 0000000cH .xdata$_ZTv0_n24_NSt3__119basic_ostringstreamIcNS_11char_traitsIcEENS_9allocatorIcEEED1Ev DATA
 0002:00015380 0000000cH .xdata$_ZTv0_n24_NSt3__119basic_ostringstreamIcNS_11char_traitsIcEENS_9allocatorIcEEED0Ev DATA
 0002:0001538c 0000000cH .xdata$_ZNSt3__119basic_istringstreamIcNS_11char_traitsIcEENS_9allocatorIcEEED1Ev DATA
 0002:00015398 0000000cH .xdata$_ZNSt3__119basic_istringstreamIcNS_11char_traitsIcEENS_9allocatorIcEEED0Ev DATA
 0002:000153a4 0000000cH .xdata$_ZTv0_n24_NSt3__119basic_istringstreamIcNS_11char_traitsIcEENS_9allocatorIcEEED1Ev DATA
 0002:000153b0 0000000cH .xdata$_ZTv0_n24_NSt3__119basic_istringstreamIcNS_11char_traitsIcEENS_9allocatorIcEEED0Ev DATA
 0002:000153bc 00000008H .xdata$_ZNSt3__114basic_ifstreamIcNS_11char_traitsIcEEED1Ev DATA
 0002:000153c4 0000000cH .xdata$_ZNSt3__114basic_ifstreamIcNS_11char_traitsIcEEED0Ev DATA
 0002:000153d0 00000008H .xdata$_ZTv0_n24_NSt3__114basic_ifstreamIcNS_11char_traitsIcEEED1Ev DATA
 0002:000153d8 0000000cH .xdata$_ZTv0_n24_NSt3__114basic_ifstreamIcNS_11char_traitsIcEEED0Ev DATA
 0002:000153e4 00000008H .xdata$_ZNSt3__114basic_ofstreamIcNS_11char_traitsIcEEED1Ev DATA
 0002:000153ec 0000000cH .xdata$_ZNSt3__114basic_ofstreamIcNS_11char_traitsIcEEED0Ev DATA
 0002:000153f8 00000008H .xdata$_ZTv0_n24_NSt3__114basic_ofstreamIcNS_11char_traitsIcEEED1Ev DATA
 0002:00015400 0000000cH .xdata$_ZTv0_n24_NSt3__114basic_ofstreamIcNS_11char_traitsIcEEED0Ev DATA
 0002:0001540c 000000d8H .xdata$_ZNSt3__19DoIOSInitC2Ev DATA
 0002:000154e4 00000020H .xdata$_ZNSt3__19DoIOSInitD2Ev DATA
 0002:00015504 00000018H .xdata$_ZNSt3__18ios_base4InitC2Ev DATA
 0002:0001551c 00000020H .xdata$__dtor__ZZNSt3__18ios_base4InitC1EvE16init_the_streams DATA
 0002:0001553c 00000018H .xdata$_GLOBAL__I_000100 DATA
 0002:00015554 000000d8H .xdata$_ZNSt3__19DoIOSInitC2Ev DATA
 0002:0001562c 00000020H .xdata$_ZNSt3__19DoIOSInitD2Ev DATA
 0002:0001564c 00000018H .xdata$_ZNSt3__18ios_base4InitC2Ev DATA
 0002:00015664 00000020H .xdata$__dtor__ZZNSt3__18ios_base4InitC1EvE16init_the_streams DATA
 0002:00015684 0000000cH .xdata$_ZNSt3__121__libcpp_locale_guardC2E8locale_t DATA
 0002:00015690 00000008H .xdata$_ZN15__lconv_storageD2Ev DATA
 0002:00015698 00000008H .xdata$_ZNSt3__110__stdinbufIcED0Ev DATA
 0002:000156a0 00000008H .xdata$_ZNSt3__110__stdinbufIcE5imbueERKNS_6localeE DATA
 0002:000156a8 0000000cH .xdata$_ZNSt3__110__stdinbufIcE9pbackfailEi DATA
 0002:000156b4 00000018H .xdata$_ZNSt3__110__stdinbufIcE9__getcharEb DATA
 0002:000156cc 00000008H .xdata$_ZNSt3__111__stdoutbufIcED0Ev DATA
 0002:000156d4 0000000cH .xdata$_ZNSt3__111__stdoutbufIcE5imbueERKNS_6localeE DATA
 0002:000156e0 00000014H .xdata$_ZNSt3__111__stdoutbufIcE4syncEv DATA
 0002:000156f4 00000010H .xdata$_ZNSt3__111__stdoutbufIcE6xsputnEPKcx DATA
 0002:00015704 00000018H .xdata$_ZNSt3__111__stdoutbufIcE8overflowEi DATA
 0002:0001571c 00000008H .xdata$_ZNSt3__110__stdinbufIwED0Ev DATA
 0002:00015724 00000008H .xdata$_ZNSt3__110__stdinbufIwE5imbueERKNS_6localeE DATA
 0002:0001572c 0000000cH .xdata$_ZNSt3__110__stdinbufIwE9pbackfailEt DATA
 0002:00015738 00000018H .xdata$_ZNSt3__110__stdinbufIwE9__getcharEb DATA
 0002:00015750 00000008H .xdata$_ZNSt3__111__stdoutbufIwED0Ev DATA
 0002:00015758 0000000cH .xdata$_ZNSt3__111__stdoutbufIwE5imbueERKNS_6localeE DATA
 0002:00015764 00000014H .xdata$_ZNSt3__111__stdoutbufIwE4syncEv DATA
 0002:00015778 00000010H .xdata$_ZNSt3__111__stdoutbufIwE6xsputnEPKwx DATA
 0002:00015788 00000018H .xdata$_ZNSt3__111__stdoutbufIwE8overflowEt DATA
 0002:000157a0 00000018H .xdata$_GLOBAL__I_000100 DATA
 0002:000157b8 0000005cH .xdata$_ZNKSt3__17num_getIcNS_19istreambuf_iteratorIcNS_11char_traitsIcEEEEE6do_getES4_S4_RNS_8ios_baseERjRb DATA
 0002:00015814 00000044H .xdata$_ZNSt3__114__scan_keywordINS_19istreambuf_iteratorIcNS_11char_traitsIcEEEEPKNS_12basic_stringIcS3_NS_9allocatorIcEEEENS_5ctypeIcEEEET0_RT_SE_SD_SD_RKT1_Rjb DATA
 0002:00015858 0000004cH .xdata$_ZNKSt3__17num_getIcNS_19istreambuf_iteratorIcNS_11char_traitsIcEEEEE15__do_get_signedIlEES4_S4_S4_RNS_8ios_baseERjRT_ DATA
 0002:000158a4 0000004cH .xdata$_ZNKSt3__17num_getIcNS_19istreambuf_iteratorIcNS_11char_traitsIcEEEEE15__do_get_signedIxEES4_S4_S4_RNS_8ios_baseERjRT_ DATA
 0002:000158f0 0000004cH .xdata$_ZNKSt3__17num_getIcNS_19istreambuf_iteratorIcNS_11char_traitsIcEEEEE17__do_get_unsignedItEES4_S4_S4_RNS_8ios_baseERjRT_ DATA
 0002:0001593c 0000004cH .xdata$_ZNKSt3__17num_getIcNS_19istreambuf_iteratorIcNS_11char_traitsIcEEEEE17__do_get_unsignedIjEES4_S4_S4_RNS_8ios_baseERjRT_ DATA
 0002:00015988 0000004cH .xdata$_ZNKSt3__17num_getIcNS_19istreambuf_iteratorIcNS_11char_traitsIcEEEEE17__do_get_unsignedImEES4_S4_S4_RNS_8ios_baseERjRT_ DATA
 0002:000159d4 0000004cH .xdata$_ZNKSt3__17num_getIcNS_19istreambuf_iteratorIcNS_11char_traitsIcEEEEE17__do_get_unsignedIyEES4_S4_S4_RNS_8ios_baseERjRT_ DATA
 0002:00015a20 0000004cH .xdata$_ZNKSt3__17num_getIcNS_19istreambuf_iteratorIcNS_11char_traitsIcEEEEE23__do_get_floating_pointIfEES4_S4_S4_RNS_8ios_baseERjRT_ DATA
 0002:00015a6c 0000004cH .xdata$_ZNKSt3__17num_getIcNS_19istreambuf_iteratorIcNS_11char_traitsIcEEEEE23__do_get_floating_pointIdEES4_S4_S4_RNS_8ios_baseERjRT_ DATA
 0002:00015ab8 0000004cH .xdata$_ZNKSt3__17num_getIcNS_19istreambuf_iteratorIcNS_11char_traitsIcEEEEE23__do_get_floating_pointIeEES4_S4_S4_RNS_8ios_baseERjRT_ DATA
 0002:00015b04 0000006cH .xdata$_ZNKSt3__17num_getIcNS_19istreambuf_iteratorIcNS_11char_traitsIcEEEEE6do_getES4_S4_RNS_8ios_baseERjRPv DATA
 0002:00015b70 0000001cH .xdata$_ZNSt3__16__clocEv DATA
 0002:00015b8c 0000005cH .xdata$_ZNKSt3__17num_getIwNS_19istreambuf_iteratorIwNS_11char_traitsIwEEEEE6do_getES4_S4_RNS_8ios_baseERjRb DATA
 0002:00015be8 00000044H .xdata$_ZNSt3__114__scan_keywordINS_19istreambuf_iteratorIwNS_11char_traitsIwEEEEPKNS_12basic_stringIwS3_NS_9allocatorIwEEEENS_5ctypeIwEEEET0_RT_SE_SD_SD_RKT1_Rjb DATA
 0002:00015c2c 0000004cH .xdata$_ZNKSt3__17num_getIwNS_19istreambuf_iteratorIwNS_11char_traitsIwEEEEE15__do_get_signedIlEES4_S4_S4_RNS_8ios_baseERjRT_ DATA
 0002:00015c78 0000004cH .xdata$_ZNKSt3__17num_getIwNS_19istreambuf_iteratorIwNS_11char_traitsIwEEEEE15__do_get_signedIxEES4_S4_S4_RNS_8ios_baseERjRT_ DATA
 0002:00015cc4 0000004cH .xdata$_ZNKSt3__17num_getIwNS_19istreambuf_iteratorIwNS_11char_traitsIwEEEEE17__do_get_unsignedItEES4_S4_S4_RNS_8ios_baseERjRT_ DATA
 0002:00015d10 0000004cH .xdata$_ZNKSt3__17num_getIwNS_19istreambuf_iteratorIwNS_11char_traitsIwEEEEE17__do_get_unsignedIjEES4_S4_S4_RNS_8ios_baseERjRT_ DATA
 0002:00015d5c 0000004cH .xdata$_ZNKSt3__17num_getIwNS_19istreambuf_iteratorIwNS_11char_traitsIwEEEEE17__do_get_unsignedImEES4_S4_S4_RNS_8ios_baseERjRT_ DATA
 0002:00015da8 0000004cH .xdata$_ZNKSt3__17num_getIwNS_19istreambuf_iteratorIwNS_11char_traitsIwEEEEE17__do_get_unsignedIyEES4_S4_S4_RNS_8ios_baseERjRT_ DATA
 0002:00015df4 0000004cH .xdata$_ZNKSt3__17num_getIwNS_19istreambuf_iteratorIwNS_11char_traitsIwEEEEE23__do_get_floating_pointIfEES4_S4_S4_RNS_8ios_baseERjRT_ DATA
 0002:00015e40 0000004cH .xdata$_ZNKSt3__17num_getIwNS_19istreambuf_iteratorIwNS_11char_traitsIwEEEEE23__do_get_floating_pointIdEES4_S4_S4_RNS_8ios_baseERjRT_ DATA
 0002:00015e8c 0000004cH .xdata$_ZNKSt3__17num_getIwNS_19istreambuf_iteratorIwNS_11char_traitsIwEEEEE23__do_get_floating_pointIeEES4_S4_S4_RNS_8ios_baseERjRT_ DATA
 0002:00015ed8 0000006cH .xdata$_ZNKSt3__17num_getIwNS_19istreambuf_iteratorIwNS_11char_traitsIwEEEEE6do_getES4_S4_RNS_8ios_baseERjRPv DATA
 0002:00015f44 00000040H .xdata$_ZNSt3__19__num_getIcE19__stage2_float_prepERNS_8ios_baseEPcRcS5_ DATA
 0002:00015f84 00000040H .xdata$_ZNSt3__19__num_getIcE17__stage2_int_prepERNS_8ios_baseEPcRc DATA
 0002:00015fc4 00000040H .xdata$_ZNSt3__19__num_getIwE19__stage2_float_prepERNS_8ios_baseEPwRwS5_ DATA
 0002:00016004 00000040H .xdata$_ZNSt3__19__num_getIwE17__stage2_int_prepERNS_8ios_baseEPwRw DATA
 0002:00016044 0000003cH .xdata$_ZNKSt3__17num_putIcNS_19ostreambuf_iteratorIcNS_11char_traitsIcEEEEE6do_putES4_RNS_8ios_baseEcb DATA
 0002:00016080 00000040H .xdata$_ZNKSt3__17num_putIcNS_19ostreambuf_iteratorIcNS_11char_traitsIcEEEEE17__do_put_integralB6v15007IlEES4_S4_RNS_8ios_baseEcT_PKc DATA
 0002:000160c0 00000040H .xdata$_ZNKSt3__17num_putIcNS_19ostreambuf_iteratorIcNS_11char_traitsIcEEEEE17__do_put_integralB6v15007IxEES4_S4_RNS_8ios_baseEcT_PKc DATA
 0002:00016100 00000040H .xdata$_ZNKSt3__17num_putIcNS_19ostreambuf_iteratorIcNS_11char_traitsIcEEEEE17__do_put_integralB6v15007ImEES4_S4_RNS_8ios_baseEcT_PKc DATA
 0002:00016140 00000040H .xdata$_ZNKSt3__17num_putIcNS_19ostreambuf_iteratorIcNS_11char_traitsIcEEEEE17__do_put_integralB6v15007IyEES4_S4_RNS_8ios_baseEcT_PKc DATA
 0002:00016180 00000074H .xdata$_ZNKSt3__17num_putIcNS_19ostreambuf_iteratorIcNS_11char_traitsIcEEEEE23__do_put_floating_pointB6v15007IdEES4_S4_RNS_8ios_baseEcT_PKc DATA
 0002:000161f4 00000074H .xdata$_ZNKSt3__17num_putIcNS_19ostreambuf_iteratorIcNS_11char_traitsIcEEEEE23__do_put_floating_pointB6v15007IeEES4_S4_RNS_8ios_baseEcT_PKc DATA
 0002:00016268 00000048H .xdata$_ZNKSt3__17num_putIcNS_19ostreambuf_iteratorIcNS_11char_traitsIcEEEEE6do_putES4_RNS_8ios_baseEcPKv DATA
 0002:000162b0 00000030H .xdata$_ZNSt3__116__pad_and_outputIcNS_11char_traitsIcEEEENS_19ostreambuf_iteratorIT_T0_EES6_PKS4_S8_S8_RNS_8ios_baseES4_ DATA
 0002:000162e0 0000003cH .xdata$_ZNKSt3__17num_putIwNS_19ostreambuf_iteratorIwNS_11char_traitsIwEEEEE6do_putES4_RNS_8ios_baseEwb DATA
 0002:0001631c 00000040H .xdata$_ZNKSt3__17num_putIwNS_19ostreambuf_iteratorIwNS_11char_traitsIwEEEEE17__do_put_integralB6v15007IlEES4_S4_RNS_8ios_baseEwT_PKc DATA
 0002:0001635c 00000040H .xdata$_ZNKSt3__17num_putIwNS_19ostreambuf_iteratorIwNS_11char_traitsIwEEEEE17__do_put_integralB6v15007IxEES4_S4_RNS_8ios_baseEwT_PKc DATA
 0002:0001639c 00000040H .xdata$_ZNKSt3__17num_putIwNS_19ostreambuf_iteratorIwNS_11char_traitsIwEEEEE17__do_put_integralB6v15007ImEES4_S4_RNS_8ios_baseEwT_PKc DATA
 0002:000163dc 00000040H .xdata$_ZNKSt3__17num_putIwNS_19ostreambuf_iteratorIwNS_11char_traitsIwEEEEE17__do_put_integralB6v15007IyEES4_S4_RNS_8ios_baseEwT_PKc DATA
 0002:0001641c 00000074H .xdata$_ZNKSt3__17num_putIwNS_19ostreambuf_iteratorIwNS_11char_traitsIwEEEEE23__do_put_floating_pointB6v15007IdEES4_S4_RNS_8ios_baseEwT_PKc DATA
 0002:00016490 00000074H .xdata$_ZNKSt3__17num_putIwNS_19ostreambuf_iteratorIwNS_11char_traitsIwEEEEE23__do_put_floating_pointB6v15007IeEES4_S4_RNS_8ios_baseEwT_PKc DATA
 0002:00016504 00000048H .xdata$_ZNKSt3__17num_putIwNS_19ostreambuf_iteratorIwNS_11char_traitsIwEEEEE6do_putES4_RNS_8ios_baseEwPKv DATA
 0002:0001654c 00000034H .xdata$_ZNSt3__116__pad_and_outputIwNS_11char_traitsIwEEEENS_19ostreambuf_iteratorIT_T0_EES6_PKS4_S8_S8_RNS_8ios_baseES4_ DATA
 0002:00016580 00000044H .xdata$_ZNSt3__19__num_putIcE21__widen_and_group_intEPcS2_S2_S2_RS2_S3_RKNS_6localeE DATA
 0002:000165c4 000000a4H .xdata$_ZNSt3__19__num_putIcE23__widen_and_group_floatEPcS2_S2_S2_RS2_S3_RKNS_6localeE DATA
 0002:00016668 00000044H .xdata$_ZNSt3__19__num_putIwE21__widen_and_group_intEPcS2_S2_PwRS3_S4_RKNS_6localeE DATA
 0002:000166ac 000000acH .xdata$_ZNSt3__19__num_putIwE23__widen_and_group_floatEPcS2_S2_PwRS3_S4_RKNS_6localeE DATA
 0002:00016758 0000003cH .xdata$_ZNKSt3__18time_getIcNS_19istreambuf_iteratorIcNS_11char_traitsIcEEEEE3getES4_S4_RNS_8ios_baseERjP2tmPKcSC_ DATA
 0002:00016794 00000034H .xdata$_ZNKSt3__18time_getIcNS_19istreambuf_iteratorIcNS_11char_traitsIcEEEEE14do_get_weekdayES4_S4_RNS_8ios_baseERjP2tm DATA
 0002:000167c8 00000034H .xdata$_ZNKSt3__18time_getIcNS_19istreambuf_iteratorIcNS_11char_traitsIcEEEEE16do_get_monthnameES4_S4_RNS_8ios_baseERjP2tm DATA
 0002:000167fc 00000030H .xdata$_ZNKSt3__18time_getIcNS_19istreambuf_iteratorIcNS_11char_traitsIcEEEEE11do_get_yearES4_S4_RNS_8ios_baseERjP2tm DATA
 0002:0001682c 00000038H .xdata$_ZNKSt3__18time_getIcNS_19istreambuf_iteratorIcNS_11char_traitsIcEEEEE6do_getES4_S4_RNS_8ios_baseERjP2tmcc DATA
 0002:00016864 0000003cH .xdata$_ZNKSt3__18time_getIwNS_19istreambuf_iteratorIwNS_11char_traitsIwEEEEE3getES4_S4_RNS_8ios_baseERjP2tmPKwSC_ DATA
 0002:000168a0 00000034H .xdata$_ZNKSt3__18time_getIwNS_19istreambuf_iteratorIwNS_11char_traitsIwEEEEE14do_get_weekdayES4_S4_RNS_8ios_baseERjP2tm DATA
 0002:000168d4 00000034H .xdata$_ZNKSt3__18time_getIwNS_19istreambuf_iteratorIwNS_11char_traitsIwEEEEE16do_get_monthnameES4_S4_RNS_8ios_baseERjP2tm DATA
 0002:00016908 00000030H .xdata$_ZNKSt3__18time_getIwNS_19istreambuf_iteratorIwNS_11char_traitsIwEEEEE11do_get_yearES4_S4_RNS_8ios_baseERjP2tm DATA
 0002:00016938 00000038H .xdata$_ZNKSt3__18time_getIwNS_19istreambuf_iteratorIwNS_11char_traitsIwEEEEE6do_getES4_S4_RNS_8ios_baseERjP2tmcc DATA
 0002:00016970 0000003cH .xdata$_ZNKSt3__18time_putIcNS_19ostreambuf_iteratorIcNS_11char_traitsIcEEEEE3putES4_RNS_8ios_baseEcPK2tmPKcSC_ DATA
 0002:000169ac 0000003cH .xdata$_ZNKSt3__18time_putIwNS_19ostreambuf_iteratorIwNS_11char_traitsIwEEEEE3putES4_RNS_8ios_baseEwPK2tmPKwSC_ DATA
 0002:000169e8 00000028H .xdata$_ZNKSt3__110__time_put8__do_putEPwRS1_PK2tmcc DATA
 0002:00016a10 00000074H .xdata$_ZNKSt3__19money_getIcNS_19istreambuf_iteratorIcNS_11char_traitsIcEEEEE6do_getES4_S4_bRNS_8ios_baseERjRe DATA
 0002:00016a84 000000bcH .xdata$_ZNSt3__19money_getIcNS_19istreambuf_iteratorIcNS_11char_traitsIcEEEEE8__do_getERS4_S4_bRKNS_6localeEjRjRbRKNS_5ctypeIcEERNS_10unique_ptrIcPFvPvEEERPcSM_ DATA
 0002:00016b40 00000020H .xdata$_ZNSt3__121__throw_runtime_errorEPKc DATA
 0002:00016b60 0000006cH .xdata$_ZNKSt3__19money_getIcNS_19istreambuf_iteratorIcNS_11char_traitsIcEEEEE6do_getES4_S4_bRNS_8ios_baseERjRNS_12basic_stringIcS3_NS_9allocatorIcEEEE DATA
 0002:00016bcc 00000034H .xdata$_ZNSt3__112basic_stringIcNS_11char_traitsIcEENS_9allocatorIcEEE6appendB6v15007IPcEENS_9enable_ifIXsr27__is_cpp17_forward_iteratorIT_EE5valueERS5_E4typeES9_S9_ DATA
 0002:00016c00 00000074H .xdata$_ZNKSt3__19money_getIwNS_19istreambuf_iteratorIwNS_11char_traitsIwEEEEE6do_getES4_S4_bRNS_8ios_baseERjRe DATA
 0002:00016c74 000000c4H .xdata$_ZNSt3__19money_getIwNS_19istreambuf_iteratorIwNS_11char_traitsIwEEEEE8__do_getERS4_S4_bRKNS_6localeEjRjRbRKNS_5ctypeIwEERNS_10unique_ptrIwPFvPvEEERPwSM_ DATA
 0002:00016d38 0000006cH .xdata$_ZNKSt3__19money_getIwNS_19istreambuf_iteratorIwNS_11char_traitsIwEEEEE6do_getES4_S4_bRNS_8ios_baseERjRNS_12basic_stringIwS3_NS_9allocatorIwEEEE DATA
 0002:00016da4 00000034H .xdata$_ZNSt3__112basic_stringIwNS_11char_traitsIwEENS_9allocatorIwEEE6appendB6v15007IPwEENS_9enable_ifIXsr27__is_cpp17_forward_iteratorIT_EE5valueERS5_E4typeES9_S9_ DATA
 0002:00016dd8 00000068H .xdata$_ZNKSt3__19money_putIcNS_19ostreambuf_iteratorIcNS_11char_traitsIcEEEEE6do_putES4_bRNS_8ios_baseEce DATA
 0002:00016e40 00000058H .xdata$_ZNKSt3__19money_putIcNS_19ostreambuf_iteratorIcNS_11char_traitsIcEEEEE6do_putES4_bRNS_8ios_baseEcRKNS_12basic_stringIcS3_NS_9allocatorIcEEEE DATA
 0002:00016e98 00000068H .xdata$_ZNKSt3__19money_putIwNS_19ostreambuf_iteratorIwNS_11char_traitsIwEEEEE6do_putES4_bRNS_8ios_baseEwe DATA
 0002:00016f00 00000058H .xdata$_ZNKSt3__19money_putIwNS_19ostreambuf_iteratorIwNS_11char_traitsIwEEEEE6do_putES4_bRNS_8ios_baseEwRKNS_12basic_stringIwS3_NS_9allocatorIwEEEE DATA
 0002:00016f58 00000060H .xdata$_ZNSt3__16locale5__impC2Ey DATA
 0002:00016fb8 00000028H .xdata$_ZNSt3__16locale5__imp7installINS_7collateIcEEEEvPT_ DATA
 0002:00016fe0 00000028H .xdata$_ZNSt3__16locale5__imp7installINS_7collateIwEEEEvPT_ DATA
 0002:00017008 00000028H .xdata$_ZNSt3__16locale5__imp7installINS_5ctypeIcEEEEvPT_ DATA
 0002:00017030 00000028H .xdata$_ZNSt3__16locale5__imp7installINS_5ctypeIwEEEEvPT_ DATA
 0002:00017058 00000028H .xdata$_ZNSt3__16locale5__imp7installINS_7codecvtIcc9_MbstatetEEEEvPT_ DATA
 0002:00017080 00000028H .xdata$_ZNSt3__16locale5__imp7installINS_7codecvtIwc9_MbstatetEEEEvPT_ DATA
 0002:000170a8 00000028H .xdata$_ZNSt3__16locale5__imp7installINS_7codecvtIDsc9_MbstatetEEEEvPT_ DATA
 0002:000170d0 00000028H .xdata$_ZNSt3__16locale5__imp7installINS_7codecvtIDic9_MbstatetEEEEvPT_ DATA
 0002:000170f8 00000028H .xdata$_ZNSt3__16locale5__imp7installINS_7codecvtIDsDu9_MbstatetEEEEvPT_ DATA
 0002:00017120 00000028H .xdata$_ZNSt3__16locale5__imp7installINS_7codecvtIDiDu9_MbstatetEEEEvPT_ DATA
 0002:00017148 00000028H .xdata$_ZNSt3__16locale5__imp7installINS_8numpunctIcEEEEvPT_ DATA
 0002:00017170 00000028H .xdata$_ZNSt3__16locale5__imp7installINS_8numpunctIwEEEEvPT_ DATA
 0002:00017198 00000028H .xdata$_ZNSt3__16locale5__imp7installINS_7num_getIcNS_19istreambuf_iteratorIcNS_11char_traitsIcEEEEEEEEvPT_ DATA
 0002:000171c0 00000028H .xdata$_ZNSt3__16locale5__imp7installINS_7num_getIwNS_19istreambuf_iteratorIwNS_11char_traitsIwEEEEEEEEvPT_ DATA
 0002:000171e8 00000028H .xdata$_ZNSt3__16locale5__imp7installINS_7num_putIcNS_19ostreambuf_iteratorIcNS_11char_traitsIcEEEEEEEEvPT_ DATA
 0002:00017210 00000028H .xdata$_ZNSt3__16locale5__imp7installINS_7num_putIwNS_19ostreambuf_iteratorIwNS_11char_traitsIwEEEEEEEEvPT_ DATA
 0002:00017238 00000028H .xdata$_ZNSt3__16locale5__imp7installINS_10moneypunctIcLb0EEEEEvPT_ DATA
 0002:00017260 00000028H .xdata$_ZNSt3__16locale5__imp7installINS_10moneypunctIcLb1EEEEEvPT_ DATA
 0002:00017288 00000028H .xdata$_ZNSt3__16locale5__imp7installINS_10moneypunctIwLb0EEEEEvPT_ DATA
 0002:000172b0 00000028H .xdata$_ZNSt3__16locale5__imp7installINS_10moneypunctIwLb1EEEEEvPT_ DATA
 0002:000172d8 00000028H .xdata$_ZNSt3__16locale5__imp7installINS_9money_getIcNS_19istreambuf_iteratorIcNS_11char_traitsIcEEEEEEEEvPT_ DATA
 0002:00017300 00000028H .xdata$_ZNSt3__16locale5__imp7installINS_9money_getIwNS_19istreambuf_iteratorIwNS_11char_traitsIwEEEEEEEEvPT_ DATA
 0002:00017328 00000028H .xdata$_ZNSt3__16locale5__imp7installINS_9money_putIcNS_19ostreambuf_iteratorIcNS_11char_traitsIcEEEEEEEEvPT_ DATA
 0002:00017350 00000028H .xdata$_ZNSt3__16locale5__imp7installINS_9money_putIwNS_19ostreambuf_iteratorIwNS_11char_traitsIwEEEEEEEEvPT_ DATA
 0002:00017378 00000028H .xdata$_ZNSt3__16locale5__imp7installINS_8time_getIcNS_19istreambuf_iteratorIcNS_11char_traitsIcEEEEEEEEvPT_ DATA
 0002:000173a0 00000028H .xdata$_ZNSt3__16locale5__imp7installINS_8time_getIwNS_19istreambuf_iteratorIwNS_11char_traitsIwEEEEEEEEvPT_ DATA
 0002:000173c8 00000028H .xdata$_ZNSt3__16locale5__imp7installINS_8time_putIcNS_19ostreambuf_iteratorIcNS_11char_traitsIcEEEEEEEEvPT_ DATA
 0002:000173f0 00000028H .xdata$_ZNSt3__16locale5__imp7installINS_8time_putIwNS_19ostreambuf_iteratorIwNS_11char_traitsIwEEEEEEEEvPT_ DATA
 0002:00017418 00000028H .xdata$_ZNSt3__16locale5__imp7installINS_8messagesIcEEEEvPT_ DATA
 0002:00017440 00000028H .xdata$_ZNSt3__16locale5__imp7installINS_8messagesIwEEEEvPT_ DATA
 0002:00017468 00000118H .xdata$_ZNSt3__16locale5__impC2ERKNS_12basic_stringIcNS_11char_traitsIcEENS_9allocatorIcEEEEy DATA
 0002:00017580 00000018H .xdata$_ZNSt3__16locale7classicEv DATA
 0002:00017598 00000028H .xdata$_ZNSt3__16locale5__imp7installINS_14collate_bynameIcEEEEvPT_ DATA
 0002:000175c0 00000028H .xdata$_ZNSt3__16locale5__imp7installINS_14collate_bynameIwEEEEvPT_ DATA
 0002:000175e8 00000028H .xdata$_ZNSt3__16locale5__imp7installINS_12ctype_bynameIcEEEEvPT_ DATA
 0002:00017610 00000028H .xdata$_ZNSt3__16locale5__imp7installINS_12ctype_bynameIwEEEEvPT_ DATA
 0002:00017638 00000028H .xdata$_ZNSt3__16locale5__imp7installINS_14codecvt_bynameIcc9_MbstatetEEEEvPT_ DATA
 0002:00017660 00000028H .xdata$_ZNSt3__16locale5__imp7installINS_14codecvt_bynameIwc9_MbstatetEEEEvPT_ DATA
 0002:00017688 00000028H .xdata$_ZNSt3__16locale5__imp7installINS_14codecvt_bynameIDsc9_MbstatetEEEEvPT_ DATA
 0002:000176b0 00000028H .xdata$_ZNSt3__16locale5__imp7installINS_14codecvt_bynameIDic9_MbstatetEEEEvPT_ DATA
 0002:000176d8 00000028H .xdata$_ZNSt3__16locale5__imp7installINS_14codecvt_bynameIDsDu9_MbstatetEEEEvPT_ DATA
 0002:00017700 00000028H .xdata$_ZNSt3__16locale5__imp7installINS_14codecvt_bynameIDiDu9_MbstatetEEEEvPT_ DATA
 0002:00017728 00000028H .xdata$_ZNSt3__16locale5__imp7installINS_15numpunct_bynameIcEEEEvPT_ DATA
 0002:00017750 00000028H .xdata$_ZNSt3__16locale5__imp7installINS_15numpunct_bynameIwEEEEvPT_ DATA
 0002:00017778 00000028H .xdata$_ZNSt3__16locale5__imp7installINS_17moneypunct_bynameIcLb0EEEEEvPT_ DATA
 0002:000177a0 0000001cH .xdata$_ZNSt3__117moneypunct_bynameIcLb0EEC2B6v15007ERKNS_12basic_stringIcNS_11char_traitsIcEENS_9allocatorIcEEEEy DATA
 0002:000177bc 00000028H .xdata$_ZNSt3__16locale5__imp7installINS_17moneypunct_bynameIcLb1EEEEEvPT_ DATA
 0002:000177e4 0000001cH .xdata$_ZNSt3__117moneypunct_bynameIcLb1EEC2B6v15007ERKNS_12basic_stringIcNS_11char_traitsIcEENS_9allocatorIcEEEEy DATA
 0002:00017800 00000028H .xdata$_ZNSt3__16locale5__imp7installINS_17moneypunct_bynameIwLb0EEEEEvPT_ DATA
 0002:00017828 0000001cH .xdata$_ZNSt3__117moneypunct_bynameIwLb0EEC2B6v15007ERKNS_12basic_stringIcNS_11char_traitsIcEENS_9allocatorIcEEEEy DATA
 0002:00017844 00000028H .xdata$_ZNSt3__16locale5__imp7installINS_17moneypunct_bynameIwLb1EEEEEvPT_ DATA
 0002:0001786c 0000001cH .xdata$_ZNSt3__117moneypunct_bynameIwLb1EEC2B6v15007ERKNS_12basic_stringIcNS_11char_traitsIcEENS_9allocatorIcEEEEy DATA
 0002:00017888 00000028H .xdata$_ZNSt3__16locale5__imp7installINS_15time_get_bynameIcNS_19istreambuf_iteratorIcNS_11char_traitsIcEEEEEEEEvPT_ DATA
 0002:000178b0 00000028H .xdata$_ZNSt3__16locale5__imp7installINS_15time_get_bynameIwNS_19istreambuf_iteratorIwNS_11char_traitsIwEEEEEEEEvPT_ DATA
 0002:000178d8 00000028H .xdata$_ZNSt3__16locale5__imp7installINS_15time_put_bynameIcNS_19ostreambuf_iteratorIcNS_11char_traitsIcEEEEEEEEvPT_ DATA
 0002:00017900 00000028H .xdata$_ZNSt3__16locale5__imp7installINS_15time_put_bynameIwNS_19ostreambuf_iteratorIwNS_11char_traitsIwEEEEEEEEvPT_ DATA
 0002:00017928 00000028H .xdata$_ZNSt3__16locale5__imp7installINS_15messages_bynameIcEEEEvPT_ DATA
 0002:00017950 00000028H .xdata$_ZNSt3__16locale5__imp7installINS_15messages_bynameIwEEEEvPT_ DATA
 0002:00017978 0000004cH .xdata$_ZNSt3__16locale5__impC2ERKS1_ DATA
 0002:000179c4 00000108H .xdata$_ZNSt3__16locale5__impC2ERKS1_RKNS_12basic_stringIcNS_11char_traitsIcEENS_9allocatorIcEEEEi DATA
 0002:00017acc 00000050H .xdata$_ZNSt3__16locale5__impC2ERKS1_S3_i DATA
 0002:00017b1c 00000028H .xdata$_ZNSt3__16locale5__imp12install_fromINS_7collateIcEEEEvRKS1_ DATA
 0002:00017b44 00000028H .xdata$_ZNSt3__16locale5__imp12install_fromINS_7collateIwEEEEvRKS1_ DATA
 0002:00017b6c 00000028H .xdata$_ZNSt3__16locale5__imp12install_fromINS_5ctypeIcEEEEvRKS1_ DATA
 0002:00017b94 00000028H .xdata$_ZNSt3__16locale5__imp12install_fromINS_5ctypeIwEEEEvRKS1_ DATA
 0002:00017bbc 00000028H .xdata$_ZNSt3__16locale5__imp12install_fromINS_7codecvtIcc9_MbstatetEEEEvRKS1_ DATA
 0002:00017be4 00000028H .xdata$_ZNSt3__16locale5__imp12install_fromINS_7codecvtIDsc9_MbstatetEEEEvRKS1_ DATA
 0002:00017c0c 00000028H .xdata$_ZNSt3__16locale5__imp12install_fromINS_7codecvtIDic9_MbstatetEEEEvRKS1_ DATA
 0002:00017c34 00000028H .xdata$_ZNSt3__16locale5__imp12install_fromINS_7codecvtIDsDu9_MbstatetEEEEvRKS1_ DATA
 0002:00017c5c 00000028H .xdata$_ZNSt3__16locale5__imp12install_fromINS_7codecvtIDiDu9_MbstatetEEEEvRKS1_ DATA
 0002:00017c84 00000028H .xdata$_ZNSt3__16locale5__imp12install_fromINS_7codecvtIwc9_MbstatetEEEEvRKS1_ DATA
 0002:00017cac 00000028H .xdata$_ZNSt3__16locale5__imp12install_fromINS_10moneypunctIcLb0EEEEEvRKS1_ DATA
 0002:00017cd4 00000028H .xdata$_ZNSt3__16locale5__imp12install_fromINS_10moneypunctIcLb1EEEEEvRKS1_ DATA
 0002:00017cfc 00000028H .xdata$_ZNSt3__16locale5__imp12install_fromINS_10moneypunctIwLb0EEEEEvRKS1_ DATA
 0002:00017d24 00000028H .xdata$_ZNSt3__16locale5__imp12install_fromINS_10moneypunctIwLb1EEEEEvRKS1_ DATA
 0002:00017d4c 00000028H .xdata$_ZNSt3__16locale5__imp12install_fromINS_9money_getIcNS_19istreambuf_iteratorIcNS_11char_traitsIcEEEEEEEEvRKS1_ DATA
 0002:00017d74 00000028H .xdata$_ZNSt3__16locale5__imp12install_fromINS_9money_getIwNS_19istreambuf_iteratorIwNS_11char_traitsIwEEEEEEEEvRKS1_ DATA
 0002:00017d9c 00000028H .xdata$_ZNSt3__16locale5__imp12install_fromINS_9money_putIcNS_19ostreambuf_iteratorIcNS_11char_traitsIcEEEEEEEEvRKS1_ DATA
 0002:00017dc4 00000028H .xdata$_ZNSt3__16locale5__imp12install_fromINS_9money_putIwNS_19ostreambuf_iteratorIwNS_11char_traitsIwEEEEEEEEvRKS1_ DATA
 0002:00017dec 00000028H .xdata$_ZNSt3__16locale5__imp12install_fromINS_8numpunctIcEEEEvRKS1_ DATA
 0002:00017e14 00000028H .xdata$_ZNSt3__16locale5__imp12install_fromINS_8numpunctIwEEEEvRKS1_ DATA
 0002:00017e3c 00000028H .xdata$_ZNSt3__16locale5__imp12install_fromINS_7num_getIcNS_19istreambuf_iteratorIcNS_11char_traitsIcEEEEEEEEvRKS1_ DATA
 0002:00017e64 00000028H .xdata$_ZNSt3__16locale5__imp12install_fromINS_7num_getIwNS_19istreambuf_iteratorIwNS_11char_traitsIwEEEEEEEEvRKS1_ DATA
 0002:00017e8c 00000028H .xdata$_ZNSt3__16locale5__imp12install_fromINS_7num_putIcNS_19ostreambuf_iteratorIcNS_11char_traitsIcEEEEEEEEvRKS1_ DATA
 0002:00017eb4 00000028H .xdata$_ZNSt3__16locale5__imp12install_fromINS_7num_putIwNS_19ostreambuf_iteratorIwNS_11char_traitsIwEEEEEEEEvRKS1_ DATA
 0002:00017edc 00000028H .xdata$_ZNSt3__16locale5__imp12install_fromINS_8time_getIcNS_19istreambuf_iteratorIcNS_11char_traitsIcEEEEEEEEvRKS1_ DATA
 0002:00017f04 00000028H .xdata$_ZNSt3__16locale5__imp12install_fromINS_8time_getIwNS_19istreambuf_iteratorIwNS_11char_traitsIwEEEEEEEEvRKS1_ DATA
 0002:00017f2c 00000028H .xdata$_ZNSt3__16locale5__imp12install_fromINS_8time_putIcNS_19ostreambuf_iteratorIcNS_11char_traitsIcEEEEEEEEvRKS1_ DATA
 0002:00017f54 00000028H .xdata$_ZNSt3__16locale5__imp12install_fromINS_8time_putIwNS_19ostreambuf_iteratorIwNS_11char_traitsIwEEEEEEEEvRKS1_ DATA
 0002:00017f7c 00000028H .xdata$_ZNSt3__16locale5__imp12install_fromINS_8messagesIcEEEEvRKS1_ DATA
 0002:00017fa4 00000028H .xdata$_ZNSt3__16locale5__imp12install_fromINS_8messagesIwEEEEvRKS1_ DATA
 0002:00017fcc 0000004cH .xdata$_ZNSt3__16locale5__impC2ERKS1_PNS0_5facetEl DATA
 0002:00018018 00000020H .xdata$_ZNSt3__16locale5__imp7installEPNS0_5facetEl DATA
 0002:00018038 00000018H .xdata$_ZNSt3__16locale5__imp11make_globalEv DATA
 0002:00018050 00000018H .xdata$_ZNSt3__16locale8__globalEv DATA
 0002:00018068 00000020H .xdata$_ZNSt3__16localeC2Ev DATA
 0002:00018088 0000003cH .xdata$_ZNSt3__16localeC2EPKc DATA
 0002:000180c4 00000020H .xdata$_ZNSt3__16localeC2ERKNS_12basic_stringIcNS_11char_traitsIcEENS_9allocatorIcEEEE DATA
 0002:000180e4 00000040H .xdata$_ZNSt3__16localeC2ERKS0_PKci DATA
 0002:00018124 00000024H .xdata$_ZNSt3__16localeC2ERKS0_RKNS_12basic_stringIcNS_11char_traitsIcEENS_9allocatorIcEEEEi DATA
 0002:00018148 00000024H .xdata$_ZNSt3__16localeC2ERKS0_S2_i DATA
 0002:0001816c 00000024H .xdata$_ZNSt3__16locale14__install_ctorERKS0_PNS0_5facetEl DATA
 0002:00018190 00000054H .xdata$_ZNSt3__16locale6globalERKS0_ DATA
 0002:000181e4 00000034H .xdata$_ZNSt3__114collate_bynameIcEC2EPKcy DATA
 0002:00018218 00000020H .xdata$_ZNSt3__112_GLOBAL__N_121__throw_runtime_errorERKNS_12basic_stringIcNS_11char_traitsIcEENS_9allocatorIcEEEE DATA
 0002:00018238 00000030H .xdata$_ZNSt3__114collate_bynameIcEC2ERKNS_12basic_stringIcNS_11char_traitsIcEENS_9allocatorIcEEEEy DATA
 0002:00018268 00000024H .xdata$_ZNSt3__114collate_bynameIcED2Ev DATA
 0002:0001828c 00000024H .xdata$_ZNSt3__114collate_bynameIcED0Ev DATA
 0002:000182b0 00000044H .xdata$_ZNKSt3__114collate_bynameIcE10do_compareEPKcS3_S3_S3_ DATA
 0002:000182f4 00000044H .xdata$_ZNKSt3__114collate_bynameIcE12do_transformEPKcS3_ DATA
 0002:00018338 00000034H .xdata$_ZNSt3__114collate_bynameIwEC2EPKcy DATA
 0002:0001836c 00000030H .xdata$_ZNSt3__114collate_bynameIwEC2ERKNS_12basic_stringIcNS_11char_traitsIcEENS_9allocatorIcEEEEy DATA
 0002:0001839c 00000024H .xdata$_ZNSt3__114collate_bynameIwED2Ev DATA
 0002:000183c0 00000024H .xdata$_ZNSt3__114collate_bynameIwED0Ev DATA
 0002:000183e4 00000044H .xdata$_ZNKSt3__114collate_bynameIwE10do_compareEPKwS3_S3_S3_ DATA
 0002:00018428 00000048H .xdata$_ZNKSt3__114collate_bynameIwE12do_transformEPKwS3_ DATA
 0002:00018470 00000024H .xdata$_ZNKSt3__15ctypeIwE5do_isEtw DATA
 0002:00018494 00000020H .xdata$_ZNSt3__15ctypeIcE13classic_tableEv DATA
 0002:000184b4 00000024H .xdata$_ZNKSt3__15ctypeIwE5do_isEPKwS3_Pt DATA
 0002:000184d8 00000024H .xdata$_ZNKSt3__15ctypeIwE10do_scan_isEtPKwS3_ DATA
 0002:000184fc 00000024H .xdata$_ZNKSt3__15ctypeIwE11do_scan_notEtPKwS3_ DATA
 0002:00018520 00000020H .xdata$_ZNKSt3__15ctypeIwE10do_toupperEw DATA
 0002:00018540 00000028H .xdata$_ZNKSt3__15ctypeIwE10do_toupperEPwPKw DATA
 0002:00018568 00000020H .xdata$_ZNKSt3__15ctypeIwE10do_tolowerEw DATA
 0002:00018588 00000028H .xdata$_ZNKSt3__15ctypeIwE10do_tolowerEPwPKw DATA
 0002:000185b0 00000020H .xdata$_ZNSt3__15ctypeIcEC2EPKtby DATA
 0002:000185d0 00000020H .xdata$_ZNKSt3__15ctypeIcE10do_toupperEc DATA
 0002:000185f0 00000028H .xdata$_ZNKSt3__15ctypeIcE10do_toupperEPcPKc DATA
 0002:00018618 00000020H .xdata$_ZNKSt3__15ctypeIcE10do_tolowerEc DATA
 0002:00018638 00000028H .xdata$_ZNKSt3__15ctypeIcE10do_tolowerEPcPKc DATA
 0002:00018660 00000044H .xdata$_ZNSt3__112ctype_bynameIcEC2EPKcy DATA
 0002:000186a4 00000040H .xdata$_ZNSt3__112ctype_bynameIcEC2ERKNS_12basic_stringIcNS_11char_traitsIcEENS_9allocatorIcEEEEy DATA
 0002:000186e4 00000024H .xdata$_ZNSt3__112ctype_bynameIcED0Ev DATA
 0002:00018708 00000034H .xdata$_ZNSt3__112ctype_bynameIwEC2EPKcy DATA
 0002:0001873c 00000030H .xdata$_ZNSt3__112ctype_bynameIwEC2ERKNS_12basic_stringIcNS_11char_traitsIcEENS_9allocatorIcEEEEy DATA
 0002:0001876c 00000024H .xdata$_ZNSt3__112ctype_bynameIwED0Ev DATA
 0002:00018790 00000030H .xdata$_ZNKSt3__112ctype_bynameIwE5do_isEPKwS3_Pt DATA
 0002:000187c0 0000001cH .xdata$_ZNKSt3__112ctype_bynameIwE8do_widenEc DATA
 0002:000187dc 00000028H .xdata$_ZNKSt3__112ctype_bynameIwE8do_widenEPKcS3_Pw DATA
 0002:00018804 0000001cH .xdata$_ZNKSt3__112ctype_bynameIwE9do_narrowEwc DATA
 0002:00018820 0000002cH .xdata$_ZNKSt3__112ctype_bynameIwE9do_narrowEPKwS3_cPc DATA
 0002:0001884c 0000001cH .xdata$_ZNSt3__17codecvtIwc9_MbstatetEC2Ey DATA
 0002:00018868 00000034H .xdata$_ZNSt3__17codecvtIwc9_MbstatetEC2EPKcy DATA
 0002:0001889c 00000038H .xdata$_ZNKSt3__17codecvtIwc9_MbstatetE6do_outERS1_PKwS5_RS5_PcS7_RS7_ DATA
 0002:000188d4 00000038H .xdata$_ZNKSt3__17codecvtIwc9_MbstatetE5do_inERS1_PKcS5_RS5_PwS7_RS7_ DATA
 0002:0001890c 00000028H .xdata$_ZNKSt3__17codecvtIwc9_MbstatetE10do_unshiftERS1_PcS4_RS4_ DATA
 0002:00018934 00000024H .xdata$_ZNKSt3__17codecvtIwc9_MbstatetE11do_encodingEv DATA
 0002:00018958 0000002cH .xdata$_ZNKSt3__17codecvtIwc9_MbstatetE9do_lengthERS1_PKcS5_y DATA
 0002:00018984 00000024H .xdata$_ZNKSt3__17codecvtIwc9_MbstatetE13do_max_lengthEv DATA
 0002:000189a8 0000001cH .xdata$_ZNSt3__115numpunct_bynameIcEC2EPKcy DATA
 0002:000189c4 00000060H .xdata$_ZNSt3__115numpunct_bynameIcE6__initEPKc DATA
 0002:00018a24 0000001cH .xdata$_ZNSt3__115numpunct_bynameIcEC2ERKNS_12basic_stringIcNS_11char_traitsIcEENS_9allocatorIcEEEEy DATA
 0002:00018a40 00000028H .xdata$_ZNSt3__1L30checked_string_to_char_convertERcPKc8locale_t DATA
 0002:00018a68 00000020H .xdata$_ZNSt3__122__libcpp_unique_localeD2Ev DATA
 0002:00018a88 0000001cH .xdata$_ZNSt3__115numpunct_bynameIwEC2EPKcy DATA
 0002:00018aa4 00000064H .xdata$_ZNSt3__115numpunct_bynameIwE6__initEPKc DATA
 0002:00018b08 0000001cH .xdata$_ZNSt3__115numpunct_bynameIwEC2ERKNS_12basic_stringIcNS_11char_traitsIcEENS_9allocatorIcEEEEy DATA
 0002:00018b24 00000018H .xdata$_ZNKSt3__120__time_get_c_storageIcE7__weeksEv DATA
 0002:00018b3c 00000018H .xdata$_ZNKSt3__120__time_get_c_storageIwE7__weeksEv DATA
 0002:00018b54 00000018H .xdata$_ZNKSt3__120__time_get_c_storageIcE8__monthsEv DATA
 0002:00018b6c 00000018H .xdata$_ZNKSt3__120__time_get_c_storageIwE8__monthsEv DATA
 0002:00018b84 00000018H .xdata$_ZNKSt3__120__time_get_c_storageIcE7__am_pmEv DATA
 0002:00018b9c 00000018H .xdata$_ZNKSt3__120__time_get_c_storageIwE7__am_pmEv DATA
 0002:00018bb4 00000018H .xdata$_ZNKSt3__120__time_get_c_storageIcE3__xEv DATA
 0002:00018bcc 00000018H .xdata$_ZNKSt3__120__time_get_c_storageIwE3__xEv DATA
 0002:00018be4 00000018H .xdata$_ZNKSt3__120__time_get_c_storageIcE3__XEv DATA
 0002:00018bfc 00000018H .xdata$_ZNKSt3__120__time_get_c_storageIwE3__XEv DATA
 0002:00018c14 00000018H .xdata$_ZNKSt3__120__time_get_c_storageIcE3__cEv DATA
 0002:00018c2c 00000018H .xdata$_ZNKSt3__120__time_get_c_storageIwE3__cEv DATA
 0002:00018c44 00000018H .xdata$_ZNKSt3__120__time_get_c_storageIcE3__rEv DATA
 0002:00018c5c 00000018H .xdata$_ZNKSt3__120__time_get_c_storageIwE3__rEv DATA
 0002:00018c74 00000030H .xdata$_ZNSt3__110__time_getC2EPKc DATA
 0002:00018ca4 00000028H .xdata$_ZNSt3__110__time_getC2ERKNS_12basic_stringIcNS_11char_traitsIcEENS_9allocatorIcEEEE DATA
 0002:00018ccc 00000020H .xdata$_ZNSt3__110__time_getD2Ev DATA
 0002:00018cec 00000058H .xdata$_ZNSt3__118__time_get_storageIcE9__analyzeEcRKNS_5ctypeIcEE DATA
 0002:00018d44 00000038H .xdata$_ZNSt3__114__scan_keywordIPcPNS_12basic_stringIcNS_11char_traitsIcEENS_9allocatorIcEEEENS_5ctypeIcEEEET0_RT_SC_SB_SB_RKT1_Rjb DATA
 0002:00018d7c 00000060H .xdata$_ZNSt3__118__time_get_storageIwE9__analyzeEcRKNS_5ctypeIwEE DATA
 0002:00018ddc 00000038H .xdata$_ZNSt3__114__scan_keywordIPwPNS_12basic_stringIwNS_11char_traitsIwEENS_9allocatorIwEEEENS_5ctypeIwEEEET0_RT_SC_SB_SB_RKT1_Rjb DATA
 0002:00018e14 00000070H .xdata$_ZNSt3__118__time_get_storageIwE4initERKNS_5ctypeIwEE DATA
 0002:00018e84 00000030H .xdata$_ZNSt3__112basic_stringIwNS_11char_traitsIwEENS_9allocatorIwEEE6assignIPwEENS_9enable_ifIXsr27__is_cpp17_forward_iteratorIT_EE5valueERS5_E4typeES9_S9_ DATA
 0002:00018eb4 00000038H .xdata$_ZNSt3__118__time_get_storageIcEC2EPKc DATA
 0002:00018eec 00000024H .xdata$_ZNSt3__112ctype_bynameIcED2Ev DATA
 0002:00018f10 00000038H .xdata$_ZNSt3__118__time_get_storageIcEC2ERKNS_12basic_stringIcNS_11char_traitsIcEENS_9allocatorIcEEEE DATA
 0002:00018f48 00000038H .xdata$_ZNSt3__118__time_get_storageIwEC2EPKc DATA
 0002:00018f80 00000024H .xdata$_ZNSt3__112ctype_bynameIwED2Ev DATA
 0002:00018fa4 00000038H .xdata$_ZNSt3__118__time_get_storageIwEC2ERKNS_12basic_stringIcNS_11char_traitsIcEENS_9allocatorIcEEEE DATA
 0002:00018fdc 00000030H .xdata$_ZNSt3__110__time_putC2EPKc DATA
 0002:0001900c 00000028H .xdata$_ZNSt3__110__time_putC2ERKNS_12basic_stringIcNS_11char_traitsIcEENS_9allocatorIcEEEE DATA
 0002:00019034 00000028H .xdata$_ZNSt3__110__time_putD2Ev DATA
 0002:0001905c 00000078H .xdata$_ZNSt3__117moneypunct_bynameIcLb0EE4initEPKc DATA
 0002:000190d4 00000078H .xdata$_ZNSt3__117moneypunct_bynameIcLb1EE4initEPKc DATA
 0002:0001914c 000000b0H .xdata$_ZNSt3__117moneypunct_bynameIwLb0EE4initEPKc DATA
 0002:000191fc 000000b0H .xdata$_ZNSt3__117moneypunct_bynameIwLb1EE4initEPKc DATA
 0002:000192ac 00000028H .xdata$_ZNSt3__17codecvtIwc9_MbstatetED2Ev DATA
 0002:000192d4 00000020H .xdata$_ZNSt3__120__throw_length_errorB6v15007EPKc DATA
 0002:000192f4 00000020H .xdata$_ZNSt3__120__throw_out_of_rangeB6v15007EPKc DATA
 0002:00019314 00000024H .xdata$_ZNSt3__115__time_get_tempIcED0Ev DATA
 0002:00019338 00000024H .xdata$_ZNSt3__115__time_get_tempIwED0Ev DATA
 0002:0001935c 00000028H .xdata$_ZNSt3__125__num_get_signed_integralIlEET_PKcS3_Rji DATA
 0002:00019384 00000028H .xdata$_ZNSt3__125__num_get_signed_integralIxEET_PKcS3_Rji DATA
 0002:000193ac 0000002cH .xdata$_ZNSt3__127__num_get_unsigned_integralItEET_PKcS3_Rji DATA
 0002:000193d8 0000002cH .xdata$_ZNSt3__127__num_get_unsigned_integralIjEET_PKcS3_Rji DATA
 0002:00019404 0000002cH .xdata$_ZNSt3__127__num_get_unsigned_integralImEET_PKcS3_Rji DATA
 0002:00019430 0000002cH .xdata$_ZNSt3__127__num_get_unsigned_integralIyEET_PKcS3_Rji DATA
 0002:0001945c 0000002cH .xdata$_ZNSt3__115__num_get_floatIfEET_PKcS3_Rj DATA
 0002:00019488 0000002cH .xdata$_ZNSt3__115__num_get_floatIdEET_PKcS3_Rj DATA
 0002:000194b4 0000002cH .xdata$_ZNSt3__115__num_get_floatIeEET_PKcS3_Rj DATA
 0002:000194e0 00000024H .xdata$_ZNSt3__118__time_get_storageIcED2B6v15007Ev DATA
 0002:00019504 00000024H .xdata$_ZNSt3__118__time_get_storageIwED2B6v15007Ev DATA
 0002:00019528 00000008H .xdata$_ZNSt3__17collateIcED0Ev DATA
 0002:00019530 00000008H .xdata$_ZNKSt3__17collateIcE10do_compareEPKcS3_S3_S3_ DATA
 0002:00019538 00000014H .xdata$_ZNKSt3__17collateIcE12do_transformEPKcS3_ DATA
 0002:0001954c 00000008H .xdata$_ZNSt3__17collateIwED0Ev DATA
 0002:00019554 00000014H .xdata$_ZNKSt3__17collateIwE12do_transformEPKwS3_ DATA
 0002:00019568 0000005cH .xdata$_ZNKSt3__17num_getIcNS_19istreambuf_iteratorIcNS_11char_traitsIcEEEEE6do_getES4_S4_RNS_8ios_baseERjRb DATA
 0002:000195c4 00000044H .xdata$_ZNSt3__114__scan_keywordINS_19istreambuf_iteratorIcNS_11char_traitsIcEEEEPKNS_12basic_stringIcS3_NS_9allocatorIcEEEENS_5ctypeIcEEEET0_RT_SE_SD_SD_RKT1_Rjb DATA
 0002:00019608 0000004cH .xdata$_ZNKSt3__17num_getIcNS_19istreambuf_iteratorIcNS_11char_traitsIcEEEEE15__do_get_signedIlEES4_S4_S4_RNS_8ios_baseERjRT_ DATA
 0002:00019654 0000004cH .xdata$_ZNKSt3__17num_getIcNS_19istreambuf_iteratorIcNS_11char_traitsIcEEEEE15__do_get_signedIxEES4_S4_S4_RNS_8ios_baseERjRT_ DATA
 0002:000196a0 0000004cH .xdata$_ZNKSt3__17num_getIcNS_19istreambuf_iteratorIcNS_11char_traitsIcEEEEE17__do_get_unsignedItEES4_S4_S4_RNS_8ios_baseERjRT_ DATA
 0002:000196ec 0000004cH .xdata$_ZNKSt3__17num_getIcNS_19istreambuf_iteratorIcNS_11char_traitsIcEEEEE17__do_get_unsignedIjEES4_S4_S4_RNS_8ios_baseERjRT_ DATA
 0002:00019738 0000004cH .xdata$_ZNKSt3__17num_getIcNS_19istreambuf_iteratorIcNS_11char_traitsIcEEEEE17__do_get_unsignedImEES4_S4_S4_RNS_8ios_baseERjRT_ DATA
 0002:00019784 0000004cH .xdata$_ZNKSt3__17num_getIcNS_19istreambuf_iteratorIcNS_11char_traitsIcEEEEE17__do_get_unsignedIyEES4_S4_S4_RNS_8ios_baseERjRT_ DATA
 0002:000197d0 0000004cH .xdata$_ZNKSt3__17num_getIcNS_19istreambuf_iteratorIcNS_11char_traitsIcEEEEE23__do_get_floating_pointIfEES4_S4_S4_RNS_8ios_baseERjRT_ DATA
 0002:0001981c 0000004cH .xdata$_ZNKSt3__17num_getIcNS_19istreambuf_iteratorIcNS_11char_traitsIcEEEEE23__do_get_floating_pointIdEES4_S4_S4_RNS_8ios_baseERjRT_ DATA
 0002:00019868 0000004cH .xdata$_ZNKSt3__17num_getIcNS_19istreambuf_iteratorIcNS_11char_traitsIcEEEEE23__do_get_floating_pointIeEES4_S4_S4_RNS_8ios_baseERjRT_ DATA
 0002:000198b4 0000006cH .xdata$_ZNKSt3__17num_getIcNS_19istreambuf_iteratorIcNS_11char_traitsIcEEEEE6do_getES4_S4_RNS_8ios_baseERjRPv DATA
 0002:00019920 0000000cH .xdata$_ZNSt3__19__num_getIcE17__stage2_int_loopEciPcRS2_RjcRKNS_12basic_stringIcNS_11char_traitsIcEENS_9allocatorIcEEEEPjRSD_S2_ DATA
 0002:0001992c 00000008H .xdata$_ZL9_sscanf_lPKcS0_P17localeinfo_structz DATA
 0002:00019934 0000001cH .xdata$_ZNSt3__16__clocEv DATA
 0002:00019950 00000008H .xdata$_ZN8locale_tD2Ev DATA
 0002:00019958 0000005cH .xdata$_ZNKSt3__17num_getIwNS_19istreambuf_iteratorIwNS_11char_traitsIwEEEEE6do_getES4_S4_RNS_8ios_baseERjRb DATA
 0002:000199b4 00000044H .xdata$_ZNSt3__114__scan_keywordINS_19istreambuf_iteratorIwNS_11char_traitsIwEEEEPKNS_12basic_stringIwS3_NS_9allocatorIwEEEENS_5ctypeIwEEEET0_RT_SE_SD_SD_RKT1_Rjb DATA
 0002:000199f8 0000004cH .xdata$_ZNKSt3__17num_getIwNS_19istreambuf_iteratorIwNS_11char_traitsIwEEEEE15__do_get_signedIlEES4_S4_S4_RNS_8ios_baseERjRT_ DATA
 0002:00019a44 0000004cH .xdata$_ZNKSt3__17num_getIwNS_19istreambuf_iteratorIwNS_11char_traitsIwEEEEE15__do_get_signedIxEES4_S4_S4_RNS_8ios_baseERjRT_ DATA
 0002:00019a90 0000004cH .xdata$_ZNKSt3__17num_getIwNS_19istreambuf_iteratorIwNS_11char_traitsIwEEEEE17__do_get_unsignedItEES4_S4_S4_RNS_8ios_baseERjRT_ DATA
 0002:00019adc 0000004cH .xdata$_ZNKSt3__17num_getIwNS_19istreambuf_iteratorIwNS_11char_traitsIwEEEEE17__do_get_unsignedIjEES4_S4_S4_RNS_8ios_baseERjRT_ DATA
 0002:00019b28 0000004cH .xdata$_ZNKSt3__17num_getIwNS_19istreambuf_iteratorIwNS_11char_traitsIwEEEEE17__do_get_unsignedImEES4_S4_S4_RNS_8ios_baseERjRT_ DATA
 0002:00019b74 0000004cH .xdata$_ZNKSt3__17num_getIwNS_19istreambuf_iteratorIwNS_11char_traitsIwEEEEE17__do_get_unsignedIyEES4_S4_S4_RNS_8ios_baseERjRT_ DATA
 0002:00019bc0 0000004cH .xdata$_ZNKSt3__17num_getIwNS_19istreambuf_iteratorIwNS_11char_traitsIwEEEEE23__do_get_floating_pointIfEES4_S4_S4_RNS_8ios_baseERjRT_ DATA
 0002:00019c0c 0000004cH .xdata$_ZNKSt3__17num_getIwNS_19istreambuf_iteratorIwNS_11char_traitsIwEEEEE23__do_get_floating_pointIdEES4_S4_S4_RNS_8ios_baseERjRT_ DATA
 0002:00019c58 0000004cH .xdata$_ZNKSt3__17num_getIwNS_19istreambuf_iteratorIwNS_11char_traitsIwEEEEE23__do_get_floating_pointIeEES4_S4_S4_RNS_8ios_baseERjRT_ DATA
 0002:00019ca4 0000006cH .xdata$_ZNKSt3__17num_getIwNS_19istreambuf_iteratorIwNS_11char_traitsIwEEEEE6do_getES4_S4_RNS_8ios_baseERjRPv DATA
 0002:00019d10 0000000cH .xdata$_ZNSt3__19__num_getIwE17__stage2_int_loopEwiPcRS2_RjwRKNS_12basic_stringIcNS_11char_traitsIcEENS_9allocatorIcEEEEPjRSD_Pw DATA
 0002:00019d1c 00000040H .xdata$_ZNSt3__19__num_getIcE19__stage2_float_prepERNS_8ios_baseEPcRcS5_ DATA
 0002:00019d5c 00000010H .xdata$_ZNSt3__19__num_getIcE19__stage2_float_loopEcRbRcPcRS4_ccRKNS_12basic_stringIcNS_11char_traitsIcEENS_9allocatorIcEEEEPjRSE_RjS4_ DATA
 0002:00019d6c 00000040H .xdata$_ZNSt3__19__num_getIcE17__stage2_int_prepERNS_8ios_baseEPcRc DATA
 0002:00019dac 00000040H .xdata$_ZNSt3__19__num_getIwE19__stage2_float_prepERNS_8ios_baseEPwRwS5_ DATA
 0002:00019dec 00000010H .xdata$_ZNSt3__19__num_getIwE19__stage2_float_loopEwRbRcPcRS4_wwRKNS_12basic_stringIcNS_11char_traitsIcEENS_9allocatorIcEEEEPjRSE_RjPw DATA
 0002:00019dfc 00000040H .xdata$_ZNSt3__19__num_getIwE17__stage2_int_prepERNS_8ios_baseEPwRw DATA
 0002:00019e3c 0000003cH .xdata$_ZNKSt3__17num_putIcNS_19ostreambuf_iteratorIcNS_11char_traitsIcEEEEE6do_putES4_RNS_8ios_baseEcb DATA
 0002:00019e78 00000008H .xdata$_ZNKSt3__17num_putIcNS_19ostreambuf_iteratorIcNS_11char_traitsIcEEEEE6do_putES4_RNS_8ios_baseEcl DATA
 0002:00019e80 00000040H .xdata$_ZNKSt3__17num_putIcNS_19ostreambuf_iteratorIcNS_11char_traitsIcEEEEE17__do_put_integralB6v15007IlEES4_S4_RNS_8ios_baseEcT_PKc DATA
 0002:00019ec0 00000008H .xdata$_ZNKSt3__17num_putIcNS_19ostreambuf_iteratorIcNS_11char_traitsIcEEEEE6do_putES4_RNS_8ios_baseEcx DATA
 0002:00019ec8 00000040H .xdata$_ZNKSt3__17num_putIcNS_19ostreambuf_iteratorIcNS_11char_traitsIcEEEEE17__do_put_integralB6v15007IxEES4_S4_RNS_8ios_baseEcT_PKc DATA
 0002:00019f08 00000008H .xdata$_ZNKSt3__17num_putIcNS_19ostreambuf_iteratorIcNS_11char_traitsIcEEEEE6do_putES4_RNS_8ios_baseEcm DATA
 0002:00019f10 00000040H .xdata$_ZNKSt3__17num_putIcNS_19ostreambuf_iteratorIcNS_11char_traitsIcEEEEE17__do_put_integralB6v15007ImEES4_S4_RNS_8ios_baseEcT_PKc DATA
 0002:00019f50 00000008H .xdata$_ZNKSt3__17num_putIcNS_19ostreambuf_iteratorIcNS_11char_traitsIcEEEEE6do_putES4_RNS_8ios_baseEcy DATA
 0002:00019f58 00000040H .xdata$_ZNKSt3__17num_putIcNS_19ostreambuf_iteratorIcNS_11char_traitsIcEEEEE17__do_put_integralB6v15007IyEES4_S4_RNS_8ios_baseEcT_PKc DATA
 0002:00019f98 00000008H .xdata$_ZNKSt3__17num_putIcNS_19ostreambuf_iteratorIcNS_11char_traitsIcEEEEE6do_putES4_RNS_8ios_baseEcd DATA
 0002:00019fa0 00000074H .xdata$_ZNKSt3__17num_putIcNS_19ostreambuf_iteratorIcNS_11char_traitsIcEEEEE23__do_put_floating_pointB6v15007IdEES4_S4_RNS_8ios_baseEcT_PKc DATA
 0002:0001a014 00000008H .xdata$_ZNKSt3__17num_putIcNS_19ostreambuf_iteratorIcNS_11char_traitsIcEEEEE6do_putES4_RNS_8ios_baseEce DATA
 0002:0001a01c 00000074H .xdata$_ZNKSt3__17num_putIcNS_19ostreambuf_iteratorIcNS_11char_traitsIcEEEEE23__do_put_floating_pointB6v15007IeEES4_S4_RNS_8ios_baseEcT_PKc DATA
 0002:0001a090 00000048H .xdata$_ZNKSt3__17num_putIcNS_19ostreambuf_iteratorIcNS_11char_traitsIcEEEEE6do_putES4_RNS_8ios_baseEcPKv DATA
 0002:0001a0d8 0000003cH .xdata$_ZNKSt3__17num_putIwNS_19ostreambuf_iteratorIwNS_11char_traitsIwEEEEE6do_putES4_RNS_8ios_baseEwb DATA
 0002:0001a114 00000008H .xdata$_ZNKSt3__17num_putIwNS_19ostreambuf_iteratorIwNS_11char_traitsIwEEEEE6do_putES4_RNS_8ios_baseEwl DATA
 0002:0001a11c 00000040H .xdata$_ZNKSt3__17num_putIwNS_19ostreambuf_iteratorIwNS_11char_traitsIwEEEEE17__do_put_integralB6v15007IlEES4_S4_RNS_8ios_baseEwT_PKc DATA
 0002:0001a15c 00000008H .xdata$_ZNKSt3__17num_putIwNS_19ostreambuf_iteratorIwNS_11char_traitsIwEEEEE6do_putES4_RNS_8ios_baseEwx DATA
 0002:0001a164 00000040H .xdata$_ZNKSt3__17num_putIwNS_19ostreambuf_iteratorIwNS_11char_traitsIwEEEEE17__do_put_integralB6v15007IxEES4_S4_RNS_8ios_baseEwT_PKc DATA
 0002:0001a1a4 00000008H .xdata$_ZNKSt3__17num_putIwNS_19ostreambuf_iteratorIwNS_11char_traitsIwEEEEE6do_putES4_RNS_8ios_baseEwm DATA
 0002:0001a1ac 00000040H .xdata$_ZNKSt3__17num_putIwNS_19ostreambuf_iteratorIwNS_11char_traitsIwEEEEE17__do_put_integralB6v15007ImEES4_S4_RNS_8ios_baseEwT_PKc DATA
 0002:0001a1ec 00000008H .xdata$_ZNKSt3__17num_putIwNS_19ostreambuf_iteratorIwNS_11char_traitsIwEEEEE6do_putES4_RNS_8ios_baseEwy DATA
 0002:0001a1f4 00000040H .xdata$_ZNKSt3__17num_putIwNS_19ostreambuf_iteratorIwNS_11char_traitsIwEEEEE17__do_put_integralB6v15007IyEES4_S4_RNS_8ios_baseEwT_PKc DATA
 0002:0001a234 00000008H .xdata$_ZNKSt3__17num_putIwNS_19ostreambuf_iteratorIwNS_11char_traitsIwEEEEE6do_putES4_RNS_8ios_baseEwd DATA
 0002:0001a23c 00000074H .xdata$_ZNKSt3__17num_putIwNS_19ostreambuf_iteratorIwNS_11char_traitsIwEEEEE23__do_put_floating_pointB6v15007IdEES4_S4_RNS_8ios_baseEwT_PKc DATA
 0002:0001a2b0 00000008H .xdata$_ZNKSt3__17num_putIwNS_19ostreambuf_iteratorIwNS_11char_traitsIwEEEEE6do_putES4_RNS_8ios_baseEwe DATA
 0002:0001a2b8 00000074H .xdata$_ZNKSt3__17num_putIwNS_19ostreambuf_iteratorIwNS_11char_traitsIwEEEEE23__do_put_floating_pointB6v15007IeEES4_S4_RNS_8ios_baseEwT_PKc DATA
 0002:0001a32c 00000048H .xdata$_ZNKSt3__17num_putIwNS_19ostreambuf_iteratorIwNS_11char_traitsIwEEEEE6do_putES4_RNS_8ios_baseEwPKv DATA
 0002:0001a374 00000034H .xdata$_ZNSt3__116__pad_and_outputIwNS_11char_traitsIwEEEENS_19ostreambuf_iteratorIT_T0_EES6_PKS4_S8_S8_RNS_8ios_baseES4_ DATA
 0002:0001a3a8 00000044H .xdata$_ZNSt3__19__num_putIcE21__widen_and_group_intEPcS2_S2_S2_RS2_S3_RKNS_6localeE DATA
 0002:0001a3ec 000000a4H .xdata$_ZNSt3__19__num_putIcE23__widen_and_group_floatEPcS2_S2_S2_RS2_S3_RKNS_6localeE DATA
 0002:0001a490 00000044H .xdata$_ZNSt3__19__num_putIwE21__widen_and_group_intEPcS2_S2_PwRS3_S4_RKNS_6localeE DATA
 0002:0001a4d4 000000acH .xdata$_ZNSt3__19__num_putIwE23__widen_and_group_floatEPcS2_S2_PwRS3_S4_RKNS_6localeE DATA
 0002:0001a580 0000003cH .xdata$_ZNKSt3__18time_getIcNS_19istreambuf_iteratorIcNS_11char_traitsIcEEEEE3getES4_S4_RNS_8ios_baseERjP2tmPKcSC_ DATA
 0002:0001a5bc 00000008H .xdata$_ZNKSt3__18time_getIcNS_19istreambuf_iteratorIcNS_11char_traitsIcEEEEE11do_get_timeES4_S4_RNS_8ios_baseERjP2tm DATA
 0002:0001a5c4 00000014H .xdata$_ZNKSt3__18time_getIcNS_19istreambuf_iteratorIcNS_11char_traitsIcEEEEE11do_get_dateES4_S4_RNS_8ios_baseERjP2tm DATA
 0002:0001a5d8 00000034H .xdata$_ZNKSt3__18time_getIcNS_19istreambuf_iteratorIcNS_11char_traitsIcEEEEE14do_get_weekdayES4_S4_RNS_8ios_baseERjP2tm DATA
 0002:0001a60c 00000014H .xdata$_ZNKSt3__18time_getIcNS_19istreambuf_iteratorIcNS_11char_traitsIcEEEEE17__get_weekdaynameERiRS4_S4_RjRKNS_5ctypeIcEE DATA
 0002:0001a620 00000034H .xdata$_ZNKSt3__18time_getIcNS_19istreambuf_iteratorIcNS_11char_traitsIcEEEEE16do_get_monthnameES4_S4_RNS_8ios_baseERjP2tm DATA
 0002:0001a654 00000014H .xdata$_ZNKSt3__18time_getIcNS_19istreambuf_iteratorIcNS_11char_traitsIcEEEEE15__get_monthnameERiRS4_S4_RjRKNS_5ctypeIcEE DATA
 0002:0001a668 00000030H .xdata$_ZNKSt3__18time_getIcNS_19istreambuf_iteratorIcNS_11char_traitsIcEEEEE11do_get_yearES4_S4_RNS_8ios_baseERjP2tm DATA
 0002:0001a698 0000000cH .xdata$_ZNKSt3__18time_getIcNS_19istreambuf_iteratorIcNS_11char_traitsIcEEEEE10__get_yearERiRS4_S4_RjRKNS_5ctypeIcEE DATA
 0002:0001a6a4 00000038H .xdata$_ZNKSt3__18time_getIcNS_19istreambuf_iteratorIcNS_11char_traitsIcEEEEE6do_getES4_S4_RNS_8ios_baseERjP2tmcc DATA
 0002:0001a6dc 0000000cH .xdata$_ZNKSt3__18time_getIcNS_19istreambuf_iteratorIcNS_11char_traitsIcEEEEE9__get_dayERiRS4_S4_RjRKNS_5ctypeIcEE DATA
 0002:0001a6e8 0000000cH .xdata$_ZNKSt3__18time_getIcNS_19istreambuf_iteratorIcNS_11char_traitsIcEEEEE10__get_hourERiRS4_S4_RjRKNS_5ctypeIcEE DATA
 0002:0001a6f4 0000000cH .xdata$_ZNKSt3__18time_getIcNS_19istreambuf_iteratorIcNS_11char_traitsIcEEEEE13__get_12_hourERiRS4_S4_RjRKNS_5ctypeIcEE DATA
 0002:0001a700 0000000cH .xdata$_ZNKSt3__18time_getIcNS_19istreambuf_iteratorIcNS_11char_traitsIcEEEEE18__get_day_year_numERiRS4_S4_RjRKNS_5ctypeIcEE DATA
 0002:0001a70c 0000000cH .xdata$_ZNKSt3__18time_getIcNS_19istreambuf_iteratorIcNS_11char_traitsIcEEEEE11__get_monthERiRS4_S4_RjRKNS_5ctypeIcEE DATA
 0002:0001a718 0000000cH .xdata$_ZNKSt3__18time_getIcNS_19istreambuf_iteratorIcNS_11char_traitsIcEEEEE12__get_minuteERiRS4_S4_RjRKNS_5ctypeIcEE DATA
 0002:0001a724 00000010H .xdata$_ZNKSt3__18time_getIcNS_19istreambuf_iteratorIcNS_11char_traitsIcEEEEE17__get_white_spaceERS4_S4_RjRKNS_5ctypeIcEE DATA
 0002:0001a734 00000010H .xdata$_ZNKSt3__18time_getIcNS_19istreambuf_iteratorIcNS_11char_traitsIcEEEEE11__get_am_pmERiRS4_S4_RjRKNS_5ctypeIcEE DATA
 0002:0001a744 0000000cH .xdata$_ZNKSt3__18time_getIcNS_19istreambuf_iteratorIcNS_11char_traitsIcEEEEE12__get_secondERiRS4_S4_RjRKNS_5ctypeIcEE DATA
 0002:0001a750 0000000cH .xdata$_ZNKSt3__18time_getIcNS_19istreambuf_iteratorIcNS_11char_traitsIcEEEEE13__get_weekdayERiRS4_S4_RjRKNS_5ctypeIcEE DATA
 0002:0001a75c 0000000cH .xdata$_ZNKSt3__18time_getIcNS_19istreambuf_iteratorIcNS_11char_traitsIcEEEEE11__get_year4ERiRS4_S4_RjRKNS_5ctypeIcEE DATA
 0002:0001a768 00000010H .xdata$_ZNKSt3__18time_getIcNS_19istreambuf_iteratorIcNS_11char_traitsIcEEEEE13__get_percentERS4_S4_RjRKNS_5ctypeIcEE DATA
 0002:0001a778 00000014H .xdata$_ZNSt3__120__get_up_to_n_digitsIcNS_19istreambuf_iteratorIcNS_11char_traitsIcEEEEEEiRT0_S5_RjRKNS_5ctypeIT_EEi DATA
 0002:0001a78c 0000003cH .xdata$_ZNKSt3__18time_getIwNS_19istreambuf_iteratorIwNS_11char_traitsIwEEEEE3getES4_S4_RNS_8ios_baseERjP2tmPKwSC_ DATA
 0002:0001a7c8 00000008H .xdata$_ZNKSt3__18time_getIwNS_19istreambuf_iteratorIwNS_11char_traitsIwEEEEE11do_get_timeES4_S4_RNS_8ios_baseERjP2tm DATA
 0002:0001a7d0 00000014H .xdata$_ZNKSt3__18time_getIwNS_19istreambuf_iteratorIwNS_11char_traitsIwEEEEE11do_get_dateES4_S4_RNS_8ios_baseERjP2tm DATA
 0002:0001a7e4 00000034H .xdata$_ZNKSt3__18time_getIwNS_19istreambuf_iteratorIwNS_11char_traitsIwEEEEE14do_get_weekdayES4_S4_RNS_8ios_baseERjP2tm DATA
 0002:0001a818 00000014H .xdata$_ZNKSt3__18time_getIwNS_19istreambuf_iteratorIwNS_11char_traitsIwEEEEE17__get_weekdaynameERiRS4_S4_RjRKNS_5ctypeIwEE DATA
 0002:0001a82c 00000034H .xdata$_ZNKSt3__18time_getIwNS_19istreambuf_iteratorIwNS_11char_traitsIwEEEEE16do_get_monthnameES4_S4_RNS_8ios_baseERjP2tm DATA
 0002:0001a860 00000014H .xdata$_ZNKSt3__18time_getIwNS_19istreambuf_iteratorIwNS_11char_traitsIwEEEEE15__get_monthnameERiRS4_S4_RjRKNS_5ctypeIwEE DATA
 0002:0001a874 00000030H .xdata$_ZNKSt3__18time_getIwNS_19istreambuf_iteratorIwNS_11char_traitsIwEEEEE11do_get_yearES4_S4_RNS_8ios_baseERjP2tm DATA
 0002:0001a8a4 0000000cH .xdata$_ZNKSt3__18time_getIwNS_19istreambuf_iteratorIwNS_11char_traitsIwEEEEE10__get_yearERiRS4_S4_RjRKNS_5ctypeIwEE DATA
 0002:0001a8b0 00000038H .xdata$_ZNKSt3__18time_getIwNS_19istreambuf_iteratorIwNS_11char_traitsIwEEEEE6do_getES4_S4_RNS_8ios_baseERjP2tmcc DATA
 0002:0001a8e8 0000000cH .xdata$_ZNKSt3__18time_getIwNS_19istreambuf_iteratorIwNS_11char_traitsIwEEEEE9__get_dayERiRS4_S4_RjRKNS_5ctypeIwEE DATA
 0002:0001a8f4 0000000cH .xdata$_ZNKSt3__18time_getIwNS_19istreambuf_iteratorIwNS_11char_traitsIwEEEEE10__get_hourERiRS4_S4_RjRKNS_5ctypeIwEE DATA
 0002:0001a900 0000000cH .xdata$_ZNKSt3__18time_getIwNS_19istreambuf_iteratorIwNS_11char_traitsIwEEEEE13__get_12_hourERiRS4_S4_RjRKNS_5ctypeIwEE DATA
 0002:0001a90c 0000000cH .xdata$_ZNKSt3__18time_getIwNS_19istreambuf_iteratorIwNS_11char_traitsIwEEEEE18__get_day_year_numERiRS4_S4_RjRKNS_5ctypeIwEE DATA
 0002:0001a918 0000000cH .xdata$_ZNKSt3__18time_getIwNS_19istreambuf_iteratorIwNS_11char_traitsIwEEEEE11__get_monthERiRS4_S4_RjRKNS_5ctypeIwEE DATA
 0002:0001a924 0000000cH .xdata$_ZNKSt3__18time_getIwNS_19istreambuf_iteratorIwNS_11char_traitsIwEEEEE12__get_minuteERiRS4_S4_RjRKNS_5ctypeIwEE DATA
 0002:0001a930 00000010H .xdata$_ZNKSt3__18time_getIwNS_19istreambuf_iteratorIwNS_11char_traitsIwEEEEE17__get_white_spaceERS4_S4_RjRKNS_5ctypeIwEE DATA
 0002:0001a940 00000010H .xdata$_ZNKSt3__18time_getIwNS_19istreambuf_iteratorIwNS_11char_traitsIwEEEEE11__get_am_pmERiRS4_S4_RjRKNS_5ctypeIwEE DATA
 0002:0001a950 0000000cH .xdata$_ZNKSt3__18time_getIwNS_19istreambuf_iteratorIwNS_11char_traitsIwEEEEE12__get_secondERiRS4_S4_RjRKNS_5ctypeIwEE DATA
 0002:0001a95c 0000000cH .xdata$_ZNKSt3__18time_getIwNS_19istreambuf_iteratorIwNS_11char_traitsIwEEEEE13__get_weekdayERiRS4_S4_RjRKNS_5ctypeIwEE DATA
 0002:0001a968 0000000cH .xdata$_ZNKSt3__18time_getIwNS_19istreambuf_iteratorIwNS_11char_traitsIwEEEEE11__get_year4ERiRS4_S4_RjRKNS_5ctypeIwEE DATA
 0002:0001a974 00000010H .xdata$_ZNKSt3__18time_getIwNS_19istreambuf_iteratorIwNS_11char_traitsIwEEEEE13__get_percentERS4_S4_RjRKNS_5ctypeIwEE DATA
 0002:0001a984 00000018H .xdata$_ZNSt3__120__get_up_to_n_digitsIwNS_19istreambuf_iteratorIwNS_11char_traitsIwEEEEEEiRT0_S5_RjRKNS_5ctypeIT_EEi DATA
 0002:0001a99c 0000003cH .xdata$_ZNKSt3__18time_putIcNS_19ostreambuf_iteratorIcNS_11char_traitsIcEEEEE3putES4_RNS_8ios_baseEcPK2tmPKcSC_ DATA
 0002:0001a9d8 00000010H .xdata$_ZNKSt3__18time_putIcNS_19ostreambuf_iteratorIcNS_11char_traitsIcEEEEE6do_putES4_RNS_8ios_baseEcPK2tmcc DATA
 0002:0001a9e8 0000000cH .xdata$_ZNKSt3__110__time_put8__do_putEPcRS1_PK2tmcc DATA
 0002:0001a9f4 0000003cH .xdata$_ZNKSt3__18time_putIwNS_19ostreambuf_iteratorIwNS_11char_traitsIwEEEEE3putES4_RNS_8ios_baseEwPK2tmPKwSC_ DATA
 0002:0001aa30 00000010H .xdata$_ZNKSt3__18time_putIwNS_19ostreambuf_iteratorIwNS_11char_traitsIwEEEEE6do_putES4_RNS_8ios_baseEwPK2tmcc DATA
 0002:0001aa40 00000028H .xdata$_ZNKSt3__110__time_put8__do_putEPwRS1_PK2tmcc DATA
 0002:0001aa68 00000010H .xdata$_ZNKSt3__117moneypunct_bynameIcLb0EE11do_groupingEv DATA
 0002:0001aa78 00000010H .xdata$_ZNKSt3__117moneypunct_bynameIcLb0EE14do_curr_symbolEv DATA
 0002:0001aa88 00000010H .xdata$_ZNKSt3__117moneypunct_bynameIcLb0EE16do_positive_signEv DATA
 0002:0001aa98 00000010H .xdata$_ZNKSt3__117moneypunct_bynameIcLb0EE16do_negative_signEv DATA
 0002:0001aaa8 00000010H .xdata$_ZNKSt3__117moneypunct_bynameIcLb1EE11do_groupingEv DATA
 0002:0001aab8 00000010H .xdata$_ZNKSt3__117moneypunct_bynameIcLb1EE14do_curr_symbolEv DATA
 0002:0001aac8 00000010H .xdata$_ZNKSt3__117moneypunct_bynameIcLb1EE16do_positive_signEv DATA
 0002:0001aad8 00000010H .xdata$_ZNKSt3__117moneypunct_bynameIcLb1EE16do_negative_signEv DATA
 0002:0001aae8 00000010H .xdata$_ZNKSt3__117moneypunct_bynameIwLb0EE11do_groupingEv DATA
 0002:0001aaf8 00000010H .xdata$_ZNKSt3__117moneypunct_bynameIwLb0EE14do_curr_symbolEv DATA
 0002:0001ab08 00000010H .xdata$_ZNKSt3__117moneypunct_bynameIwLb0EE16do_positive_signEv DATA
 0002:0001ab18 00000010H .xdata$_ZNKSt3__117moneypunct_bynameIwLb0EE16do_negative_signEv DATA
 0002:0001ab28 00000010H .xdata$_ZNKSt3__117moneypunct_bynameIwLb1EE11do_groupingEv DATA
 0002:0001ab38 00000010H .xdata$_ZNKSt3__117moneypunct_bynameIwLb1EE14do_curr_symbolEv DATA
 0002:0001ab48 00000010H .xdata$_ZNKSt3__117moneypunct_bynameIwLb1EE16do_positive_signEv DATA
 0002:0001ab58 00000010H .xdata$_ZNKSt3__117moneypunct_bynameIwLb1EE16do_negative_signEv DATA
 0002:0001ab68 00000074H .xdata$_ZNKSt3__19money_getIcNS_19istreambuf_iteratorIcNS_11char_traitsIcEEEEE6do_getES4_S4_bRNS_8ios_baseERjRe DATA
 0002:0001abdc 000000bcH .xdata$_ZNSt3__19money_getIcNS_19istreambuf_iteratorIcNS_11char_traitsIcEEEEE8__do_getERS4_S4_bRKNS_6localeEjRjRbRKNS_5ctypeIcEERNS_10unique_ptrIcPFvPvEEERPcSM_ DATA
 0002:0001ac98 00000020H .xdata$_ZNSt3__121__throw_runtime_errorEPKc DATA
 0002:0001acb8 0000006cH .xdata$_ZNKSt3__19money_getIcNS_19istreambuf_iteratorIcNS_11char_traitsIcEEEEE6do_getES4_S4_bRNS_8ios_baseERjRNS_12basic_stringIcS3_NS_9allocatorIcEEEE DATA
 0002:0001ad24 00000034H .xdata$_ZNSt3__112basic_stringIcNS_11char_traitsIcEENS_9allocatorIcEEE6appendB6v15007IPcEENS_9enable_ifIXsr27__is_cpp17_forward_iteratorIT_EE5valueERS5_E4typeES9_S9_ DATA
 0002:0001ad58 00000018H .xdata$_ZNSt3__111__money_getIcE13__gather_infoEbRKNS_6localeERNS_10money_base7patternERcS8_RNS_12basic_stringIcNS_11char_traitsIcEENS_9allocatorIcEEEESF_SF_SF_Ri DATA
 0002:0001ad70 00000008H .xdata$_ZNSt3__116__check_groupingERKNS_12basic_stringIcNS_11char_traitsIcEENS_9allocatorIcEEEEPjS8_Rj DATA
 0002:0001ad78 00000074H .xdata$_ZNKSt3__19money_getIwNS_19istreambuf_iteratorIwNS_11char_traitsIwEEEEE6do_getES4_S4_bRNS_8ios_baseERjRe DATA
 0002:0001adec 000000c4H .xdata$_ZNSt3__19money_getIwNS_19istreambuf_iteratorIwNS_11char_traitsIwEEEEE8__do_getERS4_S4_bRKNS_6localeEjRjRbRKNS_5ctypeIwEERNS_10unique_ptrIwPFvPvEEERPwSM_ DATA
 0002:0001aeb0 0000006cH .xdata$_ZNKSt3__19money_getIwNS_19istreambuf_iteratorIwNS_11char_traitsIwEEEEE6do_getES4_S4_bRNS_8ios_baseERjRNS_12basic_stringIwS3_NS_9allocatorIwEEEE DATA
 0002:0001af1c 00000034H .xdata$_ZNSt3__112basic_stringIwNS_11char_traitsIwEENS_9allocatorIwEEE6appendB6v15007IPwEENS_9enable_ifIXsr27__is_cpp17_forward_iteratorIT_EE5valueERS5_E4typeES9_S9_ DATA
 0002:0001af50 00000018H .xdata$_ZNSt3__111__money_getIwE13__gather_infoEbRKNS_6localeERNS_10money_base7patternERwS8_RNS_12basic_stringIcNS_11char_traitsIcEENS_9allocatorIcEEEERNS9_IwNSA_IwEENSC_IwEEEESJ_SJ_Ri DATA
 0002:0001af68 00000068H .xdata$_ZNKSt3__19money_putIcNS_19ostreambuf_iteratorIcNS_11char_traitsIcEEEEE6do_putES4_bRNS_8ios_baseEce DATA
 0002:0001afd0 00000018H .xdata$_ZNSt3__111__money_putIcE13__gather_infoEbbRKNS_6localeERNS_10money_base7patternERcS8_RNS_12basic_stringIcNS_11char_traitsIcEENS_9allocatorIcEEEESF_SF_Ri DATA
 0002:0001afe8 00000018H .xdata$_ZNSt3__111__money_putIcE8__formatEPcRS2_S3_jPKcS5_RKNS_5ctypeIcEEbRKNS_10money_base7patternEccRKNS_12basic_stringIcNS_11char_traitsIcEENS_9allocatorIcEEEESL_SL_i DATA
 0002:0001b000 00000058H .xdata$_ZNKSt3__19money_putIcNS_19ostreambuf_iteratorIcNS_11char_traitsIcEEEEE6do_putES4_bRNS_8ios_baseEcRKNS_12basic_stringIcS3_NS_9allocatorIcEEEE DATA
 0002:0001b058 00000068H .xdata$_ZNKSt3__19money_putIwNS_19ostreambuf_iteratorIwNS_11char_traitsIwEEEEE6do_putES4_bRNS_8ios_baseEwe DATA
 0002:0001b0c0 00000018H .xdata$_ZNSt3__111__money_putIwE13__gather_infoEbbRKNS_6localeERNS_10money_base7patternERwS8_RNS_12basic_stringIcNS_11char_traitsIcEENS_9allocatorIcEEEERNS9_IwNSA_IwEENSC_IwEEEESJ_Ri DATA
 0002:0001b0d8 00000018H .xdata$_ZNSt3__111__money_putIwE8__formatEPwRS2_S3_jPKwS5_RKNS_5ctypeIwEEbRKNS_10money_base7patternEwwRKNS_12basic_stringIcNS_11char_traitsIcEENS_9allocatorIcEEEERKNSE_IwNSF_IwEENSH_IwEEEESQ_i DATA
 0002:0001b0f0 00000058H .xdata$_ZNKSt3__19money_putIwNS_19ostreambuf_iteratorIwNS_11char_traitsIwEEEEE6do_putES4_bRNS_8ios_baseEwRKNS_12basic_stringIwS3_NS_9allocatorIwEEEE DATA
 0002:0001b148 00000010H .xdata$_ZNKSt3__18messagesIcE6do_getExiiRKNS_12basic_stringIcNS_11char_traitsIcEENS_9allocatorIcEEEE DATA
 0002:0001b158 00000010H .xdata$_ZNKSt3__18messagesIwE6do_getExiiRKNS_12basic_stringIwNS_11char_traitsIwEENS_9allocatorIwEEEE DATA
 0002:0001b168 00000008H .xdata$_ZNSt3__114codecvt_bynameIcc9_MbstatetED0Ev DATA
 0002:0001b170 00000008H .xdata$_ZNSt3__114codecvt_bynameIwc9_MbstatetED0Ev DATA
 0002:0001b178 00000008H .xdata$_ZNSt3__114codecvt_bynameIDsc9_MbstatetED0Ev DATA
 0002:0001b180 00000008H .xdata$_ZNSt3__114codecvt_bynameIDic9_MbstatetED0Ev DATA
 0002:0001b188 00000008H .xdata$_ZNSt3__114codecvt_bynameIDsDu9_MbstatetED0Ev DATA
 0002:0001b190 00000008H .xdata$_ZNSt3__114codecvt_bynameIDiDu9_MbstatetED0Ev DATA
 0002:0001b198 00000008H .xdata$__dtor__ZZNSt3__16__clocEvE6result DATA
 0002:0001b1a0 00000060H .xdata$_ZNSt3__16locale5__impC2Ey DATA
 0002:0001b200 00000010H .xdata$_ZNSt3__112basic_stringIcNS_11char_traitsIcEENS_9allocatorIcEEEC2B6v15007IDnEEPKc DATA
 0002:0001b210 00000028H .xdata$_ZNSt3__16locale5__imp7installINS_7collateIcEEEEvPT_ DATA
 0002:0001b238 00000028H .xdata$_ZNSt3__16locale5__imp7installINS_7collateIwEEEEvPT_ DATA
 0002:0001b260 00000028H .xdata$_ZNSt3__16locale5__imp7installINS_5ctypeIcEEEEvPT_ DATA
 0002:0001b288 00000028H .xdata$_ZNSt3__16locale5__imp7installINS_5ctypeIwEEEEvPT_ DATA
 0002:0001b2b0 00000028H .xdata$_ZNSt3__16locale5__imp7installINS_7codecvtIcc9_MbstatetEEEEvPT_ DATA
 0002:0001b2d8 00000028H .xdata$_ZNSt3__16locale5__imp7installINS_7codecvtIwc9_MbstatetEEEEvPT_ DATA
 0002:0001b300 00000028H .xdata$_ZNSt3__16locale5__imp7installINS_7codecvtIDsc9_MbstatetEEEEvPT_ DATA
 0002:0001b328 00000028H .xdata$_ZNSt3__16locale5__imp7installINS_7codecvtIDic9_MbstatetEEEEvPT_ DATA
 0002:0001b350 00000028H .xdata$_ZNSt3__16locale5__imp7installINS_7codecvtIDsDu9_MbstatetEEEEvPT_ DATA
 0002:0001b378 00000028H .xdata$_ZNSt3__16locale5__imp7installINS_7codecvtIDiDu9_MbstatetEEEEvPT_ DATA
 0002:0001b3a0 00000028H .xdata$_ZNSt3__16locale5__imp7installINS_8numpunctIcEEEEvPT_ DATA
 0002:0001b3c8 00000028H .xdata$_ZNSt3__16locale5__imp7installINS_8numpunctIwEEEEvPT_ DATA
 0002:0001b3f0 00000028H .xdata$_ZNSt3__16locale5__imp7installINS_7num_getIcNS_19istreambuf_iteratorIcNS_11char_traitsIcEEEEEEEEvPT_ DATA
 0002:0001b418 00000028H .xdata$_ZNSt3__16locale5__imp7installINS_7num_getIwNS_19istreambuf_iteratorIwNS_11char_traitsIwEEEEEEEEvPT_ DATA
 0002:0001b440 00000028H .xdata$_ZNSt3__16locale5__imp7installINS_7num_putIcNS_19ostreambuf_iteratorIcNS_11char_traitsIcEEEEEEEEvPT_ DATA
 0002:0001b468 00000028H .xdata$_ZNSt3__16locale5__imp7installINS_7num_putIwNS_19ostreambuf_iteratorIwNS_11char_traitsIwEEEEEEEEvPT_ DATA
 0002:0001b490 00000028H .xdata$_ZNSt3__16locale5__imp7installINS_10moneypunctIcLb0EEEEEvPT_ DATA
 0002:0001b4b8 00000028H .xdata$_ZNSt3__16locale5__imp7installINS_10moneypunctIcLb1EEEEEvPT_ DATA
 0002:0001b4e0 00000028H .xdata$_ZNSt3__16locale5__imp7installINS_10moneypunctIwLb0EEEEEvPT_ DATA
 0002:0001b508 00000028H .xdata$_ZNSt3__16locale5__imp7installINS_10moneypunctIwLb1EEEEEvPT_ DATA
 0002:0001b530 00000028H .xdata$_ZNSt3__16locale5__imp7installINS_9money_getIcNS_19istreambuf_iteratorIcNS_11char_traitsIcEEEEEEEEvPT_ DATA
 0002:0001b558 00000028H .xdata$_ZNSt3__16locale5__imp7installINS_9money_getIwNS_19istreambuf_iteratorIwNS_11char_traitsIwEEEEEEEEvPT_ DATA
 0002:0001b580 00000028H .xdata$_ZNSt3__16locale5__imp7installINS_9money_putIcNS_19ostreambuf_iteratorIcNS_11char_traitsIcEEEEEEEEvPT_ DATA
 0002:0001b5a8 00000028H .xdata$_ZNSt3__16locale5__imp7installINS_9money_putIwNS_19ostreambuf_iteratorIwNS_11char_traitsIwEEEEEEEEvPT_ DATA
 0002:0001b5d0 00000028H .xdata$_ZNSt3__16locale5__imp7installINS_8time_getIcNS_19istreambuf_iteratorIcNS_11char_traitsIcEEEEEEEEvPT_ DATA
 0002:0001b5f8 00000028H .xdata$_ZNSt3__16locale5__imp7installINS_8time_getIwNS_19istreambuf_iteratorIwNS_11char_traitsIwEEEEEEEEvPT_ DATA
 0002:0001b620 00000028H .xdata$_ZNSt3__16locale5__imp7installINS_8time_putIcNS_19ostreambuf_iteratorIcNS_11char_traitsIcEEEEEEEEvPT_ DATA
 0002:0001b648 00000028H .xdata$_ZNSt3__16locale5__imp7installINS_8time_putIwNS_19ostreambuf_iteratorIwNS_11char_traitsIwEEEEEEEEvPT_ DATA
 0002:0001b670 00000028H .xdata$_ZNSt3__16locale5__imp7installINS_8messagesIcEEEEvPT_ DATA
 0002:0001b698 00000028H .xdata$_ZNSt3__16locale5__imp7installINS_8messagesIwEEEEvPT_ DATA
 0002:0001b6c0 00000118H .xdata$_ZNSt3__16locale5__impC2ERKNS_12basic_stringIcNS_11char_traitsIcEENS_9allocatorIcEEEEy DATA
 0002:0001b7d8 00000018H .xdata$_ZNSt3__16locale7classicEv DATA
 0002:0001b7f0 00000028H .xdata$_ZNSt3__16locale5__imp7installINS_14collate_bynameIcEEEEvPT_ DATA
 0002:0001b818 00000028H .xdata$_ZNSt3__16locale5__imp7installINS_14collate_bynameIwEEEEvPT_ DATA
 0002:0001b840 00000028H .xdata$_ZNSt3__16locale5__imp7installINS_12ctype_bynameIcEEEEvPT_ DATA
 0002:0001b868 00000028H .xdata$_ZNSt3__16locale5__imp7installINS_12ctype_bynameIwEEEEvPT_ DATA
 0002:0001b890 00000028H .xdata$_ZNSt3__16locale5__imp7installINS_14codecvt_bynameIcc9_MbstatetEEEEvPT_ DATA
 0002:0001b8b8 00000028H .xdata$_ZNSt3__16locale5__imp7installINS_14codecvt_bynameIwc9_MbstatetEEEEvPT_ DATA
 0002:0001b8e0 00000028H .xdata$_ZNSt3__16locale5__imp7installINS_14codecvt_bynameIDsc9_MbstatetEEEEvPT_ DATA
 0002:0001b908 00000028H .xdata$_ZNSt3__16locale5__imp7installINS_14codecvt_bynameIDic9_MbstatetEEEEvPT_ DATA
 0002:0001b930 00000028H .xdata$_ZNSt3__16locale5__imp7installINS_14codecvt_bynameIDsDu9_MbstatetEEEEvPT_ DATA
 0002:0001b958 00000028H .xdata$_ZNSt3__16locale5__imp7installINS_14codecvt_bynameIDiDu9_MbstatetEEEEvPT_ DATA
 0002:0001b980 00000028H .xdata$_ZNSt3__16locale5__imp7installINS_15numpunct_bynameIcEEEEvPT_ DATA
 0002:0001b9a8 00000028H .xdata$_ZNSt3__16locale5__imp7installINS_15numpunct_bynameIwEEEEvPT_ DATA
 0002:0001b9d0 00000028H .xdata$_ZNSt3__16locale5__imp7installINS_17moneypunct_bynameIcLb0EEEEEvPT_ DATA
 0002:0001b9f8 0000001cH .xdata$_ZNSt3__117moneypunct_bynameIcLb0EEC2B6v15007ERKNS_12basic_stringIcNS_11char_traitsIcEENS_9allocatorIcEEEEy DATA
 0002:0001ba14 00000028H .xdata$_ZNSt3__16locale5__imp7installINS_17moneypunct_bynameIcLb1EEEEEvPT_ DATA
 0002:0001ba3c 0000001cH .xdata$_ZNSt3__117moneypunct_bynameIcLb1EEC2B6v15007ERKNS_12basic_stringIcNS_11char_traitsIcEENS_9allocatorIcEEEEy DATA
 0002:0001ba58 00000028H .xdata$_ZNSt3__16locale5__imp7installINS_17moneypunct_bynameIwLb0EEEEEvPT_ DATA
 0002:0001ba80 0000001cH .xdata$_ZNSt3__117moneypunct_bynameIwLb0EEC2B6v15007ERKNS_12basic_stringIcNS_11char_traitsIcEENS_9allocatorIcEEEEy DATA
 0002:0001ba9c 00000028H .xdata$_ZNSt3__16locale5__imp7installINS_17moneypunct_bynameIwLb1EEEEEvPT_ DATA
 0002:0001bac4 0000001cH .xdata$_ZNSt3__117moneypunct_bynameIwLb1EEC2B6v15007ERKNS_12basic_stringIcNS_11char_traitsIcEENS_9allocatorIcEEEEy DATA
 0002:0001bae0 00000028H .xdata$_ZNSt3__16locale5__imp7installINS_15time_get_bynameIcNS_19istreambuf_iteratorIcNS_11char_traitsIcEEEEEEEEvPT_ DATA
 0002:0001bb08 00000028H .xdata$_ZNSt3__16locale5__imp7installINS_15time_get_bynameIwNS_19istreambuf_iteratorIwNS_11char_traitsIwEEEEEEEEvPT_ DATA
 0002:0001bb30 00000028H .xdata$_ZNSt3__16locale5__imp7installINS_15time_put_bynameIcNS_19ostreambuf_iteratorIcNS_11char_traitsIcEEEEEEEEvPT_ DATA
 0002:0001bb58 00000028H .xdata$_ZNSt3__16locale5__imp7installINS_15time_put_bynameIwNS_19ostreambuf_iteratorIwNS_11char_traitsIwEEEEEEEEvPT_ DATA
 0002:0001bb80 00000028H .xdata$_ZNSt3__16locale5__imp7installINS_15messages_bynameIcEEEEvPT_ DATA
 0002:0001bba8 00000028H .xdata$_ZNSt3__16locale5__imp7installINS_15messages_bynameIwEEEEvPT_ DATA
 0002:0001bbd0 0000004cH .xdata$_ZNSt3__16locale5__impC2ERKS1_ DATA
 0002:0001bc1c 00000108H .xdata$_ZNSt3__16locale5__impC2ERKS1_RKNS_12basic_stringIcNS_11char_traitsIcEENS_9allocatorIcEEEEi DATA
 0002:0001bd24 00000050H .xdata$_ZNSt3__16locale5__impC2ERKS1_S3_i DATA
 0002:0001bd74 00000028H .xdata$_ZNSt3__16locale5__imp12install_fromINS_7collateIcEEEEvRKS1_ DATA
 0002:0001bd9c 00000028H .xdata$_ZNSt3__16locale5__imp12install_fromINS_7collateIwEEEEvRKS1_ DATA
 0002:0001bdc4 00000028H .xdata$_ZNSt3__16locale5__imp12install_fromINS_5ctypeIcEEEEvRKS1_ DATA
 0002:0001bdec 00000028H .xdata$_ZNSt3__16locale5__imp12install_fromINS_5ctypeIwEEEEvRKS1_ DATA
 0002:0001be14 00000028H .xdata$_ZNSt3__16locale5__imp12install_fromINS_7codecvtIcc9_MbstatetEEEEvRKS1_ DATA
 0002:0001be3c 00000028H .xdata$_ZNSt3__16locale5__imp12install_fromINS_7codecvtIDsc9_MbstatetEEEEvRKS1_ DATA
 0002:0001be64 00000028H .xdata$_ZNSt3__16locale5__imp12install_fromINS_7codecvtIDic9_MbstatetEEEEvRKS1_ DATA
 0002:0001be8c 00000028H .xdata$_ZNSt3__16locale5__imp12install_fromINS_7codecvtIDsDu9_MbstatetEEEEvRKS1_ DATA
 0002:0001beb4 00000028H .xdata$_ZNSt3__16locale5__imp12install_fromINS_7codecvtIDiDu9_MbstatetEEEEvRKS1_ DATA
 0002:0001bedc 00000028H .xdata$_ZNSt3__16locale5__imp12install_fromINS_7codecvtIwc9_MbstatetEEEEvRKS1_ DATA
 0002:0001bf04 00000028H .xdata$_ZNSt3__16locale5__imp12install_fromINS_10moneypunctIcLb0EEEEEvRKS1_ DATA
 0002:0001bf2c 00000028H .xdata$_ZNSt3__16locale5__imp12install_fromINS_10moneypunctIcLb1EEEEEvRKS1_ DATA
 0002:0001bf54 00000028H .xdata$_ZNSt3__16locale5__imp12install_fromINS_10moneypunctIwLb0EEEEEvRKS1_ DATA
 0002:0001bf7c 00000028H .xdata$_ZNSt3__16locale5__imp12install_fromINS_10moneypunctIwLb1EEEEEvRKS1_ DATA
 0002:0001bfa4 00000028H .xdata$_ZNSt3__16locale5__imp12install_fromINS_9money_getIcNS_19istreambuf_iteratorIcNS_11char_traitsIcEEEEEEEEvRKS1_ DATA
 0002:0001bfcc 00000028H .xdata$_ZNSt3__16locale5__imp12install_fromINS_9money_getIwNS_19istreambuf_iteratorIwNS_11char_traitsIwEEEEEEEEvRKS1_ DATA
 0002:0001bff4 00000028H .xdata$_ZNSt3__16locale5__imp12install_fromINS_9money_putIcNS_19ostreambuf_iteratorIcNS_11char_traitsIcEEEEEEEEvRKS1_ DATA
 0002:0001c01c 00000028H .xdata$_ZNSt3__16locale5__imp12install_fromINS_9money_putIwNS_19ostreambuf_iteratorIwNS_11char_traitsIwEEEEEEEEvRKS1_ DATA
 0002:0001c044 00000028H .xdata$_ZNSt3__16locale5__imp12install_fromINS_8numpunctIcEEEEvRKS1_ DATA
 0002:0001c06c 00000028H .xdata$_ZNSt3__16locale5__imp12install_fromINS_8numpunctIwEEEEvRKS1_ DATA
 0002:0001c094 00000028H .xdata$_ZNSt3__16locale5__imp12install_fromINS_7num_getIcNS_19istreambuf_iteratorIcNS_11char_traitsIcEEEEEEEEvRKS1_ DATA
 0002:0001c0bc 00000028H .xdata$_ZNSt3__16locale5__imp12install_fromINS_7num_getIwNS_19istreambuf_iteratorIwNS_11char_traitsIwEEEEEEEEvRKS1_ DATA
 0002:0001c0e4 00000028H .xdata$_ZNSt3__16locale5__imp12install_fromINS_7num_putIcNS_19ostreambuf_iteratorIcNS_11char_traitsIcEEEEEEEEvRKS1_ DATA
 0002:0001c10c 00000028H .xdata$_ZNSt3__16locale5__imp12install_fromINS_7num_putIwNS_19ostreambuf_iteratorIwNS_11char_traitsIwEEEEEEEEvRKS1_ DATA
 0002:0001c134 00000028H .xdata$_ZNSt3__16locale5__imp12install_fromINS_8time_getIcNS_19istreambuf_iteratorIcNS_11char_traitsIcEEEEEEEEvRKS1_ DATA
 0002:0001c15c 00000028H .xdata$_ZNSt3__16locale5__imp12install_fromINS_8time_getIwNS_19istreambuf_iteratorIwNS_11char_traitsIwEEEEEEEEvRKS1_ DATA
 0002:0001c184 00000028H .xdata$_ZNSt3__16locale5__imp12install_fromINS_8time_putIcNS_19ostreambuf_iteratorIcNS_11char_traitsIcEEEEEEEEvRKS1_ DATA
 0002:0001c1ac 00000028H .xdata$_ZNSt3__16locale5__imp12install_fromINS_8time_putIwNS_19ostreambuf_iteratorIwNS_11char_traitsIwEEEEEEEEvRKS1_ DATA
 0002:0001c1d4 00000028H .xdata$_ZNSt3__16locale5__imp12install_fromINS_8messagesIcEEEEvRKS1_ DATA
 0002:0001c1fc 00000028H .xdata$_ZNSt3__16locale5__imp12install_fromINS_8messagesIwEEEEvRKS1_ DATA
 0002:0001c224 0000004cH .xdata$_ZNSt3__16locale5__impC2ERKS1_PNS0_5facetEl DATA
 0002:0001c270 00000020H .xdata$_ZNSt3__16locale5__imp7installEPNS0_5facetEl DATA
 0002:0001c290 0000000cH .xdata$_ZNSt3__16locale5__impD2Ev DATA
 0002:0001c29c 0000000cH .xdata$_ZNSt3__16locale5__impD0Ev DATA
 0002:0001c2a8 00000008H .xdata$_ZNKSt3__16locale5__imp9use_facetEl DATA
 0002:0001c2b0 00000008H .xdata$_ZNSt3__16locale5__imp12make_classicEv DATA
 0002:0001c2b8 00000018H .xdata$_ZNSt3__16locale5__imp11make_globalEv DATA
 0002:0001c2d0 00000018H .xdata$_ZNSt3__16locale8__globalEv DATA
 0002:0001c2e8 00000020H .xdata$_ZNSt3__16localeC2Ev DATA
 0002:0001c308 0000000cH .xdata$_ZNSt3__16localeaSERKS0_ DATA
 0002:0001c314 0000003cH .xdata$_ZNSt3__16localeC2EPKc DATA
 0002:0001c350 00000020H .xdata$_ZNSt3__16localeC2ERKNS_12basic_stringIcNS_11char_traitsIcEENS_9allocatorIcEEEE DATA
 0002:0001c370 00000040H .xdata$_ZNSt3__16localeC2ERKS0_PKci DATA
 0002:0001c3b0 00000024H .xdata$_ZNSt3__16localeC2ERKS0_RKNS_12basic_stringIcNS_11char_traitsIcEENS_9allocatorIcEEEEi DATA
 0002:0001c3d4 00000024H .xdata$_ZNSt3__16localeC2ERKS0_S2_i DATA
 0002:0001c3f8 00000010H .xdata$_ZNKSt3__16locale4nameEv DATA
 0002:0001c408 00000024H .xdata$_ZNSt3__16locale14__install_ctorERKS0_PNS0_5facetEl DATA
 0002:0001c42c 00000054H .xdata$_ZNSt3__16locale6globalERKS0_ DATA
 0002:0001c480 0000000cH .xdata$_ZNKSt3__16locale9has_facetERNS0_2idE DATA
 0002:0001c48c 00000008H .xdata$_ZNSt3__16locale2id5__getEv DATA
 0002:0001c494 0000000cH .xdata$_ZNKSt3__16locale9use_facetERNS0_2idE DATA
 0002:0001c4a0 0000000cH .xdata$_ZNKSt3__16localeeqERKS0_ DATA
 0002:0001c4ac 00000008H .xdata$_ZNSt3__16locale5facetD0Ev DATA
 0002:0001c4b4 00000034H .xdata$_ZNSt3__114collate_bynameIcEC2EPKcy DATA
 0002:0001c4e8 00000020H .xdata$_ZNSt3__112_GLOBAL__N_121__throw_runtime_errorERKNS_12basic_stringIcNS_11char_traitsIcEENS_9allocatorIcEEEE DATA
 0002:0001c508 0000000cH .xdata$_ZNSt3__1plB6v15007IcNS_11char_traitsIcEENS_9allocatorIcEEEENS_12basic_stringIT_T0_T1_EEPKS6_OS9_ DATA
 0002:0001c514 00000030H .xdata$_ZNSt3__114collate_bynameIcEC2ERKNS_12basic_stringIcNS_11char_traitsIcEENS_9allocatorIcEEEEy DATA
 0002:0001c544 00000024H .xdata$_ZNSt3__114collate_bynameIcED2Ev DATA
 0002:0001c568 00000024H .xdata$_ZNSt3__114collate_bynameIcED0Ev DATA
 0002:0001c58c 00000044H .xdata$_ZNKSt3__114collate_bynameIcE10do_compareEPKcS3_S3_S3_ DATA
 0002:0001c5d0 00000044H .xdata$_ZNKSt3__114collate_bynameIcE12do_transformEPKcS3_ DATA
 0002:0001c614 00000034H .xdata$_ZNSt3__114collate_bynameIwEC2EPKcy DATA
 0002:0001c648 00000030H .xdata$_ZNSt3__114collate_bynameIwEC2ERKNS_12basic_stringIcNS_11char_traitsIcEENS_9allocatorIcEEEEy DATA
 0002:0001c678 00000024H .xdata$_ZNSt3__114collate_bynameIwED2Ev DATA
 0002:0001c69c 00000024H .xdata$_ZNSt3__114collate_bynameIwED0Ev DATA
 0002:0001c6c0 00000044H .xdata$_ZNKSt3__114collate_bynameIwE10do_compareEPKwS3_S3_S3_ DATA
 0002:0001c704 00000048H .xdata$_ZNKSt3__114collate_bynameIwE12do_transformEPKwS3_ DATA
 0002:0001c74c 00000008H .xdata$_ZNSt3__15ctypeIwED0Ev DATA
 0002:0001c754 00000024H .xdata$_ZNKSt3__15ctypeIwE5do_isEtw DATA
 0002:0001c778 00000020H .xdata$_ZNSt3__15ctypeIcE13classic_tableEv DATA
 0002:0001c798 00000024H .xdata$_ZNKSt3__15ctypeIwE5do_isEPKwS3_Pt DATA
 0002:0001c7bc 00000024H .xdata$_ZNKSt3__15ctypeIwE10do_scan_isEtPKwS3_ DATA
 0002:0001c7e0 00000024H .xdata$_ZNKSt3__15ctypeIwE11do_scan_notEtPKwS3_ DATA
 0002:0001c804 00000020H .xdata$_ZNKSt3__15ctypeIwE10do_toupperEw DATA
 0002:0001c824 00000028H .xdata$_ZNKSt3__15ctypeIwE10do_toupperEPwPKw DATA
 0002:0001c84c 00000020H .xdata$_ZNKSt3__15ctypeIwE10do_tolowerEw DATA
 0002:0001c86c 00000028H .xdata$_ZNKSt3__15ctypeIwE10do_tolowerEPwPKw DATA
 0002:0001c894 00000008H .xdata$_ZNKSt3__15ctypeIwE8do_widenEPKcS3_Pw DATA
 0002:0001c89c 00000014H .xdata$_ZNKSt3__15ctypeIwE9do_narrowEPKwS3_cPc DATA
 0002:0001c8b0 00000020H .xdata$_ZNSt3__15ctypeIcEC2EPKtby DATA
 0002:0001c8d0 00000008H .xdata$_ZNSt3__15ctypeIcED2Ev DATA
 0002:0001c8d8 00000008H .xdata$_ZNSt3__15ctypeIcED0Ev DATA
 0002:0001c8e0 00000020H .xdata$_ZNKSt3__15ctypeIcE10do_toupperEc DATA
 0002:0001c900 00000028H .xdata$_ZNKSt3__15ctypeIcE10do_toupperEPcPKc DATA
 0002:0001c928 00000020H .xdata$_ZNKSt3__15ctypeIcE10do_tolowerEc DATA
 0002:0001c948 00000028H .xdata$_ZNKSt3__15ctypeIcE10do_tolowerEPcPKc DATA
 0002:0001c970 0000000cH .xdata$_ZNKSt3__15ctypeIcE8do_widenEPKcS3_Pc DATA
 0002:0001c97c 0000000cH .xdata$_ZNKSt3__15ctypeIcE9do_narrowEPKcS3_cPc DATA
 0002:0001c988 00000044H .xdata$_ZNSt3__112ctype_bynameIcEC2EPKcy DATA
 0002:0001c9cc 00000040H .xdata$_ZNSt3__112ctype_bynameIcEC2ERKNS_12basic_stringIcNS_11char_traitsIcEENS_9allocatorIcEEEEy DATA
 0002:0001ca0c 00000024H .xdata$_ZNSt3__112ctype_bynameIcED0Ev DATA
 0002:0001ca30 0000000cH .xdata$_ZNKSt3__112ctype_bynameIcE10do_toupperEPcPKc DATA
 0002:0001ca3c 0000000cH .xdata$_ZNKSt3__112ctype_bynameIcE10do_tolowerEPcPKc DATA
 0002:0001ca48 00000034H .xdata$_ZNSt3__112ctype_bynameIwEC2EPKcy DATA
 0002:0001ca7c 00000030H .xdata$_ZNSt3__112ctype_bynameIwEC2ERKNS_12basic_stringIcNS_11char_traitsIcEENS_9allocatorIcEEEEy DATA
 0002:0001caac 00000024H .xdata$_ZNSt3__112ctype_bynameIwED0Ev DATA
 0002:0001cad0 00000010H .xdata$_ZNKSt3__112ctype_bynameIwE5do_isEtw DATA
 0002:0001cae0 00000030H .xdata$_ZNKSt3__112ctype_bynameIwE5do_isEPKwS3_Pt DATA
 0002:0001cb10 00000018H .xdata$_ZNKSt3__112ctype_bynameIwE10do_scan_isEtPKwS3_ DATA
 0002:0001cb28 00000018H .xdata$_ZNKSt3__112ctype_bynameIwE11do_scan_notEtPKwS3_ DATA
 0002:0001cb40 0000000cH .xdata$_ZNKSt3__112ctype_bynameIwE10do_toupperEPwPKw DATA
 0002:0001cb4c 0000000cH .xdata$_ZNKSt3__112ctype_bynameIwE10do_tolowerEPwPKw DATA
 0002:0001cb58 0000001cH .xdata$_ZNKSt3__112ctype_bynameIwE8do_widenEc DATA
 0002:0001cb74 00000028H .xdata$_ZNKSt3__112ctype_bynameIwE8do_widenEPKcS3_Pw DATA
 0002:0001cb9c 0000001cH .xdata$_ZNKSt3__112ctype_bynameIwE9do_narrowEwc DATA
 0002:0001cbb8 0000002cH .xdata$_ZNKSt3__112ctype_bynameIwE9do_narrowEPKwS3_cPc DATA
 0002:0001cbe4 00000008H .xdata$_ZNSt3__17codecvtIcc9_MbstatetED0Ev DATA
 0002:0001cbec 0000001cH .xdata$_ZNSt3__17codecvtIwc9_MbstatetEC2Ey DATA
 0002:0001cc08 00000034H .xdata$_ZNSt3__17codecvtIwc9_MbstatetEC2EPKcy DATA
 0002:0001cc3c 00000008H .xdata$_ZNSt3__17codecvtIwc9_MbstatetED0Ev DATA
 0002:0001cc44 00000038H .xdata$_ZNKSt3__17codecvtIwc9_MbstatetE6do_outERS1_PKwS5_RS5_PcS7_RS7_ DATA
 0002:0001cc7c 00000038H .xdata$_ZNKSt3__17codecvtIwc9_MbstatetE5do_inERS1_PKcS5_RS5_PwS7_RS7_ DATA
 0002:0001ccb4 00000028H .xdata$_ZNKSt3__17codecvtIwc9_MbstatetE10do_unshiftERS1_PcS4_RS4_ DATA
 0002:0001ccdc 00000024H .xdata$_ZNKSt3__17codecvtIwc9_MbstatetE11do_encodingEv DATA
 0002:0001cd00 0000002cH .xdata$_ZNKSt3__17codecvtIwc9_MbstatetE9do_lengthERS1_PKcS5_y DATA
 0002:0001cd2c 00000024H .xdata$_ZNKSt3__17codecvtIwc9_MbstatetE13do_max_lengthEv DATA
 0002:0001cd50 00000008H .xdata$_ZNSt3__17codecvtIDsc9_MbstatetED0Ev DATA
 0002:0001cd58 0000000cH .xdata$_ZNKSt3__17codecvtIDsc9_MbstatetE6do_outERS1_PKDsS5_RS5_PcS7_RS7_ DATA
 0002:0001cd64 0000000cH .xdata$_ZNSt3__1L13utf16_to_utf8EPKtS1_RS1_PhS3_RS3_mNS_12codecvt_modeE DATA
 0002:0001cd70 0000000cH .xdata$_ZNKSt3__17codecvtIDsc9_MbstatetE5do_inERS1_PKcS5_RS5_PDsS7_RS7_ DATA
 0002:0001cd7c 00000014H .xdata$_ZNSt3__1L13utf8_to_utf16EPKhS1_RS1_PtS3_RS3_mNS_12codecvt_modeE DATA
 0002:0001cd90 00000008H .xdata$_ZNKSt3__17codecvtIDsc9_MbstatetE9do_lengthERS1_PKcS5_y DATA
 0002:0001cd98 00000010H .xdata$_ZNSt3__1L20utf8_to_utf16_lengthEPKhS1_ymNS_12codecvt_modeE DATA
 0002:0001cda8 00000008H .xdata$_ZNSt3__17codecvtIDsDu9_MbstatetED0Ev DATA
 0002:0001cdb0 0000000cH .xdata$_ZNKSt3__17codecvtIDsDu9_MbstatetE6do_outERS1_PKDsS5_RS5_PDuS7_RS7_ DATA
 0002:0001cdbc 0000000cH .xdata$_ZNKSt3__17codecvtIDsDu9_MbstatetE5do_inERS1_PKDuS5_RS5_PDsS7_RS7_ DATA
 0002:0001cdc8 00000008H .xdata$_ZNKSt3__17codecvtIDsDu9_MbstatetE9do_lengthERS1_PKDuS5_y DATA
 0002:0001cdd0 00000008H .xdata$_ZNSt3__17codecvtIDic9_MbstatetED0Ev DATA
 0002:0001cdd8 00000008H .xdata$_ZNKSt3__17codecvtIDic9_MbstatetE6do_outERS1_PKDiS5_RS5_PcS7_RS7_ DATA
 0002:0001cde0 0000000cH .xdata$_ZNKSt3__17codecvtIDic9_MbstatetE5do_inERS1_PKcS5_RS5_PDiS7_RS7_ DATA
 0002:0001cdec 00000010H .xdata$_ZNSt3__1L12utf8_to_ucs4EPKhS1_RS1_PjS3_RS3_mNS_12codecvt_modeE DATA
 0002:0001cdfc 00000008H .xdata$_ZNKSt3__17codecvtIDic9_MbstatetE9do_lengthERS1_PKcS5_y DATA
 0002:0001ce04 00000010H .xdata$_ZNSt3__1L19utf8_to_ucs4_lengthEPKhS1_ymNS_12codecvt_modeE DATA
 0002:0001ce14 00000008H .xdata$_ZNSt3__17codecvtIDiDu9_MbstatetED0Ev DATA
 0002:0001ce1c 00000008H .xdata$_ZNKSt3__17codecvtIDiDu9_MbstatetE6do_outERS1_PKDiS5_RS5_PDuS7_RS7_ DATA
 0002:0001ce24 0000000cH .xdata$_ZNKSt3__17codecvtIDiDu9_MbstatetE5do_inERS1_PKDuS5_RS5_PDiS7_RS7_ DATA
 0002:0001ce30 00000008H .xdata$_ZNKSt3__17codecvtIDiDu9_MbstatetE9do_lengthERS1_PKDuS5_y DATA
 0002:0001ce38 0000000cH .xdata$_ZNKSt3__114__codecvt_utf8IwE6do_outER9_MbstatetPKwS5_RS5_PcS7_RS7_ DATA
 0002:0001ce44 00000010H .xdata$_ZNKSt3__114__codecvt_utf8IwE5do_inER9_MbstatetPKcS5_RS5_PwS7_RS7_ DATA
 0002:0001ce54 0000000cH .xdata$_ZNSt3__1L12utf8_to_ucs2EPKhS1_RS1_PtS3_RS3_mNS_12codecvt_modeE DATA
 0002:0001ce60 00000008H .xdata$_ZNKSt3__114__codecvt_utf8IwE9do_lengthER9_MbstatetPKcS5_y DATA
 0002:0001ce68 0000000cH .xdata$_ZNSt3__1L19utf8_to_ucs2_lengthEPKhS1_ymNS_12codecvt_modeE DATA
 0002:0001ce74 0000000cH .xdata$_ZNKSt3__114__codecvt_utf8IDsE6do_outER9_MbstatetPKDsS5_RS5_PcS7_RS7_ DATA
 0002:0001ce80 00000010H .xdata$_ZNKSt3__114__codecvt_utf8IDsE5do_inER9_MbstatetPKcS5_RS5_PDsS7_RS7_ DATA
 0002:0001ce90 00000008H .xdata$_ZNKSt3__114__codecvt_utf8IDsE9do_lengthER9_MbstatetPKcS5_y DATA
 0002:0001ce98 0000000cH .xdata$_ZNKSt3__114__codecvt_utf8IDiE6do_outER9_MbstatetPKDiS5_RS5_PcS7_RS7_ DATA
 0002:0001cea4 00000010H .xdata$_ZNKSt3__114__codecvt_utf8IDiE5do_inER9_MbstatetPKcS5_RS5_PDiS7_RS7_ DATA
 0002:0001ceb4 00000008H .xdata$_ZNKSt3__114__codecvt_utf8IDiE9do_lengthER9_MbstatetPKcS5_y DATA
 0002:0001cebc 0000000cH .xdata$_ZNKSt3__115__codecvt_utf16IwLb0EE6do_outER9_MbstatetPKwS5_RS5_PcS7_RS7_ DATA
 0002:0001cec8 0000000cH .xdata$_ZNKSt3__115__codecvt_utf16IwLb0EE5do_inER9_MbstatetPKcS5_RS5_PwS7_RS7_ DATA
 0002:0001ced4 00000008H .xdata$_ZNKSt3__115__codecvt_utf16IwLb0EE9do_lengthER9_MbstatetPKcS5_y DATA
 0002:0001cedc 0000000cH .xdata$_ZNKSt3__115__codecvt_utf16IwLb1EE6do_outER9_MbstatetPKwS5_RS5_PcS7_RS7_ DATA
 0002:0001cee8 0000000cH .xdata$_ZNKSt3__115__codecvt_utf16IwLb1EE5do_inER9_MbstatetPKcS5_RS5_PwS7_RS7_ DATA
 0002:0001cef4 00000008H .xdata$_ZNKSt3__115__codecvt_utf16IwLb1EE9do_lengthER9_MbstatetPKcS5_y DATA
 0002:0001cefc 0000000cH .xdata$_ZNKSt3__115__codecvt_utf16IDsLb0EE6do_outER9_MbstatetPKDsS5_RS5_PcS7_RS7_ DATA
 0002:0001cf08 0000000cH .xdata$_ZNKSt3__115__codecvt_utf16IDsLb0EE5do_inER9_MbstatetPKcS5_RS5_PDsS7_RS7_ DATA
 0002:0001cf14 00000008H .xdata$_ZNKSt3__115__codecvt_utf16IDsLb0EE9do_lengthER9_MbstatetPKcS5_y DATA
 0002:0001cf1c 0000000cH .xdata$_ZNKSt3__115__codecvt_utf16IDsLb1EE6do_outER9_MbstatetPKDsS5_RS5_PcS7_RS7_ DATA
 0002:0001cf28 0000000cH .xdata$_ZNKSt3__115__codecvt_utf16IDsLb1EE5do_inER9_MbstatetPKcS5_RS5_PDsS7_RS7_ DATA
 0002:0001cf34 00000008H .xdata$_ZNKSt3__115__codecvt_utf16IDsLb1EE9do_lengthER9_MbstatetPKcS5_y DATA
 0002:0001cf3c 0000000cH .xdata$_ZNKSt3__115__codecvt_utf16IDiLb0EE6do_outER9_MbstatetPKDiS5_RS5_PcS7_RS7_ DATA
 0002:0001cf48 00000010H .xdata$_ZNKSt3__115__codecvt_utf16IDiLb0EE5do_inER9_MbstatetPKcS5_RS5_PDiS7_RS7_ DATA
 0002:0001cf58 0000000cH .xdata$_ZNKSt3__115__codecvt_utf16IDiLb0EE9do_lengthER9_MbstatetPKcS5_y DATA
 0002:0001cf64 0000000cH .xdata$_ZNKSt3__115__codecvt_utf16IDiLb1EE6do_outER9_MbstatetPKDiS5_RS5_PcS7_RS7_ DATA
 0002:0001cf70 00000010H .xdata$_ZNKSt3__115__codecvt_utf16IDiLb1EE5do_inER9_MbstatetPKcS5_RS5_PDiS7_RS7_ DATA
 0002:0001cf80 0000000cH .xdata$_ZNKSt3__115__codecvt_utf16IDiLb1EE9do_lengthER9_MbstatetPKcS5_y DATA
 0002:0001cf8c 00000010H .xdata$_ZNKSt3__120__codecvt_utf8_utf16IwE6do_outER9_MbstatetPKwS5_RS5_PcS7_RS7_ DATA
 0002:0001cf9c 00000010H .xdata$_ZNKSt3__120__codecvt_utf8_utf16IwE5do_inER9_MbstatetPKcS5_RS5_PwS7_RS7_ DATA
 0002:0001cfac 00000008H .xdata$_ZNKSt3__120__codecvt_utf8_utf16IwE9do_lengthER9_MbstatetPKcS5_y DATA
 0002:0001cfb4 00000010H .xdata$_ZNKSt3__120__codecvt_utf8_utf16IDsE6do_outER9_MbstatetPKDsS5_RS5_PcS7_RS7_ DATA
 0002:0001cfc4 00000010H .xdata$_ZNKSt3__120__codecvt_utf8_utf16IDsE5do_inER9_MbstatetPKcS5_RS5_PDsS7_RS7_ DATA
 0002:0001cfd4 00000008H .xdata$_ZNKSt3__120__codecvt_utf8_utf16IDsE9do_lengthER9_MbstatetPKcS5_y DATA
 0002:0001cfdc 00000010H .xdata$_ZNKSt3__120__codecvt_utf8_utf16IDiE6do_outER9_MbstatetPKDiS5_RS5_PcS7_RS7_ DATA
 0002:0001cfec 00000014H .xdata$_ZNKSt3__120__codecvt_utf8_utf16IDiE5do_inER9_MbstatetPKcS5_RS5_PDiS7_RS7_ DATA
 0002:0001d000 00000008H .xdata$_ZNKSt3__120__codecvt_utf8_utf16IDiE9do_lengthER9_MbstatetPKcS5_y DATA
 0002:0001d008 00000008H .xdata$_ZNSt3__116__narrow_to_utf8ILy16EED0Ev DATA
 0002:0001d010 00000008H .xdata$_ZNSt3__116__narrow_to_utf8ILy32EED0Ev DATA
 0002:0001d018 00000008H .xdata$_ZNSt3__117__widen_from_utf8ILy16EED0Ev DATA
 0002:0001d020 00000008H .xdata$_ZNSt3__117__widen_from_utf8ILy32EED0Ev DATA
 0002:0001d028 00000008H .xdata$_ZNSt3__18numpunctIcED2Ev DATA
 0002:0001d030 00000008H .xdata$_ZNSt3__18numpunctIcED0Ev DATA
 0002:0001d038 00000008H .xdata$_ZNSt3__18numpunctIwED2Ev DATA
 0002:0001d040 00000008H .xdata$_ZNSt3__18numpunctIwED0Ev DATA
 0002:0001d048 00000010H .xdata$_ZNKSt3__18numpunctIcE11do_groupingEv DATA
 0002:0001d058 00000010H .xdata$_ZNKSt3__18numpunctIwE11do_groupingEv DATA
 0002:0001d068 00000010H .xdata$_ZNSt3__112basic_stringIwNS_11char_traitsIwEENS_9allocatorIwEEEC2B6v15007IDnEEPKw DATA
 0002:0001d078 0000001cH .xdata$_ZNSt3__115numpunct_bynameIcEC2EPKcy DATA
 0002:0001d094 00000060H .xdata$_ZNSt3__115numpunct_bynameIcE6__initEPKc DATA
 0002:0001d0f4 0000001cH .xdata$_ZNSt3__115numpunct_bynameIcEC2ERKNS_12basic_stringIcNS_11char_traitsIcEENS_9allocatorIcEEEEy DATA
 0002:0001d110 00000008H .xdata$_ZNSt3__115numpunct_bynameIcED0Ev DATA
 0002:0001d118 00000028H .xdata$_ZNSt3__1L30checked_string_to_char_convertERcPKc8locale_t DATA
 0002:0001d140 00000020H .xdata$_ZNSt3__122__libcpp_unique_localeD2Ev DATA
 0002:0001d160 0000001cH .xdata$_ZNSt3__115numpunct_bynameIwEC2EPKcy DATA
 0002:0001d17c 00000064H .xdata$_ZNSt3__115numpunct_bynameIwE6__initEPKc DATA
 0002:0001d1e0 0000001cH .xdata$_ZNSt3__115numpunct_bynameIwEC2ERKNS_12basic_stringIcNS_11char_traitsIcEENS_9allocatorIcEEEEy DATA
 0002:0001d1fc 00000008H .xdata$_ZNSt3__115numpunct_bynameIwED0Ev DATA
 0002:0001d204 00000018H .xdata$_ZNKSt3__120__time_get_c_storageIcE7__weeksEv DATA
 0002:0001d21c 00000008H .xdata$_ZNSt3__1L10init_weeksEv DATA
 0002:0001d224 00000018H .xdata$_ZNKSt3__120__time_get_c_storageIwE7__weeksEv DATA
 0002:0001d23c 00000008H .xdata$_ZNSt3__1L11init_wweeksEv DATA
 0002:0001d244 00000018H .xdata$_ZNKSt3__120__time_get_c_storageIcE8__monthsEv DATA
 0002:0001d25c 00000008H .xdata$_ZNSt3__1L11init_monthsEv DATA
 0002:0001d264 00000018H .xdata$_ZNKSt3__120__time_get_c_storageIwE8__monthsEv DATA
 0002:0001d27c 00000008H .xdata$_ZNSt3__1L12init_wmonthsEv DATA
 0002:0001d284 00000018H .xdata$_ZNKSt3__120__time_get_c_storageIcE7__am_pmEv DATA
 0002:0001d29c 00000008H .xdata$_ZNSt3__1L10init_am_pmEv DATA
 0002:0001d2a4 00000018H .xdata$_ZNKSt3__120__time_get_c_storageIwE7__am_pmEv DATA
 0002:0001d2bc 00000008H .xdata$_ZNSt3__1L11init_wam_pmEv DATA
 0002:0001d2c4 00000018H .xdata$_ZNKSt3__120__time_get_c_storageIcE3__xEv DATA
 0002:0001d2dc 00000018H .xdata$_ZNKSt3__120__time_get_c_storageIwE3__xEv DATA
 0002:0001d2f4 00000018H .xdata$_ZNKSt3__120__time_get_c_storageIcE3__XEv DATA
 0002:0001d30c 00000018H .xdata$_ZNKSt3__120__time_get_c_storageIwE3__XEv DATA
 0002:0001d324 00000018H .xdata$_ZNKSt3__120__time_get_c_storageIcE3__cEv DATA
 0002:0001d33c 00000018H .xdata$_ZNKSt3__120__time_get_c_storageIwE3__cEv DATA
 0002:0001d354 00000018H .xdata$_ZNKSt3__120__time_get_c_storageIcE3__rEv DATA
 0002:0001d36c 00000018H .xdata$_ZNKSt3__120__time_get_c_storageIwE3__rEv DATA
 0002:0001d384 00000030H .xdata$_ZNSt3__110__time_getC2EPKc DATA
 0002:0001d3b4 00000028H .xdata$_ZNSt3__110__time_getC2ERKNS_12basic_stringIcNS_11char_traitsIcEENS_9allocatorIcEEEE DATA
 0002:0001d3dc 00000020H .xdata$_ZNSt3__110__time_getD2Ev DATA
 0002:0001d3fc 00000058H .xdata$_ZNSt3__118__time_get_storageIcE9__analyzeEcRKNS_5ctypeIcEE DATA
 0002:0001d454 00000038H .xdata$_ZNSt3__114__scan_keywordIPcPNS_12basic_stringIcNS_11char_traitsIcEENS_9allocatorIcEEEENS_5ctypeIcEEEET0_RT_SC_SB_SB_RKT1_Rjb DATA
 0002:0001d48c 00000060H .xdata$_ZNSt3__118__time_get_storageIwE9__analyzeEcRKNS_5ctypeIwEE DATA
 0002:0001d4ec 00000038H .xdata$_ZNSt3__114__scan_keywordIPwPNS_12basic_stringIwNS_11char_traitsIwEENS_9allocatorIwEEEENS_5ctypeIwEEEET0_RT_SC_SB_SB_RKT1_Rjb DATA
 0002:0001d524 00000018H .xdata$_ZNSt3__118__time_get_storageIcE4initERKNS_5ctypeIcEE DATA
 0002:0001d53c 00000070H .xdata$_ZNSt3__118__time_get_storageIwE4initERKNS_5ctypeIwEE DATA
 0002:0001d5ac 00000030H .xdata$_ZNSt3__112basic_stringIwNS_11char_traitsIwEENS_9allocatorIwEEE6assignIPwEENS_9enable_ifIXsr27__is_cpp17_forward_iteratorIT_EE5valueERS5_E4typeES9_S9_ DATA
 0002:0001d5dc 00000038H .xdata$_ZNSt3__118__time_get_storageIcEC2EPKc DATA
 0002:0001d614 00000024H .xdata$_ZNSt3__112ctype_bynameIcED2Ev DATA
 0002:0001d638 00000038H .xdata$_ZNSt3__118__time_get_storageIcEC2ERKNS_12basic_stringIcNS_11char_traitsIcEENS_9allocatorIcEEEE DATA
 0002:0001d670 00000038H .xdata$_ZNSt3__118__time_get_storageIwEC2EPKc DATA
 0002:0001d6a8 00000024H .xdata$_ZNSt3__112ctype_bynameIwED2Ev DATA
 0002:0001d6cc 00000038H .xdata$_ZNSt3__118__time_get_storageIwEC2ERKNS_12basic_stringIcNS_11char_traitsIcEENS_9allocatorIcEEEE DATA
 0002:0001d704 00000030H .xdata$_ZNSt3__110__time_putC2EPKc DATA
 0002:0001d734 00000028H .xdata$_ZNSt3__110__time_putC2ERKNS_12basic_stringIcNS_11char_traitsIcEENS_9allocatorIcEEEE DATA
 0002:0001d75c 00000028H .xdata$_ZNSt3__110__time_putD2Ev DATA
 0002:0001d784 00000078H .xdata$_ZNSt3__117moneypunct_bynameIcLb0EE4initEPKc DATA
 0002:0001d7fc 00000018H .xdata$_ZNSt3__1L10__init_patIcEEvRNS_10money_base7patternERNS_12basic_stringIT_NS_11char_traitsIS5_EENS_9allocatorIS5_EEEEbcccS5_ DATA
 0002:0001d814 00000078H .xdata$_ZNSt3__117moneypunct_bynameIcLb1EE4initEPKc DATA
 0002:0001d88c 000000b0H .xdata$_ZNSt3__117moneypunct_bynameIwLb0EE4initEPKc DATA
 0002:0001d93c 00000018H .xdata$_ZNSt3__1L10__init_patIwEEvRNS_10money_base7patternERNS_12basic_stringIT_NS_11char_traitsIS5_EENS_9allocatorIS5_EEEEbcccS5_ DATA
 0002:0001d954 000000b0H .xdata$_ZNSt3__117moneypunct_bynameIwLb1EE4initEPKc DATA
 0002:0001da04 00000028H .xdata$_ZNSt3__17codecvtIwc9_MbstatetED2Ev DATA
 0002:0001da2c 00000008H .xdata$_ZNSt3__114__codecvt_utf8IwED0Ev DATA
 0002:0001da34 00000008H .xdata$_ZNSt3__114__codecvt_utf8IDsED0Ev DATA
 0002:0001da3c 00000008H .xdata$_ZNSt3__114__codecvt_utf8IDiED0Ev DATA
 0002:0001da44 00000008H .xdata$_ZNSt3__115__codecvt_utf16IwLb0EED0Ev DATA
 0002:0001da4c 00000008H .xdata$_ZNSt3__115__codecvt_utf16IwLb1EED0Ev DATA
 0002:0001da54 00000008H .xdata$_ZNSt3__115__codecvt_utf16IDsLb0EED0Ev DATA
 0002:0001da5c 00000008H .xdata$_ZNSt3__115__codecvt_utf16IDsLb1EED0Ev DATA
 0002:0001da64 00000008H .xdata$_ZNSt3__115__codecvt_utf16IDiLb0EED0Ev DATA
 0002:0001da6c 00000008H .xdata$_ZNSt3__115__codecvt_utf16IDiLb1EED0Ev DATA
 0002:0001da74 00000008H .xdata$_ZNSt3__120__codecvt_utf8_utf16IwED0Ev DATA
 0002:0001da7c 00000008H .xdata$_ZNSt3__120__codecvt_utf8_utf16IDiED0Ev DATA
 0002:0001da84 00000008H .xdata$_ZNSt3__120__codecvt_utf8_utf16IDsED0Ev DATA
 0002:0001da8c 00000008H .xdata$_ZNSt3__17num_getIcNS_19istreambuf_iteratorIcNS_11char_traitsIcEEEEED0B6v15007Ev DATA
 0002:0001da94 00000008H .xdata$_ZNSt3__17num_getIwNS_19istreambuf_iteratorIwNS_11char_traitsIwEEEEED0B6v15007Ev DATA
 0002:0001da9c 00000008H .xdata$_ZNSt3__17num_putIcNS_19ostreambuf_iteratorIcNS_11char_traitsIcEEEEED0B6v15007Ev DATA
 0002:0001daa4 00000008H .xdata$_ZNSt3__17num_putIwNS_19ostreambuf_iteratorIwNS_11char_traitsIwEEEEED0B6v15007Ev DATA
 0002:0001daac 00000008H .xdata$_ZNSt3__18time_getIcNS_19istreambuf_iteratorIcNS_11char_traitsIcEEEEED0B6v15007Ev DATA
 0002:0001dab4 00000008H .xdata$_ZNSt3__18time_getIwNS_19istreambuf_iteratorIwNS_11char_traitsIwEEEEED0B6v15007Ev DATA
 0002:0001dabc 00000008H .xdata$_ZNSt3__115time_get_bynameIcNS_19istreambuf_iteratorIcNS_11char_traitsIcEEEEED2B6v15007Ev DATA
 0002:0001dac4 00000008H .xdata$_ZNSt3__115time_get_bynameIcNS_19istreambuf_iteratorIcNS_11char_traitsIcEEEEED0B6v15007Ev DATA
 0002:0001dacc 00000008H .xdata$_ZNSt3__115time_get_bynameIwNS_19istreambuf_iteratorIwNS_11char_traitsIwEEEEED2B6v15007Ev DATA
 0002:0001dad4 00000008H .xdata$_ZNSt3__115time_get_bynameIwNS_19istreambuf_iteratorIwNS_11char_traitsIwEEEEED0B6v15007Ev DATA
 0002:0001dadc 00000008H .xdata$_ZNSt3__18time_putIcNS_19ostreambuf_iteratorIcNS_11char_traitsIcEEEEED2B6v15007Ev DATA
 0002:0001dae4 00000008H .xdata$_ZNSt3__18time_putIcNS_19ostreambuf_iteratorIcNS_11char_traitsIcEEEEED0B6v15007Ev DATA
 0002:0001daec 00000008H .xdata$_ZNSt3__18time_putIwNS_19ostreambuf_iteratorIwNS_11char_traitsIwEEEEED0B6v15007Ev DATA
 0002:0001daf4 00000008H .xdata$_ZNSt3__115time_put_bynameIcNS_19ostreambuf_iteratorIcNS_11char_traitsIcEEEEED0B6v15007Ev DATA
 0002:0001dafc 00000008H .xdata$_ZNSt3__18time_putIwNS_19ostreambuf_iteratorIwNS_11char_traitsIwEEEEED2B6v15007Ev DATA
 0002:0001db04 00000008H .xdata$_ZNSt3__115time_put_bynameIwNS_19ostreambuf_iteratorIwNS_11char_traitsIwEEEEED0B6v15007Ev DATA
 0002:0001db0c 00000008H .xdata$_ZNSt3__110moneypunctIcLb0EED0B6v15007Ev DATA
 0002:0001db14 00000008H .xdata$_ZNSt3__110moneypunctIcLb1EED0B6v15007Ev DATA
 0002:0001db1c 00000008H .xdata$_ZNSt3__110moneypunctIwLb0EED0B6v15007Ev DATA
 0002:0001db24 00000008H .xdata$_ZNSt3__110moneypunctIwLb1EED0B6v15007Ev DATA
 0002:0001db2c 00000008H .xdata$_ZNSt3__117moneypunct_bynameIcLb0EED2B6v15007Ev DATA
 0002:0001db34 00000008H .xdata$_ZNSt3__117moneypunct_bynameIcLb0EED0B6v15007Ev DATA
 0002:0001db3c 00000008H .xdata$_ZNSt3__117moneypunct_bynameIcLb1EED2B6v15007Ev DATA
 0002:0001db44 00000008H .xdata$_ZNSt3__117moneypunct_bynameIcLb1EED0B6v15007Ev DATA
 0002:0001db4c 00000008H .xdata$_ZNSt3__117moneypunct_bynameIwLb0EED2B6v15007Ev DATA
 0002:0001db54 00000008H .xdata$_ZNSt3__117moneypunct_bynameIwLb0EED0B6v15007Ev DATA
 0002:0001db5c 00000008H .xdata$_ZNSt3__117moneypunct_bynameIwLb1EED2B6v15007Ev DATA
 0002:0001db64 00000008H .xdata$_ZNSt3__117moneypunct_bynameIwLb1EED0B6v15007Ev DATA
 0002:0001db6c 00000008H .xdata$_ZNSt3__19money_getIcNS_19istreambuf_iteratorIcNS_11char_traitsIcEEEEED0B6v15007Ev DATA
 0002:0001db74 00000008H .xdata$_ZNSt3__19money_getIwNS_19istreambuf_iteratorIwNS_11char_traitsIwEEEEED0B6v15007Ev DATA
 0002:0001db7c 00000008H .xdata$_ZNSt3__19money_putIcNS_19ostreambuf_iteratorIcNS_11char_traitsIcEEEEED0B6v15007Ev DATA
 0002:0001db84 00000008H .xdata$_ZNSt3__19money_putIwNS_19ostreambuf_iteratorIwNS_11char_traitsIwEEEEED0B6v15007Ev DATA
 0002:0001db8c 00000008H .xdata$_ZNSt3__18messagesIcED0B6v15007Ev DATA
 0002:0001db94 00000008H .xdata$_ZNSt3__18messagesIwED0B6v15007Ev DATA
 0002:0001db9c 00000008H .xdata$_ZNSt3__115messages_bynameIcED0B6v15007Ev DATA
 0002:0001dba4 00000008H .xdata$_ZNSt3__115messages_bynameIwED0B6v15007Ev DATA
 0002:0001dbac 00000008H .xdata$_ZNKSt3__16vectorIPNS_6locale5facetENS_15__sso_allocatorIS3_Ly30EEEE20__throw_length_errorB6v15007Ev DATA
 0002:0001dbb4 00000018H .xdata$_ZNSt3__16vectorIPNS_6locale5facetENS_15__sso_allocatorIS3_Ly30EEEE6assignIPS3_EENS_9enable_ifIXaasr27__is_cpp17_forward_iteratorIT_EE5valuesr16is_constructibleIS3_NS_15iterator_traitsISA_E9referenceEEE5valueEvE4typeESA_SA_ DATA
 0002:0001dbcc 00000014H .xdata$_ZNSt3__16vectorIPNS_6locale5facetENS_15__sso_allocatorIS3_Ly30EEEE8__appendEy DATA
 0002:0001dbe0 00000008H .xdata$__dtor__ZZNSt3__1L10init_weeksEvE5weeks DATA
 0002:0001dbe8 00000008H .xdata$__dtor__ZZNSt3__1L11init_wweeksEvE5weeks DATA
 0002:0001dbf0 00000008H .xdata$__dtor__ZZNSt3__1L11init_monthsEvE6months DATA
 0002:0001dbf8 00000008H .xdata$__dtor__ZZNSt3__1L12init_wmonthsEvE6months DATA
 0002:0001dc00 00000008H .xdata$__dtor__ZZNSt3__1L10init_am_pmEvE5am_pm DATA
 0002:0001dc08 00000008H .xdata$__dtor__ZZNSt3__1L11init_wam_pmEvE5am_pm DATA
 0002:0001dc10 00000024H .xdata$_ZNSt3__115__time_get_tempIcED0Ev DATA
 0002:0001dc34 00000024H .xdata$_ZNSt3__115__time_get_tempIwED0Ev DATA
 0002:0001dc58 00000010H .xdata$_ZNSt3__112basic_stringIcNS_11char_traitsIcEENS_9allocatorIcEEE5eraseB6v15007ENS_11__wrap_iterIPKcEE DATA
 0002:0001dc68 00000010H .xdata$_ZNSt3__112basic_stringIwNS_11char_traitsIwEENS_9allocatorIwEEE5eraseB6v15007ENS_11__wrap_iterIPKwEE DATA
 0002:0001dc78 00000028H .xdata$_ZNSt3__125__num_get_signed_integralIlEET_PKcS3_Rji DATA
 0002:0001dca0 00000028H .xdata$_ZNSt3__125__num_get_signed_integralIxEET_PKcS3_Rji DATA
 0002:0001dcc8 0000002cH .xdata$_ZNSt3__127__num_get_unsigned_integralItEET_PKcS3_Rji DATA
 0002:0001dcf4 0000002cH .xdata$_ZNSt3__127__num_get_unsigned_integralIjEET_PKcS3_Rji DATA
 0002:0001dd20 0000002cH .xdata$_ZNSt3__127__num_get_unsigned_integralImEET_PKcS3_Rji DATA
 0002:0001dd4c 0000002cH .xdata$_ZNSt3__127__num_get_unsigned_integralIyEET_PKcS3_Rji DATA
 0002:0001dd78 0000002cH .xdata$_ZNSt3__115__num_get_floatIfEET_PKcS3_Rj DATA
 0002:0001dda4 0000002cH .xdata$_ZNSt3__115__num_get_floatIdEET_PKcS3_Rj DATA
 0002:0001ddd0 0000002cH .xdata$_ZNSt3__115__num_get_floatIeEET_PKcS3_Rj DATA
 0002:0001ddfc 00000024H .xdata$_ZNSt3__118__time_get_storageIcED2B6v15007Ev DATA
 0002:0001de20 00000024H .xdata$_ZNSt3__118__time_get_storageIwED2B6v15007Ev DATA
 0002:0001de44 00000018H .xdata$_GCC_specific_handler DATA
 0002:0001de5c 0000000cH .xdata$__libunwind_seh_personality DATA
 0002:0001de68 00000008H .xdata$_Unwind_RaiseException DATA
 0002:0001de70 0000000cH .xdata$_Unwind_Resume   DATA
 0002:0001de7c 00000018H .xdata$_ZL20unwind_phase2_forcedP13unw_context_tP17_Unwind_ExceptionPF19_Unwind_Reason_Codei14_Unwind_ActionyS2_P15_Unwind_ContextPvES7_ DATA
 0002:0001de94 00000010H .xdata$_Unwind_ForcedUnwind DATA
 0002:0001dea4 0000000cH .xdata$_Unwind_GetLanguageSpecificData DATA
 0002:0001deb0 0000000cH .xdata$_Unwind_GetRegionStart DATA
 0002:0001debc 00000008H .xdata$_ZN9libunwind12UnwindCursorINS_17LocalAddressSpaceENS_16Registers_x86_64EE6getRegEi DATA
 0002:0001dec4 00000008H .xdata$_ZN9libunwind12UnwindCursorINS_17LocalAddressSpaceENS_16Registers_x86_64EE6setRegEiy DATA
 0002:0001decc 00000008H .xdata$_ZN9libunwind12UnwindCursorINS_17LocalAddressSpaceENS_16Registers_x86_64EE11getFloatRegEi DATA
 0002:0001ded4 00000008H .xdata$_ZN9libunwind12UnwindCursorINS_17LocalAddressSpaceENS_16Registers_x86_64EE11setFloatRegEid DATA
 0002:0001dedc 00000008H .xdata$_ZN9libunwind12UnwindCursorINS_17LocalAddressSpaceENS_16Registers_x86_64EE4stepEv DATA
 0002:0001dee4 00000008H .xdata$_ZN9libunwind12UnwindCursorINS_17LocalAddressSpaceENS_16Registers_x86_64EE15getFunctionNameEPcyPy DATA
 0002:0001deec 0000000cH .xdata$_ZN9libunwind12UnwindCursorINS_17LocalAddressSpaceENS_16Registers_x86_64EE24setInfoBasedOnIPRegisterEb DATA
 0002:0001def8 0000000cH .xdata$_ZN9libunwind12UnwindCursorINS_17LocalAddressSpaceENS_16Registers_x86_64EE14getInfoFromSEHEy DATA
 0002:0001df04 00000078H .xdata                  DATA
 0002:0001df7c 00000008H .xdata$__cxa_get_globals DATA
 0002:0001df84 00000008H .xdata$__cxa_get_globals_fast DATA
 0002:0001df8c 00000008H .xdata$_ZN10__cxxabiv112_GLOBAL__N_110construct_Ev DATA
 0002:0001df94 00000008H .xdata$_ZN10__cxxabiv112_GLOBAL__N_19destruct_EPv DATA
 0002:0001df9c 00000008H .xdata$abort_message    DATA
 0002:0001dfa4 00000090H .xdata$_ZL28demangling_terminate_handlerv DATA
 0002:0001e034 00000008H .xdata$_ZL29demangling_unexpected_handlerv DATA
 0002:0001e03c 0000002cH .xdata$_ZN10__cxxabiv130__aligned_malloc_with_fallbackEy DATA
 0002:0001e068 00000034H .xdata$_ZN10__cxxabiv122__calloc_with_fallbackEyy DATA
 0002:0001e09c 00000030H .xdata$_ZN10__cxxabiv128__aligned_free_with_fallbackEPv DATA
 0002:0001e0cc 00000030H .xdata$_ZN10__cxxabiv120__free_with_fallbackEPv DATA
 0002:0001e0fc 0000002cH .xdata$_ZN10__cxxabiv130__aligned_malloc_with_fallbackEy DATA
 0002:0001e128 00000034H .xdata$_ZN10__cxxabiv122__calloc_with_fallbackEyy DATA
 0002:0001e15c 00000030H .xdata$_ZN10__cxxabiv128__aligned_free_with_fallbackEPv DATA
 0002:0001e18c 00000030H .xdata$_ZN10__cxxabiv120__free_with_fallbackEPv DATA
 0002:0001e1bc 00000008H .xdata$_ZN6System14_RaiseAtExceptEPNS_7TObjectEPv DATA
 0002:0001e1c4 00000008H .xdata$__throw_as_delphi DATA
 0002:0001e1cc 0000000cH .xdata$_Z13__notifyThrowPvPSt9type_infoS_ DATA
 0002:0001e1d8 00000008H .xdata$_Unwind_DeleteException DATA
 0002:0001e1e0 0000000cH .xdata$_Unwind_GetGR    DATA
 0002:0001e1ec 0000000cH .xdata$_Unwind_SetGR    DATA
 0002:0001e1f8 00000008H .xdata$_Unwind_GetIP    DATA
 0002:0001e200 0000000cH .xdata$_Unwind_SetIP    DATA
 0002:0001e20c 00000008H .xdata$_ZN10__cxxabiv123__fundamental_type_infoD0Ev DATA
 0002:0001e214 00000008H .xdata$_ZN10__cxxabiv117__array_type_infoD0Ev DATA
 0002:0001e21c 00000008H .xdata$_ZN10__cxxabiv120__function_type_infoD0Ev DATA
 0002:0001e224 00000008H .xdata$_ZN10__cxxabiv116__enum_type_infoD0Ev DATA
 0002:0001e22c 00000008H .xdata$_ZN10__cxxabiv117__class_type_infoD0Ev DATA
 0002:0001e234 00000008H .xdata$_ZN10__cxxabiv120__si_class_type_infoD0Ev DATA
 0002:0001e23c 00000008H .xdata$_ZN10__cxxabiv121__vmi_class_type_infoD0Ev DATA
 0002:0001e244 00000008H .xdata$_ZN10__cxxabiv117__pbase_type_infoD0Ev DATA
 0002:0001e24c 00000008H .xdata$_ZN10__cxxabiv119__pointer_type_infoD0Ev DATA
 0002:0001e254 00000008H .xdata$_ZN10__cxxabiv129__pointer_to_member_type_infoD0Ev DATA
 0002:0001e25c 00000008H .xdata$_ZNK10__cxxabiv123__fundamental_type_info9can_catchEPKNS_16__shim_type_infoERPv DATA
 0002:0001e264 00000008H .xdata$_ZNK10__cxxabiv116__enum_type_info9can_catchEPKNS_16__shim_type_infoERPv DATA
 0002:0001e26c 00000010H .xdata$_ZNK10__cxxabiv117__class_type_info9can_catchEPKNS_16__shim_type_infoERPv DATA
 0002:0001e27c 0000000cH .xdata$__dynamic_cast   DATA
 0002:0001e288 0000000cH .xdata$_ZNK10__cxxabiv117__class_type_info27has_unambiguous_public_baseEPNS_19__dynamic_cast_infoEPvi DATA
 0002:0001e294 00000010H .xdata$_ZNK10__cxxabiv120__si_class_type_info27has_unambiguous_public_baseEPNS_19__dynamic_cast_infoEPvi DATA
 0002:0001e2a4 00000014H .xdata$_ZNK10__cxxabiv121__vmi_class_type_info27has_unambiguous_public_baseEPNS_19__dynamic_cast_infoEPvi DATA
 0002:0001e2b8 0000000cH .xdata$_ZNK10__cxxabiv117__pbase_type_info9can_catchEPKNS_16__shim_type_infoERPv DATA
 0002:0001e2c4 00000014H .xdata$_ZNK10__cxxabiv119__pointer_type_info9can_catchEPKNS_16__shim_type_infoERPv DATA
 0002:0001e2d8 00000014H .xdata$_ZNK10__cxxabiv119__pointer_type_info16can_catch_nestedEPKNS_16__shim_type_infoE DATA
 0002:0001e2ec 0000000cH .xdata$_ZNK10__cxxabiv129__pointer_to_member_type_info16can_catch_nestedEPKNS_16__shim_type_infoE DATA
 0002:0001e2f8 00000010H .xdata$_ZNK10__cxxabiv129__pointer_to_member_type_info9can_catchEPKNS_16__shim_type_infoERPv DATA
 0002:0001e308 00000018H .xdata$_ZNK10__cxxabiv121__vmi_class_type_info16search_below_dstEPNS_19__dynamic_cast_infoEPKvib DATA
 0002:0001e320 0000000cH .xdata$_ZNK10__cxxabiv122__base_class_type_info16search_above_dstEPNS_19__dynamic_cast_infoEPKvS4_ib DATA
 0002:0001e32c 00000014H .xdata$_ZNK10__cxxabiv120__si_class_type_info16search_below_dstEPNS_19__dynamic_cast_infoEPKvib DATA
 0002:0001e340 00000010H .xdata$_ZNK10__cxxabiv117__class_type_info16search_below_dstEPNS_19__dynamic_cast_infoEPKvib DATA
 0002:0001e350 00000018H .xdata$_ZNK10__cxxabiv121__vmi_class_type_info16search_above_dstEPNS_19__dynamic_cast_infoEPKvS4_ib DATA
 0002:0001e368 00000010H .xdata$_ZNK10__cxxabiv120__si_class_type_info16search_above_dstEPNS_19__dynamic_cast_infoEPKvS4_ib DATA
 0002:0001e378 0000000cH .xdata$_ZNK10__cxxabiv117__class_type_info16search_above_dstEPNS_19__dynamic_cast_infoEPKvS4_ib DATA
 0002:0001e384 00000028H .xdata$_ZnwyRKSt9nothrow_t DATA
 0002:0001e3ac 00000028H .xdata$_ZnayRKSt9nothrow_t DATA
 0002:0001e3d4 00000028H .xdata$_ZnwySt11align_val_tRKSt9nothrow_t DATA
 0002:0001e3fc 00000028H .xdata$_ZnaySt11align_val_tRKSt9nothrow_t DATA
 0002:0001e424 00000020H .xdata$_ZdlPvSt11align_val_t DATA
 0002:0001e444 00000008H .xdata$_Znwy            DATA
 0002:0001e44c 00000028H .xdata$_ZnwyRKSt9nothrow_t DATA
 0002:0001e474 00000028H .xdata$_ZnayRKSt9nothrow_t DATA
 0002:0001e49c 0000000cH .xdata$_ZnwySt11align_val_t DATA
 0002:0001e4a8 00000028H .xdata$_ZnwySt11align_val_tRKSt9nothrow_t DATA
 0002:0001e4d0 00000028H .xdata$_ZnaySt11align_val_tRKSt9nothrow_t DATA
 0002:0001e4f8 00000020H .xdata$_ZdlPvSt11align_val_t DATA
 0002:0001e518 00000008H .xdata$_ZNSt11logic_errorD2Ev DATA
 0002:0001e520 00000008H .xdata$_ZNSt11logic_errorD0Ev DATA
 0002:0001e528 00000008H .xdata$_ZNSt13runtime_errorD2Ev DATA
 0002:0001e530 00000008H .xdata$_ZNSt13runtime_errorD0Ev DATA
 0002:0001e538 00000008H .xdata$_ZNSt12domain_errorD0Ev DATA
 0002:0001e540 00000008H .xdata$_ZNSt16invalid_argumentD0Ev DATA
 0002:0001e548 00000008H .xdata$_ZNSt12length_errorD0Ev DATA
 0002:0001e550 00000008H .xdata$_ZNSt12out_of_rangeD0Ev DATA
 0002:0001e558 00000008H .xdata$_ZNSt11range_errorD0Ev DATA
 0002:0001e560 00000008H .xdata$_ZNSt14overflow_errorD0Ev DATA
 0002:0001e568 00000008H .xdata$_ZNSt15underflow_errorD0Ev DATA
 0002:0001e570 00000030H .xdata                  DATA
 0002:0001e5a0 00000020H .xdata$_ZNSt11logic_errorC2ERKNSt3__112basic_stringIcNS0_11char_traitsIcEENS0_9allocatorIcEEEE DATA
 0002:0001e5c0 00000020H .xdata$_ZNSt11logic_errorC2EPKc DATA
 0002:0001e5e0 00000020H .xdata$_ZNSt13runtime_errorC2ERKNSt3__112basic_stringIcNS0_11char_traitsIcEENS0_9allocatorIcEEEE DATA
 0002:0001e600 00000020H .xdata$_ZNSt13runtime_errorC2EPKc DATA
 0002:0001e620 00000020H .xdata$_ZNSt11logic_errorC2ERKNSt3__112basic_stringIcNS0_11char_traitsIcEENS0_9allocatorIcEEEE DATA
 0002:0001e640 00000020H .xdata$_ZNSt11logic_errorC2EPKc DATA
 0002:0001e660 00000008H .xdata$_ZNSt11logic_erroraSERKS_ DATA
 0002:0001e668 00000020H .xdata$_ZNSt13runtime_errorC2ERKNSt3__112basic_stringIcNS0_11char_traitsIcEENS0_9allocatorIcEEEE DATA
 0002:0001e688 00000020H .xdata$_ZNSt13runtime_errorC2EPKc DATA
 0002:0001e6a8 00000008H .xdata$_ZNSt13runtime_erroraSERKS_ DATA
 0002:0001e6b0 00000028H .xdata$_ZNKSt3__123__system_error_category23default_error_conditionEi DATA
 0002:0001e6d8 00000024H .xdata$_ZNSt3__112system_error6__initERKNS_10error_codeENS_12basic_stringIcNS_11char_traitsIcEENS_9allocatorIcEEEE DATA
 0002:0001e6fc 00000030H .xdata$_ZNSt3__112system_errorC2ENS_10error_codeERKNS_12basic_stringIcNS_11char_traitsIcEENS_9allocatorIcEEEE DATA
 0002:0001e72c 00000030H .xdata$_ZNSt3__112system_errorC2ENS_10error_codeEPKc DATA
 0002:0001e75c 00000024H .xdata$_ZNSt3__112system_errorC2ENS_10error_codeE DATA
 0002:0001e780 00000034H .xdata$_ZNSt3__112system_errorC2EiRKNS_14error_categoryERKNS_12basic_stringIcNS_11char_traitsIcEENS_9allocatorIcEEEE DATA
 0002:0001e7b4 00000034H .xdata$_ZNSt3__112system_errorC2EiRKNS_14error_categoryEPKc DATA
 0002:0001e7e8 00000024H .xdata$_ZNSt3__112system_errorC2EiRKNS_14error_categoryE DATA
 0002:0001e80c 00000024H .xdata$_ZNSt3__120__throw_system_errorEiPKc DATA
 0002:0001e830 00000020H .xdata$_ZNSt3__120__throw_length_errorB6v15007EPKc DATA
 0002:0001e850 00000008H .xdata$_ZNKSt3__114error_category10equivalentEiRKNS_15error_conditionE DATA
 0002:0001e858 00000010H .xdata$_ZNKSt3__112__do_message7messageEi DATA
 0002:0001e868 0000000cH .xdata$_ZNKSt3__124__generic_error_category7messageEi DATA
 0002:0001e874 00000008H .xdata$_ZNSt3__116generic_categoryEv DATA
 0002:0001e87c 0000000cH .xdata$_ZNKSt3__123__system_error_category7messageEi DATA
 0002:0001e888 00000028H .xdata$_ZNKSt3__123__system_error_category23default_error_conditionEi DATA
 0002:0001e8b0 00000008H .xdata$_ZNSt3__115system_categoryEv DATA
 0002:0001e8b8 00000008H .xdata$_ZNKSt3__115error_condition7messageEv DATA
 0002:0001e8c0 00000008H .xdata$_ZNKSt3__110error_code7messageEv DATA
 0002:0001e8c8 00000024H .xdata$_ZNSt3__112system_error6__initERKNS_10error_codeENS_12basic_stringIcNS_11char_traitsIcEENS_9allocatorIcEEEE DATA
 0002:0001e8ec 00000030H .xdata$_ZNSt3__112system_errorC2ENS_10error_codeERKNS_12basic_stringIcNS_11char_traitsIcEENS_9allocatorIcEEEE DATA
 0002:0001e91c 00000030H .xdata$_ZNSt3__112system_errorC2ENS_10error_codeEPKc DATA
 0002:0001e94c 00000024H .xdata$_ZNSt3__112system_errorC2ENS_10error_codeE DATA
 0002:0001e970 00000034H .xdata$_ZNSt3__112system_errorC2EiRKNS_14error_categoryERKNS_12basic_stringIcNS_11char_traitsIcEENS_9allocatorIcEEEE DATA
 0002:0001e9a4 00000034H .xdata$_ZNSt3__112system_errorC2EiRKNS_14error_categoryEPKc DATA
 0002:0001e9d8 00000024H .xdata$_ZNSt3__112system_errorC2EiRKNS_14error_categoryE DATA
 0002:0001e9fc 00000008H .xdata$_ZNSt3__112system_errorD0Ev DATA
 0002:0001ea04 00000024H .xdata$_ZNSt3__120__throw_system_errorEiPKc DATA
 0002:0001ea28 0000004cH .xdata$unlikely$__cxa_guard_acquire DATA
 0002:0001ea74 00000034H .xdata$unlikely$__cxa_guard_release DATA
 0002:0001eaa8 00000034H .xdata$unlikely$__cxa_guard_abort DATA
 0002:0001eadc 0000004cH .xdata$unlikely$__cxa_guard_acquire DATA
 0002:0001eb28 00000034H .xdata$unlikely$__cxa_guard_release DATA
 0002:0001eb5c 00000034H .xdata$unlikely$__cxa_guard_abort DATA
 0002:0001eb90 00000008H .xdata$_ZSt17__throw_bad_allocv DATA
 0002:0001eb98 00000008H .xdata$_ZNSt8bad_castD0Ev DATA
 0002:0001eba0 00000008H .xdata$_ZNSt10bad_typeidD0Ev DATA
 0002:0001eba8 00000030H .xdata$_Z12MB_CUR_MAX_L8locale_t DATA
 0002:0001ebd8 00000020H .xdata$_ZNSt3__121__libcpp_locale_guardD2Ev DATA
 0002:0001ebf8 0000003cH .xdata$_Z12localeconv_lR8locale_t DATA
 0002:0001ec34 00000038H .xdata$_Z8mbrlen_lPKcyP9_Mbstatet8locale_t DATA
 0002:0001ec6c 00000038H .xdata$_Z11mbsrtowcs_lPwPPKcyP9_Mbstatet8locale_t DATA
 0002:0001eca4 00000038H .xdata$_Z9wcrtomb_lPcwP9_Mbstatet8locale_t DATA
 0002:0001ecdc 00000038H .xdata$_Z9mbrtowc_lPwPKcyP9_Mbstatet8locale_t DATA
 0002:0001ed14 0000003cH .xdata$_Z12mbsnrtowcs_lPwPPKcyyP9_Mbstatet8locale_t DATA
 0002:0001ed50 0000003cH .xdata$_Z12wcsnrtombs_lPcPPKwyyP9_Mbstatet8locale_t DATA
 0002:0001ed8c 00000034H .xdata$_Z7btowc_li8locale_t DATA
 0002:0001edc0 00000034H .xdata$_Z7wctob_lt8locale_t DATA
 0002:0001edf4 00000034H .xdata$_Z10snprintf_lPcy8locale_tPKcz DATA
 0002:0001ee28 00000018H .xdata$_Z10asprintf_lPPc8locale_tPKcz DATA
 0002:0001ee40 00000038H .xdata$_Z11vasprintf_lPPc8locale_tPKcS_ DATA
 0002:0001ee78 00000034H .xdata$_Z8strtof_lPKcPPc8locale_t DATA
 0002:0001eeac 00000034H .xdata$_Z9strtold_lPKcPPc8locale_t DATA
 0002:0001eee0 00000034H .xdata$_ZN15__lconv_storageC2EPK5lconv DATA
 0002:0001ef14 00000020H .xdata$_ZNSt3__120__throw_length_errorB6v15007EPKc DATA
 0002:0001ef34 0000000cH .xdata$_Z9newlocaleiPKc8locale_t DATA
 0002:0001ef40 00000030H .xdata$_Z12MB_CUR_MAX_L8locale_t DATA
 0002:0001ef70 00000020H .xdata$_ZNSt3__121__libcpp_locale_guardD2Ev DATA
 0002:0001ef90 0000003cH .xdata$_Z12localeconv_lR8locale_t DATA
 0002:0001efcc 00000038H .xdata$_Z8mbrlen_lPKcyP9_Mbstatet8locale_t DATA
 0002:0001f004 00000038H .xdata$_Z11mbsrtowcs_lPwPPKcyP9_Mbstatet8locale_t DATA
 0002:0001f03c 00000038H .xdata$_Z9wcrtomb_lPcwP9_Mbstatet8locale_t DATA
 0002:0001f074 00000038H .xdata$_Z9mbrtowc_lPwPKcyP9_Mbstatet8locale_t DATA
 0002:0001f0ac 0000003cH .xdata$_Z12mbsnrtowcs_lPwPPKcyyP9_Mbstatet8locale_t DATA
 0002:0001f0e8 0000003cH .xdata$_Z12wcsnrtombs_lPcPPKwyyP9_Mbstatet8locale_t DATA
 0002:0001f124 00000034H .xdata$_Z7btowc_li8locale_t DATA
 0002:0001f158 00000034H .xdata$_Z7wctob_lt8locale_t DATA
 0002:0001f18c 00000034H .xdata$_Z10snprintf_lPcy8locale_tPKcz DATA
 0002:0001f1c0 00000018H .xdata$_Z10asprintf_lPPc8locale_tPKcz DATA
 0002:0001f1d8 00000038H .xdata$_Z11vasprintf_lPPc8locale_tPKcS_ DATA
 0002:0001f210 00000034H .xdata$_Z8strtof_lPKcPPc8locale_t DATA
 0002:0001f244 00000034H .xdata$_Z9strtold_lPKcPPc8locale_t DATA
 0002:0001f278 00000034H .xdata$_ZN15__lconv_storageC2EPK5lconv DATA
 0002:0001f2ac 00000020H .xdata$_ZNSt3__18__sp_mut4lockEv DATA
 0002:0001f2cc 00000020H .xdata$_ZNSt3__18__sp_mut6unlockEv DATA
 0002:0001f2ec 00000008H .xdata$_ZNSt3__112bad_weak_ptrD0Ev DATA
 0002:0001f2f4 00000020H .xdata$_ZNSt3__18__sp_mut4lockEv DATA
 0002:0001f314 00000020H .xdata$_ZNSt3__18__sp_mut6unlockEv DATA
 0002:0001f334 00000020H .xdata$_ZNSt3__15mutex8try_lockEv DATA
 0002:0001f354 00000020H .xdata$_ZNSt3__15mutex6unlockEv DATA
 0002:0001f374 00000020H .xdata$_ZNSt3__115recursive_mutexD2Ev DATA
 0002:0001f394 00000020H .xdata$_ZNSt3__115recursive_mutex6unlockEv DATA
 0002:0001f3b4 00000020H .xdata$_ZNSt3__115recursive_mutex8try_lockEv DATA
 0002:0001f3d4 00000028H .xdata$_ZNSt3__111timed_mutexD2Ev DATA
 0002:0001f3fc 0000002cH .xdata$_ZNSt3__111timed_mutex4lockEv DATA
 0002:0001f428 00000020H .xdata$_ZNSt3__111unique_lockINS_5mutexEED2B6v15007Ev DATA
 0002:0001f448 00000028H .xdata$_ZNSt3__111timed_mutex8try_lockEv DATA
 0002:0001f470 00000028H .xdata$_ZNSt3__111timed_mutex6unlockEv DATA
 0002:0001f498 00000028H .xdata$_ZNSt3__121recursive_timed_mutexD2Ev DATA
 0002:0001f4c0 00000048H .xdata$_ZNSt3__121recursive_timed_mutex4lockEv DATA
 0002:0001f508 00000034H .xdata$_ZNSt3__121recursive_timed_mutex8try_lockEv DATA
 0002:0001f53c 0000002cH .xdata$_ZNSt3__121recursive_timed_mutex6unlockEv DATA
 0002:0001f568 00000044H .xdata$_ZNSt3__111__call_onceERVmPvPFvS2_E DATA
 0002:0001f5ac 00000008H .xdata$_ZNSt3__15mutex4lockEv DATA
 0002:0001f5b4 00000020H .xdata$_ZNSt3__15mutex8try_lockEv DATA
 0002:0001f5d4 00000020H .xdata$_ZNSt3__15mutex6unlockEv DATA
 0002:0001f5f4 00000008H .xdata$_ZNSt3__115recursive_mutexC2Ev DATA
 0002:0001f5fc 00000020H .xdata$_ZNSt3__115recursive_mutexD2Ev DATA
 0002:0001f61c 00000008H .xdata$_ZNSt3__115recursive_mutex4lockEv DATA
 0002:0001f624 00000020H .xdata$_ZNSt3__115recursive_mutex6unlockEv DATA
 0002:0001f644 00000020H .xdata$_ZNSt3__115recursive_mutex8try_lockEv DATA
 0002:0001f664 00000028H .xdata$_ZNSt3__111timed_mutexD2Ev DATA
 0002:0001f68c 0000002cH .xdata$_ZNSt3__111timed_mutex4lockEv DATA
 0002:0001f6b8 00000020H .xdata$_ZNSt3__111unique_lockINS_5mutexEED2B6v15007Ev DATA
 0002:0001f6d8 00000028H .xdata$_ZNSt3__111timed_mutex8try_lockEv DATA
 0002:0001f700 00000028H .xdata$_ZNSt3__111timed_mutex6unlockEv DATA
 0002:0001f728 00000028H .xdata$_ZNSt3__121recursive_timed_mutexD2Ev DATA
 0002:0001f750 00000048H .xdata$_ZNSt3__121recursive_timed_mutex4lockEv DATA
 0002:0001f798 00000034H .xdata$_ZNSt3__121recursive_timed_mutex8try_lockEv DATA
 0002:0001f7cc 0000002cH .xdata$_ZNSt3__121recursive_timed_mutex6unlockEv DATA
 0002:0001f7f8 00000044H .xdata$_ZNSt3__111__call_onceERVmPvPFvS2_E DATA
 0002:0001f83c 00000008H .xdata                  DATA
 0002:0001f844 00000030H .xdata$__unw_init_local DATA
 0002:0001f874 00000008H .xdata$logAPIs          DATA
 0002:0001f87c 0000000cH .xdata$__unw_get_reg    DATA
 0002:0001f888 00000010H .xdata$__unw_set_reg    DATA
 0002:0001f898 0000000cH .xdata$__unw_get_fpreg  DATA
 0002:0001f8a4 00000010H .xdata$__unw_set_fpreg  DATA
 0002:0001f8b4 00000008H .xdata$__unw_step       DATA
 0002:0001f8bc 0000000cH .xdata$__unw_get_proc_info DATA
 0002:0001f8c8 00000008H .xdata$__unw_resume     DATA
 0002:0001f8d0 00000010H .xdata$__unw_get_proc_name DATA
 0002:0001f8e0 0000000cH .xdata$__unw_is_fpreg   DATA
 0002:0001f8ec 0000000cH .xdata$__unw_regname    DATA
 0002:0001f8f8 00000008H .xdata$__unw_is_signal_frame DATA
 0002:0001f900 00000008H .xdata$logUnwinding     DATA
 0002:0001f908 00000008H .xdata$logDWARF         DATA
 0002:0001f910 00000008H .xdata$_ZNSt3__129__libcpp_recursive_mutex_initEPA5_Pv DATA
 0002:0001f918 00000008H .xdata$_ZNSt3__129__libcpp_recursive_mutex_lockEPA5_Pv DATA
 0002:0001f920 00000008H .xdata$_ZNSt3__132__libcpp_recursive_mutex_trylockEPA5_Pv DATA
 0002:0001f928 00000008H .xdata$_ZNSt3__131__libcpp_recursive_mutex_unlockEPA5_Pv DATA
 0002:0001f930 00000008H .xdata$_ZNSt3__132__libcpp_recursive_mutex_destroyEPA5_Pv DATA
 0002:0001f938 00000008H .xdata$_ZNSt3__119__libcpp_mutex_lockEPPv DATA
 0002:0001f940 00000008H .xdata$_ZNSt3__122__libcpp_mutex_trylockEPPv DATA
 0002:0001f948 00000008H .xdata$_ZNSt3__121__libcpp_mutex_unlockEPPv DATA
 0002:0001f950 00000008H .xdata$_ZNSt3__123__libcpp_condvar_signalEPPv DATA
 0002:0001f958 00000008H .xdata$_ZNSt3__126__libcpp_condvar_broadcastEPPv DATA
 0002:0001f960 00000008H .xdata$_ZNSt3__121__libcpp_condvar_waitEPPvS1_ DATA
 0002:0001f968 00000010H .xdata$_ZNSt3__126__libcpp_condvar_timedwaitEPPvS1_P8timespec DATA
 0002:0001f978 00000008H .xdata$_ZNSt3__121__libcpp_execute_onceEPPvPFvvE DATA
 0002:0001f980 00000008H .xdata$_ZNSt3__1L37__libcpp_init_once_execute_once_thunkB6v15007EP13_RTL_RUN_ONCEPvPS2_ DATA
 0002:0001f988 0000000cH .xdata$_ZNSt3__122__libcpp_thread_createEPPvPFS0_S0_ES0_ DATA
 0002:0001f994 0000000cH .xdata$_ZNSt3__1L28__libcpp_beginthreadex_thunkB6v15007EPv DATA
 0002:0001f9a0 00000008H .xdata$_ZNSt3__120__libcpp_thread_joinEPPv DATA
 0002:0001f9a8 00000008H .xdata$_ZNSt3__122__libcpp_thread_detachEPPv DATA
 0002:0001f9b0 00000008H .xdata$_ZNSt3__119__libcpp_tls_createEPlPFvPvE DATA
 0002:0001f9b8 00000008H .xdata$_ZNSt3__116__libcpp_tls_setElPv DATA
 0002:0001f9c0 00000034H .xdata$__cxa_demangle   DATA
 0002:0001f9f4 00000078H .xdata$_ZN12_GLOBAL__N_116itanium_demangle22AbstractManglingParserINS0_14ManglingParserINS_16DefaultAllocatorEEES3_E13parseEncodingEv DATA
 0002:0001fa6c 00000040H .xdata$_ZN12_GLOBAL__N_116itanium_demangle22AbstractManglingParserINS0_14ManglingParserINS_16DefaultAllocatorEEES3_E17parseTemplateArgsEb DATA
 0002:0001faac 00000018H .xdata$_ZNK12_GLOBAL__N_116itanium_demangle24ForwardTemplateReference19hasRHSComponentSlowERNS0_12OutputBufferE DATA
 0002:0001fac4 00000018H .xdata$_ZNK12_GLOBAL__N_116itanium_demangle24ForwardTemplateReference12hasArraySlowERNS0_12OutputBufferE DATA
